                                      1 ;--------------------------------------------------------
                                      2 ; File Created by SDCC : free open source ISO C Compiler 
                                      3 ; Version 4.2.2 #13350 (MINGW64)
                                      4 ;--------------------------------------------------------
                                      5 	.module EyeExec
                                      6 	.optsdcc -msm83
                                      7 	
                                      8 ;--------------------------------------------------------
                                      9 ; Public variables in this module
                                     10 ;--------------------------------------------------------
                                     11 	.globl _HitCheck
                                     12 	.globl _DamageCheck
                                     13 	.globl _EyePosAdjust
                                     14 	.globl _EyeExec
                                     15 	.globl _EyeExecMain
                                     16 	.globl _EyeModeChange
                                     17 	.globl _ChangeDirection
                                     18 	.globl _EyeInit
                                     19 	.globl _randGenetate
                                     20 	.globl _EyeExecInit
                                     21 	.globl _rand
                                     22 	.globl _initrand
                                     23 	.globl _set_sprite_data
                                     24 	.globl _adjustCnt
                                     25 	.globl _eye2Cnt
                                     26 	.globl _eye1Cnt
                                     27 	.globl _eye2Flag
                                     28 	.globl _eye1Flag
                                     29 	.globl _eye2Mode
                                     30 	.globl _eye1Mode
                                     31 	.globl _eye2Y
                                     32 	.globl _eye2X
                                     33 	.globl _eye1Y
                                     34 	.globl _eye1X
                                     35 ;--------------------------------------------------------
                                     36 ; special function registers
                                     37 ;--------------------------------------------------------
                                     38 ;--------------------------------------------------------
                                     39 ; ram data
                                     40 ;--------------------------------------------------------
                                     41 	.area _DATA
                           000000    42 G$eye1X$0_0$0==.
      000000                         43 _eye1X::
      000000                         44 	.ds 1
                           000001    45 G$eye1Y$0_0$0==.
      000001                         46 _eye1Y::
      000001                         47 	.ds 1
                           000002    48 G$eye2X$0_0$0==.
      000002                         49 _eye2X::
      000002                         50 	.ds 1
                           000003    51 G$eye2Y$0_0$0==.
      000003                         52 _eye2Y::
      000003                         53 	.ds 1
                           000004    54 G$eye1Mode$0_0$0==.
      000004                         55 _eye1Mode::
      000004                         56 	.ds 1
                           000005    57 G$eye2Mode$0_0$0==.
      000005                         58 _eye2Mode::
      000005                         59 	.ds 1
                           000006    60 G$eye1Flag$0_0$0==.
      000006                         61 _eye1Flag::
      000006                         62 	.ds 1
                           000007    63 G$eye2Flag$0_0$0==.
      000007                         64 _eye2Flag::
      000007                         65 	.ds 1
                           000008    66 G$eye1Cnt$0_0$0==.
      000008                         67 _eye1Cnt::
      000008                         68 	.ds 1
                           000009    69 G$eye2Cnt$0_0$0==.
      000009                         70 _eye2Cnt::
      000009                         71 	.ds 1
                           00000A    72 G$adjustCnt$0_0$0==.
      00000A                         73 _adjustCnt::
      00000A                         74 	.ds 1
                                     75 ;--------------------------------------------------------
                                     76 ; ram data
                                     77 ;--------------------------------------------------------
                                     78 	.area _INITIALIZED
                                     79 ;--------------------------------------------------------
                                     80 ; absolute external ram data
                                     81 ;--------------------------------------------------------
                                     82 	.area _DABS (ABS)
                                     83 ;--------------------------------------------------------
                                     84 ; global & static initialisations
                                     85 ;--------------------------------------------------------
                                     86 	.area _HOME
                                     87 	.area _GSINIT
                                     88 	.area _GSFINAL
                                     89 	.area _GSINIT
                                     90 ;--------------------------------------------------------
                                     91 ; Home
                                     92 ;--------------------------------------------------------
                                     93 	.area _HOME
                                     94 	.area _HOME
                                     95 ;--------------------------------------------------------
                                     96 ; code
                                     97 ;--------------------------------------------------------
                                     98 	.area _CODE
                           000000    99 	G$EyeExecInit$0$0	= .
                                    100 	.globl	G$EyeExecInit$0$0
                           000000   101 	C$EyeExec.c$36$0_0$109	= .
                                    102 	.globl	C$EyeExec.c$36$0_0$109
                                    103 ;C:\Users\sva13\OneDrive\ドキュメント\会社\課題\gbdk\Project\gb-test\source\exec\EyeExec.c:36: void EyeExecInit(){
                                    104 ;	---------------------------------
                                    105 ; Function EyeExecInit
                                    106 ; ---------------------------------
      000000                        107 _EyeExecInit::
                           000000   108 	C$EyeExec.c$37$1_0$109	= .
                                    109 	.globl	C$EyeExec.c$37$1_0$109
                                    110 ;C:\Users\sva13\OneDrive\ドキュメント\会社\課題\gbdk\Project\gb-test\source\exec\EyeExec.c:37: eye1X = 255;
      000000 21r00r00         [12]  111 	ld	hl, #_eye1X
      000003 36 FF            [12]  112 	ld	(hl), #0xff
                           000005   113 	C$EyeExec.c$38$1_0$109	= .
                                    114 	.globl	C$EyeExec.c$38$1_0$109
                                    115 ;C:\Users\sva13\OneDrive\ドキュメント\会社\課題\gbdk\Project\gb-test\source\exec\EyeExec.c:38: eye1Y = 255;
      000005 21r01r00         [12]  116 	ld	hl, #_eye1Y
      000008 36 FF            [12]  117 	ld	(hl), #0xff
                           00000A   118 	C$EyeExec.c$39$1_0$109	= .
                                    119 	.globl	C$EyeExec.c$39$1_0$109
                                    120 ;C:\Users\sva13\OneDrive\ドキュメント\会社\課題\gbdk\Project\gb-test\source\exec\EyeExec.c:39: eye2X = 255;
      00000A 21r02r00         [12]  121 	ld	hl, #_eye2X
      00000D 36 FF            [12]  122 	ld	(hl), #0xff
                           00000F   123 	C$EyeExec.c$40$1_0$109	= .
                                    124 	.globl	C$EyeExec.c$40$1_0$109
                                    125 ;C:\Users\sva13\OneDrive\ドキュメント\会社\課題\gbdk\Project\gb-test\source\exec\EyeExec.c:40: eye2Y = 255;
      00000F 21r03r00         [12]  126 	ld	hl, #_eye2Y
      000012 36 FF            [12]  127 	ld	(hl), #0xff
                           000014   128 	C$EyeExec.c$41$1_0$109	= .
                                    129 	.globl	C$EyeExec.c$41$1_0$109
                                    130 ;C:\Users\sva13\OneDrive\ドキュメント\会社\課題\gbdk\Project\gb-test\source\exec\EyeExec.c:41: eye1Cnt = 0;
      000014 21r08r00         [12]  131 	ld	hl, #_eye1Cnt
      000017 36 00            [12]  132 	ld	(hl), #0x00
                           000019   133 	C$EyeExec.c$42$1_0$109	= .
                                    134 	.globl	C$EyeExec.c$42$1_0$109
                                    135 ;C:\Users\sva13\OneDrive\ドキュメント\会社\課題\gbdk\Project\gb-test\source\exec\EyeExec.c:42: eye2Cnt = 0;
      000019 21r09r00         [12]  136 	ld	hl, #_eye2Cnt
      00001C 36 00            [12]  137 	ld	(hl), #0x00
                           00001E   138 	C$EyeExec.c$43$1_0$109	= .
                                    139 	.globl	C$EyeExec.c$43$1_0$109
                                    140 ;C:\Users\sva13\OneDrive\ドキュメント\会社\課題\gbdk\Project\gb-test\source\exec\EyeExec.c:43: adjustCnt = 0;
      00001E 21r0Ar00         [12]  141 	ld	hl, #_adjustCnt
      000021 36 00            [12]  142 	ld	(hl), #0x00
                           000023   143 	C$EyeExec.c$45$1_0$109	= .
                                    144 	.globl	C$EyeExec.c$45$1_0$109
                                    145 ;C:\Users\sva13\OneDrive\ドキュメント\会社\課題\gbdk\Project\gb-test\source\exec\EyeExec.c:45: }
                           000023   146 	C$EyeExec.c$45$1_0$109	= .
                                    147 	.globl	C$EyeExec.c$45$1_0$109
                           000023   148 	XG$EyeExecInit$0$0	= .
                                    149 	.globl	XG$EyeExecInit$0$0
      000023 C9               [16]  150 	ret
                           000024   151 	G$randGenetate$0$0	= .
                                    152 	.globl	G$randGenetate$0$0
                           000024   153 	C$EyeExec.c$48$1_0$111	= .
                                    154 	.globl	C$EyeExec.c$48$1_0$111
                                    155 ;C:\Users\sva13\OneDrive\ドキュメント\会社\課題\gbdk\Project\gb-test\source\exec\EyeExec.c:48: uint8_t randGenetate(uint8_t step){
                                    156 ;	---------------------------------
                                    157 ; Function randGenetate
                                    158 ; ---------------------------------
      000024                        159 _randGenetate::
      000024 E8 F9            [16]  160 	add	sp, #-7
      000026 F8 06            [12]  161 	ldhl	sp,	#6
      000028 77               [ 8]  162 	ld	(hl), a
                           000029   163 	C$EyeExec.c$49$2_0$111	= .
                                    164 	.globl	C$EyeExec.c$49$2_0$111
                                    165 ;C:\Users\sva13\OneDrive\ドキュメント\会社\課題\gbdk\Project\gb-test\source\exec\EyeExec.c:49: uint16_t seed = LY_REG;
      000029 F0r00            [12]  166 	ldh	a, (_LY_REG + 0)
      00002B 4F               [ 4]  167 	ld	c, a
      00002C 06 00            [ 8]  168 	ld	b, #0x00
                           00002E   169 	C$EyeExec.c$50$1_0$111	= .
                                    170 	.globl	C$EyeExec.c$50$1_0$111
                                    171 ;C:\Users\sva13\OneDrive\ドキュメント\会社\課題\gbdk\Project\gb-test\source\exec\EyeExec.c:50: seed |= (uint16_t)DIV_REG << 8;
      00002E F0r00            [12]  172 	ldh	a, (_DIV_REG + 0)
      000030 57               [ 4]  173 	ld	d, a
      000031 1E 00            [ 8]  174 	ld	e, #0x00
      000033 79               [ 4]  175 	ld	a, c
      000034 B3               [ 4]  176 	or	a, e
      000035 4F               [ 4]  177 	ld	c, a
      000036 78               [ 4]  178 	ld	a, b
      000037 B2               [ 4]  179 	or	a, d
      000038 47               [ 4]  180 	ld	b, a
                           000039   181 	C$EyeExec.c$51$1_0$111	= .
                                    182 	.globl	C$EyeExec.c$51$1_0$111
                                    183 ;C:\Users\sva13\OneDrive\ドキュメント\会社\課題\gbdk\Project\gb-test\source\exec\EyeExec.c:51: initrand(seed);
      000039 C5               [16]  184 	push	bc
      00003A CDr00r00         [24]  185 	call	_initrand
      00003D E1               [12]  186 	pop	hl
                           00003E   187 	C$EyeExec.c$54$1_1$112	= .
                                    188 	.globl	C$EyeExec.c$54$1_1$112
                                    189 ;C:\Users\sva13\OneDrive\ドキュメント\会社\課題\gbdk\Project\gb-test\source\exec\EyeExec.c:54: uI = rand();
      00003E CDr00r00         [24]  190 	call	_rand
      000041 F8 00            [12]  191 	ldhl	sp,	#0
      000043 73               [ 8]  192 	ld	(hl), e
                           000044   193 	C$EyeExec.c$55$1_1$111	= .
                                    194 	.globl	C$EyeExec.c$55$1_1$111
                                    195 ;C:\Users\sva13\OneDrive\ドキュメント\会社\課題\gbdk\Project\gb-test\source\exec\EyeExec.c:55: if(step <= 2){
      000044 3E 02            [ 8]  196 	ld	a, #0x02
      000046 F8 06            [12]  197 	ldhl	sp,	#6
      000048 96               [ 8]  198 	sub	a, (hl)
      000049 3E 00            [ 8]  199 	ld	a, #0x00
      00004B 17               [ 4]  200 	rla
      00004C F8 01            [12]  201 	ldhl	sp,	#1
                           00004E   202 	C$EyeExec.c$57$1_1$111	= .
                                    203 	.globl	C$EyeExec.c$57$1_1$111
                                    204 ;C:\Users\sva13\OneDrive\ドキュメント\会社\課題\gbdk\Project\gb-test\source\exec\EyeExec.c:57: if(uI <= 127){
      00004E 32               [ 8]  205 	ld	(hl-), a
      00004F 3E 7F            [ 8]  206 	ld	a, #0x7f
      000051 96               [ 8]  207 	sub	a, (hl)
      000052 23               [ 8]  208 	inc	hl
      000053 23               [ 8]  209 	inc	hl
      000054 3E 00            [ 8]  210 	ld	a, #0x00
      000056 17               [ 4]  211 	rla
                           000057   212 	C$EyeExec.c$55$1_1$112	= .
                                    213 	.globl	C$EyeExec.c$55$1_1$112
                                    214 ;C:\Users\sva13\OneDrive\ドキュメント\会社\課題\gbdk\Project\gb-test\source\exec\EyeExec.c:55: if(step <= 2){
      000057 32               [ 8]  215 	ld	(hl-), a
      000058 CB 46            [12]  216 	bit	0, (hl)
      00005A 20 0E            [12]  217 	jr	NZ, 00149$
                           00005C   218 	C$EyeExec.c$57$2_1$113	= .
                                    219 	.globl	C$EyeExec.c$57$2_1$113
                                    220 ;C:\Users\sva13\OneDrive\ドキュメント\会社\課題\gbdk\Project\gb-test\source\exec\EyeExec.c:57: if(uI <= 127){
      00005C 23               [ 8]  221 	inc	hl
      00005D CB 46            [12]  222 	bit	0, (hl)
      00005F 20 04            [12]  223 	jr	NZ, 00102$
                           000061   224 	C$EyeExec.c$58$3_1$114	= .
                                    225 	.globl	C$EyeExec.c$58$3_1$114
                                    226 ;C:\Users\sva13\OneDrive\ドキュメント\会社\課題\gbdk\Project\gb-test\source\exec\EyeExec.c:58: return 0;
      000061 AF               [ 4]  227 	xor	a, a
      000062 C3r3Cr01         [16]  228 	jp	00151$
      000065                        229 00102$:
                           000065   230 	C$EyeExec.c$61$3_1$115	= .
                                    231 	.globl	C$EyeExec.c$61$3_1$115
                                    232 ;C:\Users\sva13\OneDrive\ドキュメント\会社\課題\gbdk\Project\gb-test\source\exec\EyeExec.c:61: return 1;
      000065 3E 01            [ 8]  233 	ld	a, #0x01
      000067 C3r3Cr01         [16]  234 	jp	00151$
      00006A                        235 00149$:
                           00006A   236 	C$EyeExec.c$66$1_1$111	= .
                                    237 	.globl	C$EyeExec.c$66$1_1$111
                                    238 ;C:\Users\sva13\OneDrive\ドキュメント\会社\課題\gbdk\Project\gb-test\source\exec\EyeExec.c:66: if(uI >= 0 && uI <= 63){
      00006A 3E 3F            [ 8]  239 	ld	a, #0x3f
      00006C F8 00            [12]  240 	ldhl	sp,	#0
      00006E 96               [ 8]  241 	sub	a, (hl)
      00006F 3E 00            [ 8]  242 	ld	a, #0x00
      000071 17               [ 4]  243 	rla
      000072 F8 03            [12]  244 	ldhl	sp,	#3
      000074 77               [ 8]  245 	ld	(hl), a
                           000075   246 	C$EyeExec.c$69$1_1$111	= .
                                    247 	.globl	C$EyeExec.c$69$1_1$111
                                    248 ;C:\Users\sva13\OneDrive\ドキュメント\会社\課題\gbdk\Project\gb-test\source\exec\EyeExec.c:69: else if(uI >= 64 && uI <= 127){
      000075 F8 00            [12]  249 	ldhl	sp,	#0
      000077 7E               [ 8]  250 	ld	a, (hl)
      000078 D6 40            [ 8]  251 	sub	a, #0x40
      00007A 3E 00            [ 8]  252 	ld	a, #0x00
      00007C 17               [ 4]  253 	rla
      00007D F8 04            [12]  254 	ldhl	sp,	#4
      00007F 77               [ 8]  255 	ld	(hl), a
                           000080   256 	C$EyeExec.c$72$1_1$111	= .
                                    257 	.globl	C$EyeExec.c$72$1_1$111
                                    258 ;C:\Users\sva13\OneDrive\ドキュメント\会社\課題\gbdk\Project\gb-test\source\exec\EyeExec.c:72: else if(uI >= 128 && uI <= 191){
      000080 F8 00            [12]  259 	ldhl	sp,	#0
      000082 7E               [ 8]  260 	ld	a, (hl)
      000083 D6 80            [ 8]  261 	sub	a, #0x80
      000085 3E 00            [ 8]  262 	ld	a, #0x00
      000087 17               [ 4]  263 	rla
      000088 F8 05            [12]  264 	ldhl	sp,	#5
      00008A 77               [ 8]  265 	ld	(hl), a
      00008B 3E BF            [ 8]  266 	ld	a, #0xbf
      00008D F8 00            [12]  267 	ldhl	sp,	#0
      00008F 96               [ 8]  268 	sub	a, (hl)
                           000090   269 	C$EyeExec.c$64$1_1$112	= .
                                    270 	.globl	C$EyeExec.c$64$1_1$112
                                    271 ;C:\Users\sva13\OneDrive\ドキュメント\会社\課題\gbdk\Project\gb-test\source\exec\EyeExec.c:64: else if(step > 2 && step <= 4){
      000090 23               [ 8]  272 	inc	hl
      000091 3E 00            [ 8]  273 	ld	a, #0x00
      000093 17               [ 4]  274 	rla
      000094 4F               [ 4]  275 	ld	c, a
      000095 7E               [ 8]  276 	ld	a, (hl)
      000096 B7               [ 4]  277 	or	a, a
      000097 28 34            [12]  278 	jr	Z, 00143$
      000099 3E 04            [ 8]  279 	ld	a, #0x04
      00009B F8 06            [12]  280 	ldhl	sp,	#6
      00009D 96               [ 8]  281 	sub	a, (hl)
      00009E 38 2D            [12]  282 	jr	C, 00143$
                           0000A0   283 	C$EyeExec.c$66$2_1$116	= .
                                    284 	.globl	C$EyeExec.c$66$2_1$116
                                    285 ;C:\Users\sva13\OneDrive\ドキュメント\会社\課題\gbdk\Project\gb-test\source\exec\EyeExec.c:66: if(uI >= 0 && uI <= 63){
      0000A0 F8 03            [12]  286 	ldhl	sp,	#3
      0000A2 CB 46            [12]  287 	bit	0, (hl)
      0000A4 20 04            [12]  288 	jr	NZ, 00113$
                           0000A6   289 	C$EyeExec.c$67$3_1$117	= .
                                    290 	.globl	C$EyeExec.c$67$3_1$117
                                    291 ;C:\Users\sva13\OneDrive\ドキュメント\会社\課題\gbdk\Project\gb-test\source\exec\EyeExec.c:67: return 0;
      0000A6 AF               [ 4]  292 	xor	a, a
      0000A7 C3r3Cr01         [16]  293 	jp	00151$
      0000AA                        294 00113$:
                           0000AA   295 	C$EyeExec.c$69$2_1$116	= .
                                    296 	.globl	C$EyeExec.c$69$2_1$116
                                    297 ;C:\Users\sva13\OneDrive\ドキュメント\会社\課題\gbdk\Project\gb-test\source\exec\EyeExec.c:69: else if(uI >= 64 && uI <= 127){
      0000AA F8 04            [12]  298 	ldhl	sp,	#4
      0000AC CB 46            [12]  299 	bit	0, (hl)
      0000AE 20 0B            [12]  300 	jr	NZ, 00109$
      0000B0 2B               [ 8]  301 	dec	hl
      0000B1 2B               [ 8]  302 	dec	hl
      0000B2 CB 46            [12]  303 	bit	0, (hl)
      0000B4 20 05            [12]  304 	jr	NZ, 00109$
                           0000B6   305 	C$EyeExec.c$70$3_1$118	= .
                                    306 	.globl	C$EyeExec.c$70$3_1$118
                                    307 ;C:\Users\sva13\OneDrive\ドキュメント\会社\課題\gbdk\Project\gb-test\source\exec\EyeExec.c:70: return 1;
      0000B6 3E 01            [ 8]  308 	ld	a, #0x01
      0000B8 C3r3Cr01         [16]  309 	jp	00151$
      0000BB                        310 00109$:
                           0000BB   311 	C$EyeExec.c$72$2_1$116	= .
                                    312 	.globl	C$EyeExec.c$72$2_1$116
                                    313 ;C:\Users\sva13\OneDrive\ドキュメント\会社\課題\gbdk\Project\gb-test\source\exec\EyeExec.c:72: else if(uI >= 128 && uI <= 191){
      0000BB F8 05            [12]  314 	ldhl	sp,	#5
      0000BD CB 46            [12]  315 	bit	0, (hl)
      0000BF 20 08            [12]  316 	jr	NZ, 00105$
      0000C1 CB 41            [ 8]  317 	bit	0, c
      0000C3 20 04            [12]  318 	jr	NZ, 00105$
                           0000C5   319 	C$EyeExec.c$73$3_1$119	= .
                                    320 	.globl	C$EyeExec.c$73$3_1$119
                                    321 ;C:\Users\sva13\OneDrive\ドキュメント\会社\課題\gbdk\Project\gb-test\source\exec\EyeExec.c:73: return 2;
      0000C5 3E 02            [ 8]  322 	ld	a, #0x02
      0000C7 18 73            [12]  323 	jr	00151$
      0000C9                        324 00105$:
                           0000C9   325 	C$EyeExec.c$76$3_1$120	= .
                                    326 	.globl	C$EyeExec.c$76$3_1$120
                                    327 ;C:\Users\sva13\OneDrive\ドキュメント\会社\課題\gbdk\Project\gb-test\source\exec\EyeExec.c:76: return 3;
      0000C9 3E 03            [ 8]  328 	ld	a, #0x03
      0000CB 18 6F            [12]  329 	jr	00151$
                           0000CD   330 	C$EyeExec.c$81$2_1$121	= .
                                    331 	.globl	C$EyeExec.c$81$2_1$121
                                    332 ;C:\Users\sva13\OneDrive\ドキュメント\会社\課題\gbdk\Project\gb-test\source\exec\EyeExec.c:81: if(uI >= 0 && uI <= 31){
      0000CD                        333 00143$:
      0000CD 3E 1F            [ 8]  334 	ld	a, #0x1f
      0000CF F8 00            [12]  335 	ldhl	sp,	#0
      0000D1 96               [ 8]  336 	sub	a, (hl)
      0000D2 38 03            [12]  337 	jr	C, 00141$
                           0000D4   338 	C$EyeExec.c$82$3_1$122	= .
                                    339 	.globl	C$EyeExec.c$82$3_1$122
                                    340 ;C:\Users\sva13\OneDrive\ドキュメント\会社\課題\gbdk\Project\gb-test\source\exec\EyeExec.c:82: return 0;
      0000D4 AF               [ 4]  341 	xor	a, a
      0000D5 18 65            [12]  342 	jr	00151$
      0000D7                        343 00141$:
                           0000D7   344 	C$EyeExec.c$84$2_1$121	= .
                                    345 	.globl	C$EyeExec.c$84$2_1$121
                                    346 ;C:\Users\sva13\OneDrive\ドキュメント\会社\課題\gbdk\Project\gb-test\source\exec\EyeExec.c:84: else if(uI >= 32 && uI <= 63){
      0000D7 F8 00            [12]  347 	ldhl	sp,	#0
      0000D9 7E               [ 8]  348 	ld	a, (hl)
      0000DA D6 20            [ 8]  349 	sub	a, #0x20
      0000DC 38 0A            [12]  350 	jr	C, 00137$
      0000DE F8 03            [12]  351 	ldhl	sp,	#3
      0000E0 CB 46            [12]  352 	bit	0, (hl)
      0000E2 20 04            [12]  353 	jr	NZ, 00137$
                           0000E4   354 	C$EyeExec.c$85$3_1$123	= .
                                    355 	.globl	C$EyeExec.c$85$3_1$123
                                    356 ;C:\Users\sva13\OneDrive\ドキュメント\会社\課題\gbdk\Project\gb-test\source\exec\EyeExec.c:85: return 1;
      0000E4 3E 01            [ 8]  357 	ld	a, #0x01
      0000E6 18 54            [12]  358 	jr	00151$
      0000E8                        359 00137$:
                           0000E8   360 	C$EyeExec.c$87$2_1$121	= .
                                    361 	.globl	C$EyeExec.c$87$2_1$121
                                    362 ;C:\Users\sva13\OneDrive\ドキュメント\会社\課題\gbdk\Project\gb-test\source\exec\EyeExec.c:87: else if(uI >= 64 && uI <= 95){
      0000E8 F8 04            [12]  363 	ldhl	sp,	#4
      0000EA CB 46            [12]  364 	bit	0, (hl)
      0000EC 20 0B            [12]  365 	jr	NZ, 00133$
      0000EE 3E 5F            [ 8]  366 	ld	a, #0x5f
      0000F0 F8 00            [12]  367 	ldhl	sp,	#0
      0000F2 96               [ 8]  368 	sub	a, (hl)
      0000F3 38 04            [12]  369 	jr	C, 00133$
                           0000F5   370 	C$EyeExec.c$88$3_1$124	= .
                                    371 	.globl	C$EyeExec.c$88$3_1$124
                                    372 ;C:\Users\sva13\OneDrive\ドキュメント\会社\課題\gbdk\Project\gb-test\source\exec\EyeExec.c:88: return 2;
      0000F5 3E 02            [ 8]  373 	ld	a, #0x02
      0000F7 18 43            [12]  374 	jr	00151$
      0000F9                        375 00133$:
                           0000F9   376 	C$EyeExec.c$90$2_1$121	= .
                                    377 	.globl	C$EyeExec.c$90$2_1$121
                                    378 ;C:\Users\sva13\OneDrive\ドキュメント\会社\課題\gbdk\Project\gb-test\source\exec\EyeExec.c:90: else if(uI >= 96 && uI <= 127){
      0000F9 F8 00            [12]  379 	ldhl	sp,	#0
      0000FB 7E               [ 8]  380 	ld	a, (hl)
      0000FC D6 60            [ 8]  381 	sub	a, #0x60
      0000FE 38 0A            [12]  382 	jr	C, 00129$
      000100 23               [ 8]  383 	inc	hl
      000101 23               [ 8]  384 	inc	hl
      000102 CB 46            [12]  385 	bit	0, (hl)
      000104 20 04            [12]  386 	jr	NZ, 00129$
                           000106   387 	C$EyeExec.c$91$3_1$125	= .
                                    388 	.globl	C$EyeExec.c$91$3_1$125
                                    389 ;C:\Users\sva13\OneDrive\ドキュメント\会社\課題\gbdk\Project\gb-test\source\exec\EyeExec.c:91: return 3;
      000106 3E 03            [ 8]  390 	ld	a, #0x03
      000108 18 32            [12]  391 	jr	00151$
      00010A                        392 00129$:
                           00010A   393 	C$EyeExec.c$93$2_1$121	= .
                                    394 	.globl	C$EyeExec.c$93$2_1$121
                                    395 ;C:\Users\sva13\OneDrive\ドキュメント\会社\課題\gbdk\Project\gb-test\source\exec\EyeExec.c:93: else if(uI >= 128 && uI <= 159){
      00010A F8 05            [12]  396 	ldhl	sp,	#5
      00010C CB 46            [12]  397 	bit	0, (hl)
      00010E 20 0B            [12]  398 	jr	NZ, 00125$
      000110 3E 9F            [ 8]  399 	ld	a, #0x9f
      000112 F8 00            [12]  400 	ldhl	sp,	#0
      000114 96               [ 8]  401 	sub	a, (hl)
      000115 38 04            [12]  402 	jr	C, 00125$
                           000117   403 	C$EyeExec.c$94$3_1$126	= .
                                    404 	.globl	C$EyeExec.c$94$3_1$126
                                    405 ;C:\Users\sva13\OneDrive\ドキュメント\会社\課題\gbdk\Project\gb-test\source\exec\EyeExec.c:94: return 4;
      000117 3E 04            [ 8]  406 	ld	a, #0x04
      000119 18 21            [12]  407 	jr	00151$
      00011B                        408 00125$:
                           00011B   409 	C$EyeExec.c$96$2_1$121	= .
                                    410 	.globl	C$EyeExec.c$96$2_1$121
                                    411 ;C:\Users\sva13\OneDrive\ドキュメント\会社\課題\gbdk\Project\gb-test\source\exec\EyeExec.c:96: else if(uI >= 160 && uI <= 191){
      00011B F8 00            [12]  412 	ldhl	sp,	#0
      00011D 7E               [ 8]  413 	ld	a, (hl)
      00011E D6 A0            [ 8]  414 	sub	a, #0xa0
      000120 38 08            [12]  415 	jr	C, 00121$
      000122 CB 41            [ 8]  416 	bit	0, c
      000124 20 04            [12]  417 	jr	NZ, 00121$
                           000126   418 	C$EyeExec.c$97$3_1$127	= .
                                    419 	.globl	C$EyeExec.c$97$3_1$127
                                    420 ;C:\Users\sva13\OneDrive\ドキュメント\会社\課題\gbdk\Project\gb-test\source\exec\EyeExec.c:97: return 5;
      000126 3E 05            [ 8]  421 	ld	a, #0x05
      000128 18 12            [12]  422 	jr	00151$
      00012A                        423 00121$:
                           00012A   424 	C$EyeExec.c$99$2_1$121	= .
                                    425 	.globl	C$EyeExec.c$99$2_1$121
                                    426 ;C:\Users\sva13\OneDrive\ドキュメント\会社\課題\gbdk\Project\gb-test\source\exec\EyeExec.c:99: else if(uI >= 192 && uI <= 223){
      00012A F8 00            [12]  427 	ldhl	sp,	#0
      00012C 7E               [ 8]  428 	ld	a, (hl)
      00012D D6 C0            [ 8]  429 	sub	a, #0xc0
      00012F 38 09            [12]  430 	jr	C, 00117$
      000131 3E DF            [ 8]  431 	ld	a, #0xdf
      000133 96               [ 8]  432 	sub	a, (hl)
      000134 38 04            [12]  433 	jr	C, 00117$
                           000136   434 	C$EyeExec.c$100$3_1$128	= .
                                    435 	.globl	C$EyeExec.c$100$3_1$128
                                    436 ;C:\Users\sva13\OneDrive\ドキュメント\会社\課題\gbdk\Project\gb-test\source\exec\EyeExec.c:100: return 6;
      000136 3E 06            [ 8]  437 	ld	a, #0x06
      000138 18 02            [12]  438 	jr	00151$
      00013A                        439 00117$:
                           00013A   440 	C$EyeExec.c$103$3_1$129	= .
                                    441 	.globl	C$EyeExec.c$103$3_1$129
                                    442 ;C:\Users\sva13\OneDrive\ドキュメント\会社\課題\gbdk\Project\gb-test\source\exec\EyeExec.c:103: return 7;
      00013A 3E 07            [ 8]  443 	ld	a, #0x07
      00013C                        444 00151$:
                           00013C   445 	C$EyeExec.c$106$1_1$111	= .
                                    446 	.globl	C$EyeExec.c$106$1_1$111
                                    447 ;C:\Users\sva13\OneDrive\ドキュメント\会社\課題\gbdk\Project\gb-test\source\exec\EyeExec.c:106: }
      00013C E8 07            [16]  448 	add	sp, #7
                           00013E   449 	C$EyeExec.c$106$1_1$111	= .
                                    450 	.globl	C$EyeExec.c$106$1_1$111
                           00013E   451 	XG$randGenetate$0$0	= .
                                    452 	.globl	XG$randGenetate$0$0
      00013E C9               [16]  453 	ret
                           00013F   454 	G$EyeInit$0$0	= .
                                    455 	.globl	G$EyeInit$0$0
                           00013F   456 	C$EyeExec.c$109$1_1$131	= .
                                    457 	.globl	C$EyeExec.c$109$1_1$131
                                    458 ;C:\Users\sva13\OneDrive\ドキュメント\会社\課題\gbdk\Project\gb-test\source\exec\EyeExec.c:109: void EyeInit(uint8_t *eyeX, uint8_t *eyeY, 
                                    459 ;	---------------------------------
                                    460 ; Function EyeInit
                                    461 ; ---------------------------------
      00013F                        462 _EyeInit::
      00013F E8 F1            [16]  463 	add	sp, #-15
      000141 F8 0D            [12]  464 	ldhl	sp,	#13
      000143 7B               [ 4]  465 	ld	a, e
      000144 22               [ 8]  466 	ld	(hl+), a
      000145 72               [ 8]  467 	ld	(hl), d
      000146 F8 0B            [12]  468 	ldhl	sp,	#11
      000148 79               [ 4]  469 	ld	a, c
      000149 22               [ 8]  470 	ld	(hl+), a
      00014A 70               [ 8]  471 	ld	(hl), b
                           00014B   472 	C$EyeExec.c$113$1_0$131	= .
                                    473 	.globl	C$EyeExec.c$113$1_0$131
                                    474 ;C:\Users\sva13\OneDrive\ドキュメント\会社\課題\gbdk\Project\gb-test\source\exec\EyeExec.c:113: set_sprite_data(tile,4,EyeBeamShot1Tile);
      00014B 11r00r00         [12]  475 	ld	de, #_EyeBeamShot1Tile
      00014E D5               [16]  476 	push	de
      00014F 3E 04            [ 8]  477 	ld	a, #0x04
      000151 F5               [16]  478 	push	af
      000152 33               [ 8]  479 	inc	sp
      000153 F8 1C            [12]  480 	ldhl	sp,	#28
      000155 7E               [ 8]  481 	ld	a, (hl)
      000156 F5               [16]  482 	push	af
      000157 33               [ 8]  483 	inc	sp
      000158 CDr00r00         [24]  484 	call	_set_sprite_data
      00015B E8 04            [16]  485 	add	sp, #4
                           00015D   486 	C$EyeExec.c$114$1_0$131	= .
                                    487 	.globl	C$EyeExec.c$114$1_0$131
                                    488 ;C:\Users\sva13\OneDrive\ドキュメント\会社\課題\gbdk\Project\gb-test\source\exec\EyeExec.c:114: set_sprite_data(tile+4,4,EyeShadowTile);
      00015D 01r00r00         [12]  489 	ld	bc, #_EyeShadowTile+0
      000160 F8 19            [12]  490 	ldhl	sp,	#25
      000162 7E               [ 8]  491 	ld	a, (hl)
      000163 C6 04            [ 8]  492 	add	a, #0x04
      000165 C5               [16]  493 	push	bc
      000166 26 04            [ 8]  494 	ld	h, #0x04
                                    495 ;	spillPairReg hl
                                    496 ;	spillPairReg hl
      000168 E5               [16]  497 	push	hl
      000169 33               [ 8]  498 	inc	sp
      00016A F5               [16]  499 	push	af
      00016B 33               [ 8]  500 	inc	sp
      00016C CDr00r00         [24]  501 	call	_set_sprite_data
      00016F E8 04            [16]  502 	add	sp, #4
                                    503 ;C:\Users\sva13\OneDrive\ドキュメント\会社\課題\gbdk\Project\gb-test\source\exec\EyeExec.c:115: set_sprite_tile(spriteNum,tileIndex);
      000171 F8 1B            [12]  504 	ldhl	sp,	#27
      000173 7E               [ 8]  505 	ld	a, (hl)
      000174 F8 09            [12]  506 	ldhl	sp,	#9
      000176 77               [ 8]  507 	ld	(hl), a
      000177 F8 1A            [12]  508 	ldhl	sp,	#26
      000179 7E               [ 8]  509 	ld	a, (hl)
      00017A F8 0A            [12]  510 	ldhl	sp,	#10
      00017C 77               [ 8]  511 	ld	(hl), a
                                    512 ;C:/Users/sva13/OneDrive/ドキュメント/会社/課題/gbdk/Resources/gbdk/include/gb/gb.h:1602: shadow_OAM[nb].tile=tile;
      00017D 7E               [ 8]  513 	ld	a, (hl)
      00017E F8 07            [12]  514 	ldhl	sp,	#7
      000180 22               [ 8]  515 	ld	(hl+), a
      000181 AF               [ 4]  516 	xor	a, a
      000182 32               [ 8]  517 	ld	(hl-), a
      000183 7E               [ 8]  518 	ld	a, (hl)
      000184 F8 00            [12]  519 	ldhl	sp,	#0
      000186 77               [ 8]  520 	ld	(hl), a
      000187 F8 08            [12]  521 	ldhl	sp,	#8
      000189 7E               [ 8]  522 	ld	a, (hl)
      00018A F8 01            [12]  523 	ldhl	sp,	#1
      00018C 77               [ 8]  524 	ld	(hl), a
      00018D 3E 02            [ 8]  525 	ld	a, #0x02
      00018F                        526 00409$:
      00018F F8 00            [12]  527 	ldhl	sp,	#0
      000191 CB 26            [16]  528 	sla	(hl)
      000193 23               [ 8]  529 	inc	hl
      000194 CB 16            [16]  530 	rl	(hl)
      000196 3D               [ 4]  531 	dec	a
      000197 20 F6            [12]  532 	jr	NZ, 00409$
      000199 11r00r00         [12]  533 	ld	de, #_shadow_OAM
      00019C E1               [12]  534 	pop	hl
      00019D E5               [16]  535 	push	hl
      00019E 19               [ 8]  536 	add	hl, de
      00019F E5               [16]  537 	push	hl
      0001A0 7D               [ 4]  538 	ld	a, l
      0001A1 F8 09            [12]  539 	ldhl	sp,	#9
      0001A3 77               [ 8]  540 	ld	(hl), a
      0001A4 E1               [12]  541 	pop	hl
      0001A5 7C               [ 4]  542 	ld	a, h
      0001A6 F8 08            [12]  543 	ldhl	sp,	#8
      0001A8 32               [ 8]  544 	ld	(hl-), a
      0001A9 2A               [ 8]  545 	ld	a, (hl+)
      0001AA 4F               [ 4]  546 	ld	c, a
      0001AB 2A               [ 8]  547 	ld	a, (hl+)
      0001AC 47               [ 4]  548 	ld	b, a
      0001AD 03               [ 8]  549 	inc	bc
      0001AE 03               [ 8]  550 	inc	bc
      0001AF 7E               [ 8]  551 	ld	a, (hl)
      0001B0 02               [ 8]  552 	ld	(bc), a
                                    553 ;C:\Users\sva13\OneDrive\ドキュメント\会社\課題\gbdk\Project\gb-test\source\exec\EyeExec.c:116: set_sprite_tile(spriteNum+1,tileIndex+2);
      0001B1 7E               [ 8]  554 	ld	a, (hl)
      0001B2 F8 02            [12]  555 	ldhl	sp,	#2
      0001B4 77               [ 8]  556 	ld	(hl), a
      0001B5 7E               [ 8]  557 	ld	a, (hl)
      0001B6 C6 02            [ 8]  558 	add	a, #0x02
      0001B8 F8 06            [12]  559 	ldhl	sp,	#6
      0001BA 77               [ 8]  560 	ld	(hl), a
      0001BB F8 0A            [12]  561 	ldhl	sp,	#10
      0001BD 7E               [ 8]  562 	ld	a, (hl)
      0001BE F8 03            [12]  563 	ldhl	sp,	#3
      0001C0 77               [ 8]  564 	ld	(hl), a
      0001C1 2A               [ 8]  565 	ld	a, (hl+)
      0001C2 3C               [ 4]  566 	inc	a
      0001C3 77               [ 8]  567 	ld	(hl), a
      0001C4 7E               [ 8]  568 	ld	a, (hl)
      0001C5 F8 0A            [12]  569 	ldhl	sp,	#10
      0001C7 77               [ 8]  570 	ld	(hl), a
                                    571 ;C:/Users/sva13/OneDrive/ドキュメント/会社/課題/gbdk/Resources/gbdk/include/gb/gb.h:1602: shadow_OAM[nb].tile=tile;
      0001C8 3A               [ 8]  572 	ld	a, (hl-)
      0001C9 22               [ 8]  573 	ld	(hl+), a
      0001CA 36 00            [12]  574 	ld	(hl), #0x00
      0001CC 3E 02            [ 8]  575 	ld	a, #0x02
      0001CE                        576 00410$:
      0001CE F8 09            [12]  577 	ldhl	sp,	#9
      0001D0 CB 26            [16]  578 	sla	(hl)
      0001D2 23               [ 8]  579 	inc	hl
      0001D3 CB 16            [16]  580 	rl	(hl)
      0001D5 3D               [ 4]  581 	dec	a
      0001D6 20 F6            [12]  582 	jr	NZ, 00410$
      0001D8 2B               [ 8]  583 	dec	hl
      0001D9 2A               [ 8]  584 	ld	a, (hl+)
      0001DA 5F               [ 4]  585 	ld	e, a
      0001DB 56               [ 8]  586 	ld	d, (hl)
      0001DC 21r00r00         [12]  587 	ld	hl, #_shadow_OAM
      0001DF 19               [ 8]  588 	add	hl, de
      0001E0 E5               [16]  589 	push	hl
      0001E1 7D               [ 4]  590 	ld	a, l
      0001E2 F8 09            [12]  591 	ldhl	sp,	#9
      0001E4 77               [ 8]  592 	ld	(hl), a
      0001E5 E1               [12]  593 	pop	hl
      0001E6 7C               [ 4]  594 	ld	a, h
      0001E7 F8 08            [12]  595 	ldhl	sp,	#8
      0001E9 32               [ 8]  596 	ld	(hl-), a
      0001EA 2A               [ 8]  597 	ld	a, (hl+)
      0001EB 5F               [ 4]  598 	ld	e, a
      0001EC 56               [ 8]  599 	ld	d, (hl)
      0001ED 21 02 00         [12]  600 	ld	hl, #0x0002
      0001F0 19               [ 8]  601 	add	hl, de
      0001F1 E5               [16]  602 	push	hl
      0001F2 7D               [ 4]  603 	ld	a, l
      0001F3 F8 0B            [12]  604 	ldhl	sp,	#11
      0001F5 77               [ 8]  605 	ld	(hl), a
      0001F6 E1               [12]  606 	pop	hl
      0001F7 7C               [ 4]  607 	ld	a, h
      0001F8 F8 0A            [12]  608 	ldhl	sp,	#10
      0001FA 32               [ 8]  609 	ld	(hl-), a
      0001FB 2A               [ 8]  610 	ld	a, (hl+)
      0001FC 5F               [ 4]  611 	ld	e, a
      0001FD 56               [ 8]  612 	ld	d, (hl)
      0001FE F8 06            [12]  613 	ldhl	sp,	#6
      000200 7E               [ 8]  614 	ld	a, (hl)
      000201 12               [ 8]  615 	ld	(de), a
                                    616 ;C:\Users\sva13\OneDrive\ドキュメント\会社\課題\gbdk\Project\gb-test\source\exec\EyeExec.c:117: set_sprite_tile(spriteNum+2,tileIndex+4);
      000202 F8 02            [12]  617 	ldhl	sp,	#2
      000204 7E               [ 8]  618 	ld	a, (hl)
      000205 C6 04            [ 8]  619 	add	a, #0x04
      000207 F8 05            [12]  620 	ldhl	sp,	#5
      000209 32               [ 8]  621 	ld	(hl-), a
      00020A 2B               [ 8]  622 	dec	hl
      00020B 7E               [ 8]  623 	ld	a, (hl)
      00020C C6 02            [ 8]  624 	add	a, #0x02
      00020E F8 06            [12]  625 	ldhl	sp,	#6
      000210 77               [ 8]  626 	ld	(hl), a
      000211 7E               [ 8]  627 	ld	a, (hl)
      000212 F8 0A            [12]  628 	ldhl	sp,	#10
      000214 77               [ 8]  629 	ld	(hl), a
                                    630 ;C:/Users/sva13/OneDrive/ドキュメント/会社/課題/gbdk/Resources/gbdk/include/gb/gb.h:1602: shadow_OAM[nb].tile=tile;
      000215 3A               [ 8]  631 	ld	a, (hl-)
      000216 22               [ 8]  632 	ld	(hl+), a
      000217 36 00            [12]  633 	ld	(hl), #0x00
      000219 3E 02            [ 8]  634 	ld	a, #0x02
      00021B                        635 00411$:
      00021B F8 09            [12]  636 	ldhl	sp,	#9
      00021D CB 26            [16]  637 	sla	(hl)
      00021F 23               [ 8]  638 	inc	hl
      000220 CB 16            [16]  639 	rl	(hl)
      000222 3D               [ 4]  640 	dec	a
      000223 20 F6            [12]  641 	jr	NZ, 00411$
      000225 2B               [ 8]  642 	dec	hl
      000226 2A               [ 8]  643 	ld	a, (hl+)
      000227 5F               [ 4]  644 	ld	e, a
      000228 56               [ 8]  645 	ld	d, (hl)
      000229 21r00r00         [12]  646 	ld	hl, #_shadow_OAM
      00022C 19               [ 8]  647 	add	hl, de
      00022D E5               [16]  648 	push	hl
      00022E 7D               [ 4]  649 	ld	a, l
      00022F F8 09            [12]  650 	ldhl	sp,	#9
      000231 77               [ 8]  651 	ld	(hl), a
      000232 E1               [12]  652 	pop	hl
      000233 7C               [ 4]  653 	ld	a, h
      000234 F8 08            [12]  654 	ldhl	sp,	#8
      000236 32               [ 8]  655 	ld	(hl-), a
      000237 2A               [ 8]  656 	ld	a, (hl+)
      000238 5F               [ 4]  657 	ld	e, a
      000239 56               [ 8]  658 	ld	d, (hl)
      00023A 21 02 00         [12]  659 	ld	hl, #0x0002
      00023D 19               [ 8]  660 	add	hl, de
      00023E E5               [16]  661 	push	hl
      00023F 7D               [ 4]  662 	ld	a, l
      000240 F8 0B            [12]  663 	ldhl	sp,	#11
      000242 77               [ 8]  664 	ld	(hl), a
      000243 E1               [12]  665 	pop	hl
      000244 7C               [ 4]  666 	ld	a, h
      000245 F8 0A            [12]  667 	ldhl	sp,	#10
      000247 32               [ 8]  668 	ld	(hl-), a
      000248 2A               [ 8]  669 	ld	a, (hl+)
      000249 5F               [ 4]  670 	ld	e, a
      00024A 56               [ 8]  671 	ld	d, (hl)
      00024B F8 05            [12]  672 	ldhl	sp,	#5
      00024D 7E               [ 8]  673 	ld	a, (hl)
      00024E 12               [ 8]  674 	ld	(de), a
                                    675 ;C:\Users\sva13\OneDrive\ドキュメント\会社\課題\gbdk\Project\gb-test\source\exec\EyeExec.c:118: set_sprite_tile(spriteNum+3,tileIndex+6);
      00024F F8 02            [12]  676 	ldhl	sp,	#2
      000251 7E               [ 8]  677 	ld	a, (hl)
      000252 C6 06            [ 8]  678 	add	a, #0x06
      000254 F8 09            [12]  679 	ldhl	sp,	#9
      000256 77               [ 8]  680 	ld	(hl), a
      000257 F8 03            [12]  681 	ldhl	sp,	#3
      000259 7E               [ 8]  682 	ld	a, (hl)
      00025A C6 03            [ 8]  683 	add	a, #0x03
      00025C F8 0A            [12]  684 	ldhl	sp,	#10
      00025E 77               [ 8]  685 	ld	(hl), a
      00025F 3A               [ 8]  686 	ld	a, (hl-)
      000260 2B               [ 8]  687 	dec	hl
      000261 77               [ 8]  688 	ld	(hl), a
                                    689 ;C:/Users/sva13/OneDrive/ドキュメント/会社/課題/gbdk/Resources/gbdk/include/gb/gb.h:1602: shadow_OAM[nb].tile=tile;
      000262 3A               [ 8]  690 	ld	a, (hl-)
      000263 22               [ 8]  691 	ld	(hl+), a
      000264 36 00            [12]  692 	ld	(hl), #0x00
      000266 3E 02            [ 8]  693 	ld	a, #0x02
      000268                        694 00412$:
      000268 F8 07            [12]  695 	ldhl	sp,	#7
      00026A CB 26            [16]  696 	sla	(hl)
      00026C 23               [ 8]  697 	inc	hl
      00026D CB 16            [16]  698 	rl	(hl)
      00026F 3D               [ 4]  699 	dec	a
      000270 20 F6            [12]  700 	jr	NZ, 00412$
      000272 2B               [ 8]  701 	dec	hl
      000273 2A               [ 8]  702 	ld	a, (hl+)
      000274 5F               [ 4]  703 	ld	e, a
      000275 56               [ 8]  704 	ld	d, (hl)
      000276 21r00r00         [12]  705 	ld	hl, #_shadow_OAM
      000279 19               [ 8]  706 	add	hl, de
      00027A E5               [16]  707 	push	hl
      00027B 7D               [ 4]  708 	ld	a, l
      00027C F8 04            [12]  709 	ldhl	sp,	#4
      00027E 77               [ 8]  710 	ld	(hl), a
      00027F E1               [12]  711 	pop	hl
      000280 7C               [ 4]  712 	ld	a, h
      000281 F8 03            [12]  713 	ldhl	sp,	#3
      000283 32               [ 8]  714 	ld	(hl-), a
      000284 2A               [ 8]  715 	ld	a, (hl+)
      000285 5F               [ 4]  716 	ld	e, a
      000286 56               [ 8]  717 	ld	d, (hl)
      000287 21 02 00         [12]  718 	ld	hl, #0x0002
      00028A 19               [ 8]  719 	add	hl, de
      00028B E5               [16]  720 	push	hl
      00028C 7D               [ 4]  721 	ld	a, l
      00028D F8 09            [12]  722 	ldhl	sp,	#9
      00028F 77               [ 8]  723 	ld	(hl), a
      000290 E1               [12]  724 	pop	hl
      000291 7C               [ 4]  725 	ld	a, h
      000292 F8 08            [12]  726 	ldhl	sp,	#8
      000294 32               [ 8]  727 	ld	(hl-), a
      000295 2A               [ 8]  728 	ld	a, (hl+)
      000296 5F               [ 4]  729 	ld	e, a
      000297 2A               [ 8]  730 	ld	a, (hl+)
      000298 57               [ 4]  731 	ld	d, a
      000299 7E               [ 8]  732 	ld	a, (hl)
      00029A 12               [ 8]  733 	ld	(de), a
                                    734 ;C:/Users/sva13/OneDrive/ドキュメント/会社/課題/gbdk/Resources/gbdk/include/gb/gb.h:1648: shadow_OAM[nb].prop=prop;
      00029B 01r00r00         [12]  735 	ld	bc, #_shadow_OAM+0
      00029E E1               [12]  736 	pop	hl
      00029F E5               [16]  737 	push	hl
      0002A0 09               [ 8]  738 	add	hl, bc
      0002A1 23               [ 8]  739 	inc	hl
      0002A2 23               [ 8]  740 	inc	hl
      0002A3 23               [ 8]  741 	inc	hl
      0002A4 36 02            [12]  742 	ld	(hl), #0x02
                                    743 ;C:\Users\sva13\OneDrive\ドキュメント\会社\課題\gbdk\Project\gb-test\source\exec\EyeExec.c:120: set_sprite_prop(spriteNum+1,0x02);
      0002A6 F8 04            [12]  744 	ldhl	sp,	#4
      0002A8 4E               [ 8]  745 	ld	c, (hl)
                                    746 ;C:/Users/sva13/OneDrive/ドキュメント/会社/課題/gbdk/Resources/gbdk/include/gb/gb.h:1648: shadow_OAM[nb].prop=prop;
      0002A9 F8 08            [12]  747 	ldhl	sp,	#8
      0002AB 79               [ 4]  748 	ld	a, c
      0002AC 22               [ 8]  749 	ld	(hl+), a
      0002AD 36 00            [12]  750 	ld	(hl), #0x00
      0002AF 3E 02            [ 8]  751 	ld	a, #0x02
      0002B1                        752 00413$:
      0002B1 F8 08            [12]  753 	ldhl	sp,	#8
      0002B3 CB 26            [16]  754 	sla	(hl)
      0002B5 23               [ 8]  755 	inc	hl
      0002B6 CB 16            [16]  756 	rl	(hl)
      0002B8 3D               [ 4]  757 	dec	a
      0002B9 20 F6            [12]  758 	jr	NZ, 00413$
      0002BB 2B               [ 8]  759 	dec	hl
      0002BC 2A               [ 8]  760 	ld	a, (hl+)
      0002BD 5F               [ 4]  761 	ld	e, a
      0002BE 56               [ 8]  762 	ld	d, (hl)
      0002BF 21r00r00         [12]  763 	ld	hl, #_shadow_OAM
      0002C2 19               [ 8]  764 	add	hl, de
      0002C3 E5               [16]  765 	push	hl
      0002C4 7D               [ 4]  766 	ld	a, l
      0002C5 F8 06            [12]  767 	ldhl	sp,	#6
      0002C7 77               [ 8]  768 	ld	(hl), a
      0002C8 E1               [12]  769 	pop	hl
      0002C9 7C               [ 4]  770 	ld	a, h
      0002CA F8 05            [12]  771 	ldhl	sp,	#5
      0002CC 32               [ 8]  772 	ld	(hl-), a
      0002CD 2A               [ 8]  773 	ld	a, (hl+)
      0002CE 5F               [ 4]  774 	ld	e, a
      0002CF 56               [ 8]  775 	ld	d, (hl)
      0002D0 21 03 00         [12]  776 	ld	hl, #0x0003
      0002D3 19               [ 8]  777 	add	hl, de
      0002D4 E5               [16]  778 	push	hl
      0002D5 7D               [ 4]  779 	ld	a, l
      0002D6 F8 0A            [12]  780 	ldhl	sp,	#10
      0002D8 77               [ 8]  781 	ld	(hl), a
      0002D9 E1               [12]  782 	pop	hl
      0002DA 7C               [ 4]  783 	ld	a, h
      0002DB F8 09            [12]  784 	ldhl	sp,	#9
      0002DD 32               [ 8]  785 	ld	(hl-), a
      0002DE 2A               [ 8]  786 	ld	a,	(hl+)
      0002DF 66               [ 8]  787 	ld	h, (hl)
      0002E0 6F               [ 4]  788 	ld	l, a
      0002E1 36 02            [12]  789 	ld	(hl), #0x02
                                    790 ;C:\Users\sva13\OneDrive\ドキュメント\会社\課題\gbdk\Project\gb-test\source\exec\EyeExec.c:121: set_sprite_prop(spriteNum+2,0x01);
      0002E3 F8 06            [12]  791 	ldhl	sp,	#6
                                    792 ;C:/Users/sva13/OneDrive/ドキュメント/会社/課題/gbdk/Resources/gbdk/include/gb/gb.h:1648: shadow_OAM[nb].prop=prop;
      0002E5 2A               [ 8]  793 	ld	a, (hl+)
      0002E6 23               [ 8]  794 	inc	hl
      0002E7 22               [ 8]  795 	ld	(hl+), a
      0002E8 36 00            [12]  796 	ld	(hl), #0x00
      0002EA 3E 02            [ 8]  797 	ld	a, #0x02
      0002EC                        798 00414$:
      0002EC F8 08            [12]  799 	ldhl	sp,	#8
      0002EE CB 26            [16]  800 	sla	(hl)
      0002F0 23               [ 8]  801 	inc	hl
      0002F1 CB 16            [16]  802 	rl	(hl)
      0002F3 3D               [ 4]  803 	dec	a
      0002F4 20 F6            [12]  804 	jr	NZ, 00414$
      0002F6 2B               [ 8]  805 	dec	hl
      0002F7 2A               [ 8]  806 	ld	a, (hl+)
      0002F8 5F               [ 4]  807 	ld	e, a
      0002F9 56               [ 8]  808 	ld	d, (hl)
      0002FA 21r00r00         [12]  809 	ld	hl, #_shadow_OAM
      0002FD 19               [ 8]  810 	add	hl, de
      0002FE E5               [16]  811 	push	hl
      0002FF 7D               [ 4]  812 	ld	a, l
      000300 F8 06            [12]  813 	ldhl	sp,	#6
      000302 77               [ 8]  814 	ld	(hl), a
      000303 E1               [12]  815 	pop	hl
      000304 7C               [ 4]  816 	ld	a, h
      000305 F8 05            [12]  817 	ldhl	sp,	#5
      000307 32               [ 8]  818 	ld	(hl-), a
      000308 2A               [ 8]  819 	ld	a, (hl+)
      000309 5F               [ 4]  820 	ld	e, a
      00030A 56               [ 8]  821 	ld	d, (hl)
      00030B 21 03 00         [12]  822 	ld	hl, #0x0003
      00030E 19               [ 8]  823 	add	hl, de
      00030F E5               [16]  824 	push	hl
      000310 7D               [ 4]  825 	ld	a, l
      000311 F8 0A            [12]  826 	ldhl	sp,	#10
      000313 77               [ 8]  827 	ld	(hl), a
      000314 E1               [12]  828 	pop	hl
      000315 7C               [ 4]  829 	ld	a, h
      000316 F8 09            [12]  830 	ldhl	sp,	#9
      000318 32               [ 8]  831 	ld	(hl-), a
      000319 2A               [ 8]  832 	ld	a,	(hl+)
      00031A 66               [ 8]  833 	ld	h, (hl)
      00031B 6F               [ 4]  834 	ld	l, a
      00031C 36 01            [12]  835 	ld	(hl), #0x01
                                    836 ;C:\Users\sva13\OneDrive\ドキュメント\会社\課題\gbdk\Project\gb-test\source\exec\EyeExec.c:122: set_sprite_prop(spriteNum+3,0x01);
      00031E F8 0A            [12]  837 	ldhl	sp,	#10
                                    838 ;C:/Users/sva13/OneDrive/ドキュメント/会社/課題/gbdk/Resources/gbdk/include/gb/gb.h:1648: shadow_OAM[nb].prop=prop;
      000320 3A               [ 8]  839 	ld	a, (hl-)
      000321 2B               [ 8]  840 	dec	hl
      000322 22               [ 8]  841 	ld	(hl+), a
      000323 36 00            [12]  842 	ld	(hl), #0x00
      000325 3E 02            [ 8]  843 	ld	a, #0x02
      000327                        844 00415$:
      000327 F8 08            [12]  845 	ldhl	sp,	#8
      000329 CB 26            [16]  846 	sla	(hl)
      00032B 23               [ 8]  847 	inc	hl
      00032C CB 16            [16]  848 	rl	(hl)
      00032E 3D               [ 4]  849 	dec	a
      00032F 20 F6            [12]  850 	jr	NZ, 00415$
      000331 2B               [ 8]  851 	dec	hl
      000332 2A               [ 8]  852 	ld	a, (hl+)
      000333 5F               [ 4]  853 	ld	e, a
      000334 56               [ 8]  854 	ld	d, (hl)
      000335 21r00r00         [12]  855 	ld	hl, #_shadow_OAM
      000338 19               [ 8]  856 	add	hl, de
      000339 E5               [16]  857 	push	hl
      00033A 7D               [ 4]  858 	ld	a, l
      00033B F8 06            [12]  859 	ldhl	sp,	#6
      00033D 77               [ 8]  860 	ld	(hl), a
      00033E E1               [12]  861 	pop	hl
      00033F 7C               [ 4]  862 	ld	a, h
      000340 F8 05            [12]  863 	ldhl	sp,	#5
      000342 32               [ 8]  864 	ld	(hl-), a
      000343 2A               [ 8]  865 	ld	a, (hl+)
      000344 5F               [ 4]  866 	ld	e, a
      000345 56               [ 8]  867 	ld	d, (hl)
      000346 21 03 00         [12]  868 	ld	hl, #0x0003
      000349 19               [ 8]  869 	add	hl, de
      00034A E5               [16]  870 	push	hl
      00034B 7D               [ 4]  871 	ld	a, l
      00034C F8 0A            [12]  872 	ldhl	sp,	#10
      00034E 77               [ 8]  873 	ld	(hl), a
      00034F E1               [12]  874 	pop	hl
      000350 7C               [ 4]  875 	ld	a, h
      000351 F8 09            [12]  876 	ldhl	sp,	#9
      000353 32               [ 8]  877 	ld	(hl-), a
      000354 2A               [ 8]  878 	ld	a,	(hl+)
      000355 66               [ 8]  879 	ld	h, (hl)
      000356 6F               [ 4]  880 	ld	l, a
      000357 36 01            [12]  881 	ld	(hl), #0x01
                           000359   882 	C$EyeExec.c$123$1_0$131	= .
                                    883 	.globl	C$EyeExec.c$123$1_0$131
                                    884 ;C:\Users\sva13\OneDrive\ドキュメント\会社\課題\gbdk\Project\gb-test\source\exec\EyeExec.c:123: if(*bkgX < 48 && *bkgY < 48){
      000359 F8 15            [12]  885 	ldhl	sp,	#21
      00035B 2A               [ 8]  886 	ld	a, (hl+)
      00035C 4F               [ 4]  887 	ld	c, a
      00035D 46               [ 8]  888 	ld	b, (hl)
      00035E 0A               [ 8]  889 	ld	a, (bc)
      00035F F8 09            [12]  890 	ldhl	sp,	#9
      000361 77               [ 8]  891 	ld	(hl), a
      000362 3A               [ 8]  892 	ld	a, (hl-)
      000363 D6 30            [ 8]  893 	sub	a, #0x30
      000365 3E 00            [ 8]  894 	ld	a, #0x00
      000367 17               [ 4]  895 	rla
      000368 77               [ 8]  896 	ld	(hl), a
      000369 F8 17            [12]  897 	ldhl	sp,	#23
      00036B 7E               [ 8]  898 	ld	a, (hl)
      00036C F8 02            [12]  899 	ldhl	sp,	#2
      00036E 77               [ 8]  900 	ld	(hl), a
      00036F F8 18            [12]  901 	ldhl	sp,	#24
      000371 7E               [ 8]  902 	ld	a, (hl)
      000372 F8 03            [12]  903 	ldhl	sp,	#3
      000374 77               [ 8]  904 	ld	(hl), a
                           000375   905 	C$EyeExec.c$140$1_0$131	= .
                                    906 	.globl	C$EyeExec.c$140$1_0$131
                                    907 ;C:\Users\sva13\OneDrive\ドキュメント\会社\課題\gbdk\Project\gb-test\source\exec\EyeExec.c:140: *eyeMode = MOVELEFT;
      000375 F8 1C            [12]  908 	ldhl	sp,	#28
      000377 7E               [ 8]  909 	ld	a, (hl)
      000378 F8 04            [12]  910 	ldhl	sp,	#4
      00037A 77               [ 8]  911 	ld	(hl), a
      00037B F8 1D            [12]  912 	ldhl	sp,	#29
      00037D 7E               [ 8]  913 	ld	a, (hl)
      00037E F8 05            [12]  914 	ldhl	sp,	#5
      000380 77               [ 8]  915 	ld	(hl), a
                           000381   916 	C$EyeExec.c$123$1_0$131	= .
                                    917 	.globl	C$EyeExec.c$123$1_0$131
                                    918 ;C:\Users\sva13\OneDrive\ドキュメント\会社\課題\gbdk\Project\gb-test\source\exec\EyeExec.c:123: if(*bkgX < 48 && *bkgY < 48){
      000381 F8 08            [12]  919 	ldhl	sp,	#8
      000383 7E               [ 8]  920 	ld	a, (hl)
      000384 B7               [ 4]  921 	or	a, a
      000385 CAr31r05         [16]  922 	jp	Z, 00183$
      000388 F8 02            [12]  923 	ldhl	sp,#2
      00038A 2A               [ 8]  924 	ld	a, (hl+)
      00038B 5F               [ 4]  925 	ld	e, a
      00038C 56               [ 8]  926 	ld	d, (hl)
      00038D 1A               [ 8]  927 	ld	a, (de)
      00038E D6 30            [ 8]  928 	sub	a, #0x30
      000390 D2r31r05         [16]  929 	jp	NC, 00183$
                           000393   930 	C$EyeExec.c$126$2_0$132	= .
                                    931 	.globl	C$EyeExec.c$126$2_0$132
                                    932 ;C:\Users\sva13\OneDrive\ドキュメント\会社\課題\gbdk\Project\gb-test\source\exec\EyeExec.c:126: uint8_t randNum1 = randGenetate(2);
      000393 3E 02            [ 8]  933 	ld	a, #0x02
      000395 CDr24r00         [24]  934 	call	_randGenetate
      000398 5F               [ 4]  935 	ld	e, a
                           000399   936 	C$EyeExec.c$127$2_0$132	= .
                                    937 	.globl	C$EyeExec.c$127$2_0$132
                                    938 ;C:\Users\sva13\OneDrive\ドキュメント\会社\課題\gbdk\Project\gb-test\source\exec\EyeExec.c:127: uint8_t randNum2 = randGenetate(8);
      000399 D5               [16]  939 	push	de
      00039A 3E 08            [ 8]  940 	ld	a, #0x08
      00039C CDr24r00         [24]  941 	call	_randGenetate
      00039F D1               [12]  942 	pop	de
                           0003A0   943 	C$EyeExec.c$129$1_0$131	= .
                                    944 	.globl	C$EyeExec.c$129$1_0$131
                                    945 ;C:\Users\sva13\OneDrive\ドキュメント\会社\課題\gbdk\Project\gb-test\source\exec\EyeExec.c:129: adjustCnt = adjustCnt + 1;
      0003A0 21r0Ar00         [12]  946 	ld	hl, #_adjustCnt
      0003A3 4E               [ 8]  947 	ld	c, (hl)
      0003A4 0C               [ 4]  948 	inc	c
                           0003A5   949 	C$EyeExec.c$128$2_0$132	= .
                                    950 	.globl	C$EyeExec.c$128$2_0$132
                                    951 ;C:\Users\sva13\OneDrive\ドキュメント\会社\課題\gbdk\Project\gb-test\source\exec\EyeExec.c:128: if(randNum2 == 7){
      0003A5 FE 07            [ 8]  952 	cp	a, #0x07
      0003A7 20 04            [12]  953 	jr	NZ, 00102$
                           0003A9   954 	C$EyeExec.c$129$3_0$133	= .
                                    955 	.globl	C$EyeExec.c$129$3_0$133
                                    956 ;C:\Users\sva13\OneDrive\ドキュメント\会社\課題\gbdk\Project\gb-test\source\exec\EyeExec.c:129: adjustCnt = adjustCnt + 1;
      0003A9 71               [ 8]  957 	ld	(hl), c
                           0003AA   958 	C$EyeExec.c$130$3_0$133	= .
                                    959 	.globl	C$EyeExec.c$130$3_0$133
                                    960 ;C:\Users\sva13\OneDrive\ドキュメント\会社\課題\gbdk\Project\gb-test\source\exec\EyeExec.c:130: return;
      0003AA C3rB1r0B         [16]  961 	jp	00222$
      0003AD                        962 00102$:
                           0003AD   963 	C$EyeExec.c$139$1_0$131	= .
                                    964 	.globl	C$EyeExec.c$139$1_0$131
                                    965 ;C:\Users\sva13\OneDrive\ドキュメント\会社\課題\gbdk\Project\gb-test\source\exec\EyeExec.c:139: *eyeY = 16 * (randNum2 + 1);
      0003AD F8 09            [12]  966 	ldhl	sp,	#9
      0003AF 77               [ 8]  967 	ld	(hl), a
                           0003B0   968 	C$EyeExec.c$132$2_0$132	= .
                                    969 	.globl	C$EyeExec.c$132$2_0$132
                                    970 ;C:\Users\sva13\OneDrive\ドキュメント\会社\課題\gbdk\Project\gb-test\source\exec\EyeExec.c:132: if(randNum1 == 0){
      0003B0 1C               [ 4]  971 	inc	e
      0003B1 1D               [ 4]  972 	dec	e
      0003B2 C2r74r04         [16]  973 	jp	NZ, 00106$
                           0003B5   974 	C$EyeExec.c$134$3_0$134	= .
                                    975 	.globl	C$EyeExec.c$134$3_0$134
                                    976 ;C:\Users\sva13\OneDrive\ドキュメント\会社\課題\gbdk\Project\gb-test\source\exec\EyeExec.c:134: if(randNum2 < 2){
      0003B5 D6 02            [ 8]  977 	sub	a, #0x02
      0003B7 30 07            [12]  978 	jr	NC, 00104$
                           0003B9   979 	C$EyeExec.c$135$4_0$135	= .
                                    980 	.globl	C$EyeExec.c$135$4_0$135
                                    981 ;C:\Users\sva13\OneDrive\ドキュメント\会社\課題\gbdk\Project\gb-test\source\exec\EyeExec.c:135: adjustCnt = adjustCnt + 1;
      0003B9 21r0Ar00         [12]  982 	ld	hl, #_adjustCnt
      0003BC 71               [ 8]  983 	ld	(hl), c
                           0003BD   984 	C$EyeExec.c$136$4_0$135	= .
                                    985 	.globl	C$EyeExec.c$136$4_0$135
                                    986 ;C:\Users\sva13\OneDrive\ドキュメント\会社\課題\gbdk\Project\gb-test\source\exec\EyeExec.c:136: return;
      0003BD C3rB1r0B         [16]  987 	jp	00222$
      0003C0                        988 00104$:
                           0003C0   989 	C$EyeExec.c$138$3_0$134	= .
                                    990 	.globl	C$EyeExec.c$138$3_0$134
                                    991 ;C:\Users\sva13\OneDrive\ドキュメント\会社\課題\gbdk\Project\gb-test\source\exec\EyeExec.c:138: *eyeX = 168;
      0003C0 F8 0D            [12]  992 	ldhl	sp,	#13
      0003C2 2A               [ 8]  993 	ld	a,	(hl+)
      0003C3 66               [ 8]  994 	ld	h, (hl)
      0003C4 6F               [ 4]  995 	ld	l, a
      0003C5 36 A8            [12]  996 	ld	(hl), #0xa8
                           0003C7   997 	C$EyeExec.c$139$3_0$134	= .
                                    998 	.globl	C$EyeExec.c$139$3_0$134
                                    999 ;C:\Users\sva13\OneDrive\ドキュメント\会社\課題\gbdk\Project\gb-test\source\exec\EyeExec.c:139: *eyeY = 16 * (randNum2 + 1);
      0003C7 F8 09            [12] 1000 	ldhl	sp,	#9
      0003C9 7E               [ 8] 1001 	ld	a, (hl)
      0003CA 3C               [ 4] 1002 	inc	a
      0003CB CB 37            [ 8] 1003 	swap	a
      0003CD E6 F0            [ 8] 1004 	and	a, #0xf0
      0003CF 77               [ 8] 1005 	ld	(hl), a
      0003D0 F8 0B            [12] 1006 	ldhl	sp,#11
      0003D2 2A               [ 8] 1007 	ld	a, (hl+)
      0003D3 5F               [ 4] 1008 	ld	e, a
      0003D4 56               [ 8] 1009 	ld	d, (hl)
      0003D5 F8 09            [12] 1010 	ldhl	sp,	#9
      0003D7 7E               [ 8] 1011 	ld	a, (hl)
      0003D8 12               [ 8] 1012 	ld	(de), a
                           0003D9  1013 	C$EyeExec.c$140$3_0$134	= .
                                   1014 	.globl	C$EyeExec.c$140$3_0$134
                                   1015 ;C:\Users\sva13\OneDrive\ドキュメント\会社\課題\gbdk\Project\gb-test\source\exec\EyeExec.c:140: *eyeMode = MOVELEFT;
      0003D9 F8 04            [12] 1016 	ldhl	sp,	#4
      0003DB 2A               [ 8] 1017 	ld	a,	(hl+)
      0003DC 66               [ 8] 1018 	ld	h, (hl)
      0003DD 6F               [ 4] 1019 	ld	l, a
      0003DE 36 04            [12] 1020 	ld	(hl), #0x04
                                   1021 ;C:\Users\sva13\OneDrive\ドキュメント\会社\課題\gbdk\Project\gb-test\source\exec\EyeExec.c:141: move_sprite(spriteNum+2,*eyeX, *eyeY);
      0003E0 F8 09            [12] 1022 	ldhl	sp,	#9
      0003E2 7E               [ 8] 1023 	ld	a, (hl)
      0003E3 F8 05            [12] 1024 	ldhl	sp,	#5
      0003E5 77               [ 8] 1025 	ld	(hl), a
      0003E6 F8 0D            [12] 1026 	ldhl	sp,#13
      0003E8 2A               [ 8] 1027 	ld	a, (hl+)
      0003E9 5F               [ 4] 1028 	ld	e, a
      0003EA 56               [ 8] 1029 	ld	d, (hl)
      0003EB 1A               [ 8] 1030 	ld	a, (de)
      0003EC F8 07            [12] 1031 	ldhl	sp,	#7
      0003EE 32               [ 8] 1032 	ld	(hl-), a
      0003EF 2A               [ 8] 1033 	ld	a, (hl+)
      0003F0 23               [ 8] 1034 	inc	hl
      0003F1 77               [ 8] 1035 	ld	(hl), a
                                   1036 ;C:/Users/sva13/OneDrive/ドキュメント/会社/課題/gbdk/Resources/gbdk/include/gb/gb.h:1675: OAM_item_t * itm = &shadow_OAM[nb];
      0003F2 7E               [ 8] 1037 	ld	a, (hl)
      0003F3 F8 03            [12] 1038 	ldhl	sp,	#3
      0003F5 22               [ 8] 1039 	ld	(hl+), a
      0003F6 36 00            [12] 1040 	ld	(hl), #0x00
      0003F8 3E 02            [ 8] 1041 	ld	a, #0x02
      0003FA                       1042 00418$:
      0003FA F8 03            [12] 1043 	ldhl	sp,	#3
      0003FC CB 26            [16] 1044 	sla	(hl)
      0003FE 23               [ 8] 1045 	inc	hl
      0003FF CB 16            [16] 1046 	rl	(hl)
      000401 3D               [ 4] 1047 	dec	a
      000402 20 F6            [12] 1048 	jr	NZ, 00418$
      000404 2B               [ 8] 1049 	dec	hl
      000405 2A               [ 8] 1050 	ld	a, (hl+)
      000406 5F               [ 4] 1051 	ld	e, a
      000407 56               [ 8] 1052 	ld	d, (hl)
      000408 21r00r00         [12] 1053 	ld	hl, #_shadow_OAM
      00040B 19               [ 8] 1054 	add	hl, de
      00040C E5               [16] 1055 	push	hl
      00040D 7D               [ 4] 1056 	ld	a, l
      00040E F8 03            [12] 1057 	ldhl	sp,	#3
      000410 77               [ 8] 1058 	ld	(hl), a
      000411 E1               [12] 1059 	pop	hl
      000412 7C               [ 4] 1060 	ld	a, h
      000413 F8 02            [12] 1061 	ldhl	sp,	#2
      000415 32               [ 8] 1062 	ld	(hl-), a
      000416 2A               [ 8] 1063 	ld	a, (hl+)
      000417 23               [ 8] 1064 	inc	hl
      000418 32               [ 8] 1065 	ld	(hl-), a
      000419 2A               [ 8] 1066 	ld	a, (hl+)
      00041A 23               [ 8] 1067 	inc	hl
                                   1068 ;C:/Users/sva13/OneDrive/ドキュメント/会社/課題/gbdk/Resources/gbdk/include/gb/gb.h:1676: itm->y=y, itm->x=x;
      00041B 32               [ 8] 1069 	ld	(hl-), a
      00041C 2A               [ 8] 1070 	ld	a, (hl+)
      00041D 5F               [ 4] 1071 	ld	e, a
      00041E 2A               [ 8] 1072 	ld	a, (hl+)
      00041F 57               [ 4] 1073 	ld	d, a
      000420 3A               [ 8] 1074 	ld	a, (hl-)
      000421 2B               [ 8] 1075 	dec	hl
      000422 12               [ 8] 1076 	ld	(de), a
      000423 2A               [ 8] 1077 	ld	a, (hl+)
      000424 4F               [ 4] 1078 	ld	c, a
      000425 46               [ 8] 1079 	ld	b, (hl)
      000426 03               [ 8] 1080 	inc	bc
      000427 F8 07            [12] 1081 	ldhl	sp,	#7
      000429 7E               [ 8] 1082 	ld	a, (hl)
      00042A 02               [ 8] 1083 	ld	(bc), a
                                   1084 ;C:\Users\sva13\OneDrive\ドキュメント\会社\課題\gbdk\Project\gb-test\source\exec\EyeExec.c:142: move_sprite(spriteNum+3,*eyeX + 8, *eyeY);
      00042B F8 0D            [12] 1085 	ldhl	sp,#13
      00042D 2A               [ 8] 1086 	ld	a, (hl+)
      00042E 5F               [ 4] 1087 	ld	e, a
      00042F 56               [ 8] 1088 	ld	d, (hl)
      000430 1A               [ 8] 1089 	ld	a, (de)
      000431 C6 08            [ 8] 1090 	add	a, #0x08
      000433 F8 08            [12] 1091 	ldhl	sp,	#8
                                   1092 ;C:/Users/sva13/OneDrive/ドキュメント/会社/課題/gbdk/Resources/gbdk/include/gb/gb.h:1675: OAM_item_t * itm = &shadow_OAM[nb];
      000435 22               [ 8] 1093 	ld	(hl+), a
      000436 23               [ 8] 1094 	inc	hl
      000437 7E               [ 8] 1095 	ld	a, (hl)
      000438 F8 06            [12] 1096 	ldhl	sp,	#6
      00043A 22               [ 8] 1097 	ld	(hl+), a
      00043B 36 00            [12] 1098 	ld	(hl), #0x00
      00043D 3E 02            [ 8] 1099 	ld	a, #0x02
      00043F                       1100 00419$:
      00043F F8 06            [12] 1101 	ldhl	sp,	#6
      000441 CB 26            [16] 1102 	sla	(hl)
      000443 23               [ 8] 1103 	inc	hl
      000444 CB 16            [16] 1104 	rl	(hl)
      000446 3D               [ 4] 1105 	dec	a
      000447 20 F6            [12] 1106 	jr	NZ, 00419$
      000449 2B               [ 8] 1107 	dec	hl
      00044A 2A               [ 8] 1108 	ld	a, (hl+)
      00044B 5F               [ 4] 1109 	ld	e, a
      00044C 56               [ 8] 1110 	ld	d, (hl)
      00044D 21r00r00         [12] 1111 	ld	hl, #_shadow_OAM
      000450 19               [ 8] 1112 	add	hl, de
      000451 E5               [16] 1113 	push	hl
      000452 7D               [ 4] 1114 	ld	a, l
      000453 F8 06            [12] 1115 	ldhl	sp,	#6
      000455 77               [ 8] 1116 	ld	(hl), a
      000456 E1               [12] 1117 	pop	hl
      000457 7C               [ 4] 1118 	ld	a, h
      000458 F8 05            [12] 1119 	ldhl	sp,	#5
      00045A 32               [ 8] 1120 	ld	(hl-), a
      00045B 2A               [ 8] 1121 	ld	a, (hl+)
      00045C 23               [ 8] 1122 	inc	hl
      00045D 32               [ 8] 1123 	ld	(hl-), a
      00045E 2A               [ 8] 1124 	ld	a, (hl+)
      00045F 23               [ 8] 1125 	inc	hl
                                   1126 ;C:/Users/sva13/OneDrive/ドキュメント/会社/課題/gbdk/Resources/gbdk/include/gb/gb.h:1676: itm->y=y, itm->x=x;
      000460 32               [ 8] 1127 	ld	(hl-), a
      000461 2A               [ 8] 1128 	ld	a, (hl+)
      000462 5F               [ 4] 1129 	ld	e, a
      000463 2A               [ 8] 1130 	ld	a, (hl+)
      000464 23               [ 8] 1131 	inc	hl
      000465 57               [ 4] 1132 	ld	d, a
      000466 7E               [ 8] 1133 	ld	a, (hl)
      000467 12               [ 8] 1134 	ld	(de), a
      000468 F8 06            [12] 1135 	ldhl	sp,	#6
      00046A 2A               [ 8] 1136 	ld	a, (hl+)
      00046B 4F               [ 4] 1137 	ld	c, a
      00046C 2A               [ 8] 1138 	ld	a, (hl+)
      00046D 47               [ 4] 1139 	ld	b, a
      00046E 03               [ 8] 1140 	inc	bc
      00046F 7E               [ 8] 1141 	ld	a, (hl)
      000470 02               [ 8] 1142 	ld	(bc), a
                           000471  1143 	C$EyeExec.c$142$2_0$132	= .
                                   1144 	.globl	C$EyeExec.c$142$2_0$132
                                   1145 ;C:\Users\sva13\OneDrive\ドキュメント\会社\課題\gbdk\Project\gb-test\source\exec\EyeExec.c:142: move_sprite(spriteNum+3,*eyeX + 8, *eyeY);
      000471 C3rB1r0B         [16] 1146 	jp	00222$
      000474                       1147 00106$:
                           000474  1148 	C$EyeExec.c$146$3_0$136	= .
                                   1149 	.globl	C$EyeExec.c$146$3_0$136
                                   1150 ;C:\Users\sva13\OneDrive\ドキュメント\会社\課題\gbdk\Project\gb-test\source\exec\EyeExec.c:146: *eyeX = (16 * (randNum2 + 2) + 8);
      000474 F8 09            [12] 1151 	ldhl	sp,	#9
      000476 7E               [ 8] 1152 	ld	a, (hl)
      000477 3C               [ 4] 1153 	inc	a
      000478 3C               [ 4] 1154 	inc	a
      000479 CB 37            [ 8] 1155 	swap	a
      00047B E6 F0            [ 8] 1156 	and	a, #0xf0
      00047D C6 08            [ 8] 1157 	add	a, #0x08
      00047F 4F               [ 4] 1158 	ld	c, a
      000480 F8 0D            [12] 1159 	ldhl	sp,	#13
      000482 2A               [ 8] 1160 	ld	a,	(hl+)
      000483 66               [ 8] 1161 	ld	h, (hl)
      000484 6F               [ 4] 1162 	ld	l, a
      000485 71               [ 8] 1163 	ld	(hl), c
                           000486  1164 	C$EyeExec.c$147$3_0$136	= .
                                   1165 	.globl	C$EyeExec.c$147$3_0$136
                                   1166 ;C:\Users\sva13\OneDrive\ドキュメント\会社\課題\gbdk\Project\gb-test\source\exec\EyeExec.c:147: *eyeY = 144;
      000486 F8 0B            [12] 1167 	ldhl	sp,	#11
      000488 2A               [ 8] 1168 	ld	a,	(hl+)
      000489 66               [ 8] 1169 	ld	h, (hl)
      00048A 6F               [ 4] 1170 	ld	l, a
      00048B 36 90            [12] 1171 	ld	(hl), #0x90
                           00048D  1172 	C$EyeExec.c$148$3_0$136	= .
                                   1173 	.globl	C$EyeExec.c$148$3_0$136
                                   1174 ;C:\Users\sva13\OneDrive\ドキュメント\会社\課題\gbdk\Project\gb-test\source\exec\EyeExec.c:148: *eyeMode = MOVEUP;
      00048D F8 04            [12] 1175 	ldhl	sp,	#4
      00048F 2A               [ 8] 1176 	ld	a,	(hl+)
      000490 66               [ 8] 1177 	ld	h, (hl)
      000491 6F               [ 4] 1178 	ld	l, a
      000492 36 01            [12] 1179 	ld	(hl), #0x01
                                   1180 ;C:\Users\sva13\OneDrive\ドキュメント\会社\課題\gbdk\Project\gb-test\source\exec\EyeExec.c:149: move_sprite(spriteNum+2, *eyeX, *eyeY );
      000494 F8 0B            [12] 1181 	ldhl	sp,#11
      000496 2A               [ 8] 1182 	ld	a, (hl+)
      000497 5F               [ 4] 1183 	ld	e, a
      000498 56               [ 8] 1184 	ld	d, (hl)
      000499 1A               [ 8] 1185 	ld	a, (de)
      00049A F8 08            [12] 1186 	ldhl	sp,	#8
      00049C 77               [ 8] 1187 	ld	(hl), a
      00049D F8 0D            [12] 1188 	ldhl	sp,#13
      00049F 2A               [ 8] 1189 	ld	a, (hl+)
      0004A0 5F               [ 4] 1190 	ld	e, a
      0004A1 56               [ 8] 1191 	ld	d, (hl)
      0004A2 1A               [ 8] 1192 	ld	a, (de)
      0004A3 F8 09            [12] 1193 	ldhl	sp,	#9
      0004A5 77               [ 8] 1194 	ld	(hl), a
      0004A6 F8 06            [12] 1195 	ldhl	sp,	#6
                                   1196 ;C:/Users/sva13/OneDrive/ドキュメント/会社/課題/gbdk/Resources/gbdk/include/gb/gb.h:1675: OAM_item_t * itm = &shadow_OAM[nb];
      0004A8 7E               [ 8] 1197 	ld	a, (hl)
      0004A9 22               [ 8] 1198 	ld	(hl+), a
      0004AA AF               [ 4] 1199 	xor	a, a
      0004AB 32               [ 8] 1200 	ld	(hl-), a
      0004AC 3A               [ 8] 1201 	ld	a, (hl-)
      0004AD 2B               [ 8] 1202 	dec	hl
      0004AE 77               [ 8] 1203 	ld	(hl), a
      0004AF F8 07            [12] 1204 	ldhl	sp,	#7
      0004B1 3A               [ 8] 1205 	ld	a, (hl-)
      0004B2 2B               [ 8] 1206 	dec	hl
      0004B3 77               [ 8] 1207 	ld	(hl), a
      0004B4 3E 02            [ 8] 1208 	ld	a, #0x02
      0004B6                       1209 00420$:
      0004B6 F8 04            [12] 1210 	ldhl	sp,	#4
      0004B8 CB 26            [16] 1211 	sla	(hl)
      0004BA 23               [ 8] 1212 	inc	hl
      0004BB CB 16            [16] 1213 	rl	(hl)
      0004BD 3D               [ 4] 1214 	dec	a
      0004BE 20 F6            [12] 1215 	jr	NZ, 00420$
      0004C0 2B               [ 8] 1216 	dec	hl
      0004C1 2A               [ 8] 1217 	ld	a, (hl+)
      0004C2 5F               [ 4] 1218 	ld	e, a
      0004C3 56               [ 8] 1219 	ld	d, (hl)
      0004C4 21r00r00         [12] 1220 	ld	hl, #_shadow_OAM
      0004C7 19               [ 8] 1221 	add	hl, de
      0004C8 E5               [16] 1222 	push	hl
      0004C9 7D               [ 4] 1223 	ld	a, l
      0004CA F8 08            [12] 1224 	ldhl	sp,	#8
      0004CC 77               [ 8] 1225 	ld	(hl), a
      0004CD E1               [12] 1226 	pop	hl
      0004CE 7C               [ 4] 1227 	ld	a, h
      0004CF F8 07            [12] 1228 	ldhl	sp,	#7
                                   1229 ;C:/Users/sva13/OneDrive/ドキュメント/会社/課題/gbdk/Resources/gbdk/include/gb/gb.h:1676: itm->y=y, itm->x=x;
      0004D1 32               [ 8] 1230 	ld	(hl-), a
      0004D2 2A               [ 8] 1231 	ld	a, (hl+)
      0004D3 5F               [ 4] 1232 	ld	e, a
      0004D4 2A               [ 8] 1233 	ld	a, (hl+)
      0004D5 57               [ 4] 1234 	ld	d, a
      0004D6 3A               [ 8] 1235 	ld	a, (hl-)
      0004D7 2B               [ 8] 1236 	dec	hl
      0004D8 12               [ 8] 1237 	ld	(de), a
      0004D9 2A               [ 8] 1238 	ld	a, (hl+)
      0004DA 4F               [ 4] 1239 	ld	c, a
      0004DB 2A               [ 8] 1240 	ld	a, (hl+)
      0004DC 23               [ 8] 1241 	inc	hl
      0004DD 47               [ 4] 1242 	ld	b, a
      0004DE 03               [ 8] 1243 	inc	bc
      0004DF 7E               [ 8] 1244 	ld	a, (hl)
      0004E0 02               [ 8] 1245 	ld	(bc), a
                                   1246 ;C:\Users\sva13\OneDrive\ドキュメント\会社\課題\gbdk\Project\gb-test\source\exec\EyeExec.c:150: move_sprite(spriteNum+3, *eyeX + 8, *eyeY);
      0004E1 F8 0B            [12] 1247 	ldhl	sp,#11
      0004E3 2A               [ 8] 1248 	ld	a, (hl+)
      0004E4 5F               [ 4] 1249 	ld	e, a
      0004E5 56               [ 8] 1250 	ld	d, (hl)
      0004E6 1A               [ 8] 1251 	ld	a, (de)
      0004E7 F8 08            [12] 1252 	ldhl	sp,	#8
      0004E9 77               [ 8] 1253 	ld	(hl), a
      0004EA F8 0D            [12] 1254 	ldhl	sp,#13
      0004EC 2A               [ 8] 1255 	ld	a, (hl+)
      0004ED 5F               [ 4] 1256 	ld	e, a
      0004EE 56               [ 8] 1257 	ld	d, (hl)
      0004EF 1A               [ 8] 1258 	ld	a, (de)
      0004F0 C6 08            [ 8] 1259 	add	a, #0x08
      0004F2 F8 09            [12] 1260 	ldhl	sp,	#9
                                   1261 ;C:/Users/sva13/OneDrive/ドキュメント/会社/課題/gbdk/Resources/gbdk/include/gb/gb.h:1675: OAM_item_t * itm = &shadow_OAM[nb];
      0004F4 22               [ 8] 1262 	ld	(hl+), a
      0004F5 7E               [ 8] 1263 	ld	a, (hl)
      0004F6 F8 06            [12] 1264 	ldhl	sp,	#6
      0004F8 22               [ 8] 1265 	ld	(hl+), a
      0004F9 36 00            [12] 1266 	ld	(hl), #0x00
      0004FB 3E 02            [ 8] 1267 	ld	a, #0x02
      0004FD                       1268 00421$:
      0004FD F8 06            [12] 1269 	ldhl	sp,	#6
      0004FF CB 26            [16] 1270 	sla	(hl)
      000501 23               [ 8] 1271 	inc	hl
      000502 CB 16            [16] 1272 	rl	(hl)
      000504 3D               [ 4] 1273 	dec	a
      000505 20 F6            [12] 1274 	jr	NZ, 00421$
      000507 2B               [ 8] 1275 	dec	hl
      000508 2A               [ 8] 1276 	ld	a, (hl+)
      000509 5F               [ 4] 1277 	ld	e, a
      00050A 56               [ 8] 1278 	ld	d, (hl)
      00050B 21r00r00         [12] 1279 	ld	hl, #_shadow_OAM
      00050E 19               [ 8] 1280 	add	hl, de
      00050F E5               [16] 1281 	push	hl
      000510 7D               [ 4] 1282 	ld	a, l
      000511 F8 06            [12] 1283 	ldhl	sp,	#6
      000513 77               [ 8] 1284 	ld	(hl), a
      000514 E1               [12] 1285 	pop	hl
      000515 7C               [ 4] 1286 	ld	a, h
      000516 F8 05            [12] 1287 	ldhl	sp,	#5
      000518 32               [ 8] 1288 	ld	(hl-), a
      000519 2A               [ 8] 1289 	ld	a, (hl+)
      00051A 23               [ 8] 1290 	inc	hl
      00051B 32               [ 8] 1291 	ld	(hl-), a
      00051C 2A               [ 8] 1292 	ld	a, (hl+)
      00051D 23               [ 8] 1293 	inc	hl
                                   1294 ;C:/Users/sva13/OneDrive/ドキュメント/会社/課題/gbdk/Resources/gbdk/include/gb/gb.h:1676: itm->y=y, itm->x=x;
      00051E 32               [ 8] 1295 	ld	(hl-), a
      00051F 2A               [ 8] 1296 	ld	a, (hl+)
      000520 5F               [ 4] 1297 	ld	e, a
      000521 2A               [ 8] 1298 	ld	a, (hl+)
      000522 57               [ 4] 1299 	ld	d, a
      000523 3A               [ 8] 1300 	ld	a, (hl-)
      000524 2B               [ 8] 1301 	dec	hl
      000525 12               [ 8] 1302 	ld	(de), a
      000526 2A               [ 8] 1303 	ld	a, (hl+)
      000527 4F               [ 4] 1304 	ld	c, a
      000528 2A               [ 8] 1305 	ld	a, (hl+)
      000529 23               [ 8] 1306 	inc	hl
      00052A 47               [ 4] 1307 	ld	b, a
      00052B 03               [ 8] 1308 	inc	bc
      00052C 7E               [ 8] 1309 	ld	a, (hl)
      00052D 02               [ 8] 1310 	ld	(bc), a
                           00052E  1311 	C$EyeExec.c$150$1_0$131	= .
                                   1312 	.globl	C$EyeExec.c$150$1_0$131
                                   1313 ;C:\Users\sva13\OneDrive\ドキュメント\会社\課題\gbdk\Project\gb-test\source\exec\EyeExec.c:150: move_sprite(spriteNum+3, *eyeX + 8, *eyeY);
      00052E C3rB1r0B         [16] 1314 	jp	00222$
      000531                       1315 00183$:
                           000531  1316 	C$EyeExec.c$153$1_0$131	= .
                                   1317 	.globl	C$EyeExec.c$153$1_0$131
                                   1318 ;C:\Users\sva13\OneDrive\ドキュメント\会社\課題\gbdk\Project\gb-test\source\exec\EyeExec.c:153: else if(*bkgX < 48  && (*bkgY >= 48 && *bkgY < 64)){
      000531 F8 08            [12] 1319 	ldhl	sp,	#8
      000533 7E               [ 8] 1320 	ld	a, (hl)
      000534 B7               [ 4] 1321 	or	a, a
      000535 CArF9r06         [16] 1322 	jp	Z, 00178$
      000538 F8 02            [12] 1323 	ldhl	sp,#2
      00053A 2A               [ 8] 1324 	ld	a, (hl+)
      00053B 5F               [ 4] 1325 	ld	e, a
      00053C 56               [ 8] 1326 	ld	d, (hl)
      00053D 1A               [ 8] 1327 	ld	a, (de)
      00053E FE 30            [ 8] 1328 	cp	a, #0x30
      000540 DArF9r06         [16] 1329 	jp	C, 00178$
      000543 D6 40            [ 8] 1330 	sub	a, #0x40
      000545 D2rF9r06         [16] 1331 	jp	NC, 00178$
                           000548  1332 	C$EyeExec.c$155$2_0$137	= .
                                   1333 	.globl	C$EyeExec.c$155$2_0$137
                                   1334 ;C:\Users\sva13\OneDrive\ドキュメント\会社\課題\gbdk\Project\gb-test\source\exec\EyeExec.c:155: uint8_t randNum1 = randGenetate(4);
      000548 3E 04            [ 8] 1335 	ld	a, #0x04
      00054A CDr24r00         [24] 1336 	call	_randGenetate
      00054D F8 08            [12] 1337 	ldhl	sp,	#8
      00054F 77               [ 8] 1338 	ld	(hl), a
                           000550  1339 	C$EyeExec.c$156$2_0$137	= .
                                   1340 	.globl	C$EyeExec.c$156$2_0$137
                                   1341 ;C:\Users\sva13\OneDrive\ドキュメント\会社\課題\gbdk\Project\gb-test\source\exec\EyeExec.c:156: uint8_t randNum2 = randGenetate(8);
      000550 3E 08            [ 8] 1342 	ld	a, #0x08
      000552 CDr24r00         [24] 1343 	call	_randGenetate
                           000555  1344 	C$EyeExec.c$158$1_0$131	= .
                                   1345 	.globl	C$EyeExec.c$158$1_0$131
                                   1346 ;C:\Users\sva13\OneDrive\ドキュメント\会社\課題\gbdk\Project\gb-test\source\exec\EyeExec.c:158: *eyeX = (16 * (randNum2 + 2) + 8);
      000555 F8 09            [12] 1347 	ldhl	sp,	#9
                           000557  1348 	C$EyeExec.c$157$2_0$137	= .
                                   1349 	.globl	C$EyeExec.c$157$2_0$137
                                   1350 ;C:\Users\sva13\OneDrive\ドキュメント\会社\課題\gbdk\Project\gb-test\source\exec\EyeExec.c:157: if(randNum1 >= 0 && randNum1 <= 1){
      000557 32               [ 8] 1351 	ld	(hl-), a
      000558 3E 01            [ 8] 1352 	ld	a, #0x01
      00055A 96               [ 8] 1353 	sub	a, (hl)
      00055B DAr45r06         [16] 1354 	jp	C, 00112$
                           00055E  1355 	C$EyeExec.c$158$3_0$138	= .
                                   1356 	.globl	C$EyeExec.c$158$3_0$138
                                   1357 ;C:\Users\sva13\OneDrive\ドキュメント\会社\課題\gbdk\Project\gb-test\source\exec\EyeExec.c:158: *eyeX = (16 * (randNum2 + 2) + 8);
      00055E 23               [ 8] 1358 	inc	hl
      00055F 34               [12] 1359 	inc	(hl)
      000560 34               [12] 1360 	inc	(hl)
      000561 7E               [ 8] 1361 	ld	a, (hl)
      000562 CB 37            [ 8] 1362 	swap	a
      000564 E6 F0            [ 8] 1363 	and	a, #0xf0
      000566 77               [ 8] 1364 	ld	(hl), a
      000567 7E               [ 8] 1365 	ld	a, (hl)
      000568 C6 08            [ 8] 1366 	add	a, #0x08
      00056A 4F               [ 4] 1367 	ld	c, a
      00056B F8 0D            [12] 1368 	ldhl	sp,	#13
      00056D 2A               [ 8] 1369 	ld	a,	(hl+)
      00056E 66               [ 8] 1370 	ld	h, (hl)
      00056F 6F               [ 4] 1371 	ld	l, a
      000570 71               [ 8] 1372 	ld	(hl), c
                           000571  1373 	C$EyeExec.c$159$3_0$138	= .
                                   1374 	.globl	C$EyeExec.c$159$3_0$138
                                   1375 ;C:\Users\sva13\OneDrive\ドキュメント\会社\課題\gbdk\Project\gb-test\source\exec\EyeExec.c:159: if(randNum1 == 0){
      000571 F8 08            [12] 1376 	ldhl	sp,	#8
      000573 7E               [ 8] 1377 	ld	a, (hl)
      000574 B7               [ 4] 1378 	or	a, a
      000575 20 10            [12] 1379 	jr	NZ, 00109$
                           000577  1380 	C$EyeExec.c$161$4_0$139	= .
                                   1381 	.globl	C$EyeExec.c$161$4_0$139
                                   1382 ;C:\Users\sva13\OneDrive\ドキュメント\会社\課題\gbdk\Project\gb-test\source\exec\EyeExec.c:161: *eyeY = 0;
      000577 F8 0B            [12] 1383 	ldhl	sp,	#11
      000579 2A               [ 8] 1384 	ld	a,	(hl+)
      00057A 66               [ 8] 1385 	ld	h, (hl)
      00057B 6F               [ 4] 1386 	ld	l, a
      00057C 36 00            [12] 1387 	ld	(hl), #0x00
                           00057E  1388 	C$EyeExec.c$162$4_0$139	= .
                                   1389 	.globl	C$EyeExec.c$162$4_0$139
                                   1390 ;C:\Users\sva13\OneDrive\ドキュメント\会社\課題\gbdk\Project\gb-test\source\exec\EyeExec.c:162: *eyeMode = MOVEDOWN;
      00057E F8 04            [12] 1391 	ldhl	sp,	#4
      000580 2A               [ 8] 1392 	ld	a,	(hl+)
      000581 66               [ 8] 1393 	ld	h, (hl)
      000582 6F               [ 4] 1394 	ld	l, a
      000583 36 03            [12] 1395 	ld	(hl), #0x03
      000585 18 0E            [12] 1396 	jr	00110$
      000587                       1397 00109$:
                           000587  1398 	C$EyeExec.c$166$4_0$140	= .
                                   1399 	.globl	C$EyeExec.c$166$4_0$140
                                   1400 ;C:\Users\sva13\OneDrive\ドキュメント\会社\課題\gbdk\Project\gb-test\source\exec\EyeExec.c:166: *eyeY = 144;
      000587 F8 0B            [12] 1401 	ldhl	sp,	#11
      000589 2A               [ 8] 1402 	ld	a,	(hl+)
      00058A 66               [ 8] 1403 	ld	h, (hl)
      00058B 6F               [ 4] 1404 	ld	l, a
      00058C 36 90            [12] 1405 	ld	(hl), #0x90
                           00058E  1406 	C$EyeExec.c$167$4_0$140	= .
                                   1407 	.globl	C$EyeExec.c$167$4_0$140
                                   1408 ;C:\Users\sva13\OneDrive\ドキュメント\会社\課題\gbdk\Project\gb-test\source\exec\EyeExec.c:167: *eyeMode = MOVEUP;
      00058E F8 04            [12] 1409 	ldhl	sp,	#4
      000590 2A               [ 8] 1410 	ld	a,	(hl+)
      000591 66               [ 8] 1411 	ld	h, (hl)
      000592 6F               [ 4] 1412 	ld	l, a
      000593 36 01            [12] 1413 	ld	(hl), #0x01
      000595                       1414 00110$:
                                   1415 ;C:\Users\sva13\OneDrive\ドキュメント\会社\課題\gbdk\Project\gb-test\source\exec\EyeExec.c:169: move_sprite(spriteNum+2, *eyeX, *eyeY );
      000595 F8 0B            [12] 1416 	ldhl	sp,#11
      000597 2A               [ 8] 1417 	ld	a, (hl+)
      000598 5F               [ 4] 1418 	ld	e, a
      000599 56               [ 8] 1419 	ld	d, (hl)
      00059A 1A               [ 8] 1420 	ld	a, (de)
      00059B F8 07            [12] 1421 	ldhl	sp,	#7
      00059D 77               [ 8] 1422 	ld	(hl), a
      00059E F8 0D            [12] 1423 	ldhl	sp,#13
      0005A0 2A               [ 8] 1424 	ld	a, (hl+)
      0005A1 5F               [ 4] 1425 	ld	e, a
      0005A2 56               [ 8] 1426 	ld	d, (hl)
      0005A3 1A               [ 8] 1427 	ld	a, (de)
      0005A4 F8 08            [12] 1428 	ldhl	sp,	#8
      0005A6 32               [ 8] 1429 	ld	(hl-), a
      0005A7 2B               [ 8] 1430 	dec	hl
      0005A8 7E               [ 8] 1431 	ld	a, (hl)
      0005A9 F8 09            [12] 1432 	ldhl	sp,	#9
      0005AB 77               [ 8] 1433 	ld	(hl), a
                                   1434 ;C:/Users/sva13/OneDrive/ドキュメント/会社/課題/gbdk/Resources/gbdk/include/gb/gb.h:1675: OAM_item_t * itm = &shadow_OAM[nb];
      0005AC 7E               [ 8] 1435 	ld	a, (hl)
      0005AD F8 05            [12] 1436 	ldhl	sp,	#5
      0005AF 22               [ 8] 1437 	ld	(hl+), a
      0005B0 36 00            [12] 1438 	ld	(hl), #0x00
      0005B2 3E 02            [ 8] 1439 	ld	a, #0x02
      0005B4                       1440 00422$:
      0005B4 F8 05            [12] 1441 	ldhl	sp,	#5
      0005B6 CB 26            [16] 1442 	sla	(hl)
      0005B8 23               [ 8] 1443 	inc	hl
      0005B9 CB 16            [16] 1444 	rl	(hl)
      0005BB 3D               [ 4] 1445 	dec	a
      0005BC 20 F6            [12] 1446 	jr	NZ, 00422$
      0005BE 2B               [ 8] 1447 	dec	hl
      0005BF 2A               [ 8] 1448 	ld	a, (hl+)
      0005C0 5F               [ 4] 1449 	ld	e, a
      0005C1 56               [ 8] 1450 	ld	d, (hl)
      0005C2 21r00r00         [12] 1451 	ld	hl, #_shadow_OAM
      0005C5 19               [ 8] 1452 	add	hl, de
      0005C6 E5               [16] 1453 	push	hl
      0005C7 7D               [ 4] 1454 	ld	a, l
      0005C8 F8 05            [12] 1455 	ldhl	sp,	#5
      0005CA 77               [ 8] 1456 	ld	(hl), a
      0005CB E1               [12] 1457 	pop	hl
      0005CC 7C               [ 4] 1458 	ld	a, h
      0005CD F8 04            [12] 1459 	ldhl	sp,	#4
      0005CF 32               [ 8] 1460 	ld	(hl-), a
      0005D0 2A               [ 8] 1461 	ld	a, (hl+)
      0005D1 23               [ 8] 1462 	inc	hl
      0005D2 32               [ 8] 1463 	ld	(hl-), a
      0005D3 2A               [ 8] 1464 	ld	a, (hl+)
      0005D4 23               [ 8] 1465 	inc	hl
                                   1466 ;C:/Users/sva13/OneDrive/ドキュメント/会社/課題/gbdk/Resources/gbdk/include/gb/gb.h:1676: itm->y=y, itm->x=x;
      0005D5 32               [ 8] 1467 	ld	(hl-), a
      0005D6 2A               [ 8] 1468 	ld	a, (hl+)
      0005D7 5F               [ 4] 1469 	ld	e, a
      0005D8 2A               [ 8] 1470 	ld	a, (hl+)
      0005D9 57               [ 4] 1471 	ld	d, a
      0005DA 3A               [ 8] 1472 	ld	a, (hl-)
      0005DB 2B               [ 8] 1473 	dec	hl
      0005DC 12               [ 8] 1474 	ld	(de), a
      0005DD 2A               [ 8] 1475 	ld	a, (hl+)
      0005DE 4F               [ 4] 1476 	ld	c, a
      0005DF 2A               [ 8] 1477 	ld	a, (hl+)
      0005E0 23               [ 8] 1478 	inc	hl
      0005E1 47               [ 4] 1479 	ld	b, a
      0005E2 03               [ 8] 1480 	inc	bc
      0005E3 7E               [ 8] 1481 	ld	a, (hl)
      0005E4 02               [ 8] 1482 	ld	(bc), a
                                   1483 ;C:\Users\sva13\OneDrive\ドキュメント\会社\課題\gbdk\Project\gb-test\source\exec\EyeExec.c:170: move_sprite(spriteNum+3, *eyeX + 8, *eyeY);
      0005E5 F8 0B            [12] 1484 	ldhl	sp,#11
      0005E7 2A               [ 8] 1485 	ld	a, (hl+)
      0005E8 5F               [ 4] 1486 	ld	e, a
      0005E9 56               [ 8] 1487 	ld	d, (hl)
      0005EA 1A               [ 8] 1488 	ld	a, (de)
      0005EB F8 08            [12] 1489 	ldhl	sp,	#8
      0005ED 77               [ 8] 1490 	ld	(hl), a
      0005EE F8 0D            [12] 1491 	ldhl	sp,#13
      0005F0 2A               [ 8] 1492 	ld	a, (hl+)
      0005F1 5F               [ 4] 1493 	ld	e, a
      0005F2 56               [ 8] 1494 	ld	d, (hl)
      0005F3 1A               [ 8] 1495 	ld	a, (de)
      0005F4 F8 09            [12] 1496 	ldhl	sp,	#9
      0005F6 77               [ 8] 1497 	ld	(hl), a
      0005F7 7E               [ 8] 1498 	ld	a, (hl)
      0005F8 C6 08            [ 8] 1499 	add	a, #0x08
                                   1500 ;C:/Users/sva13/OneDrive/ドキュメント/会社/課題/gbdk/Resources/gbdk/include/gb/gb.h:1675: OAM_item_t * itm = &shadow_OAM[nb];
      0005FA 22               [ 8] 1501 	ld	(hl+), a
      0005FB 7E               [ 8] 1502 	ld	a, (hl)
      0005FC F8 06            [12] 1503 	ldhl	sp,	#6
      0005FE 22               [ 8] 1504 	ld	(hl+), a
      0005FF 36 00            [12] 1505 	ld	(hl), #0x00
      000601 3E 02            [ 8] 1506 	ld	a, #0x02
      000603                       1507 00423$:
      000603 F8 06            [12] 1508 	ldhl	sp,	#6
      000605 CB 26            [16] 1509 	sla	(hl)
      000607 23               [ 8] 1510 	inc	hl
      000608 CB 16            [16] 1511 	rl	(hl)
      00060A 3D               [ 4] 1512 	dec	a
      00060B 20 F6            [12] 1513 	jr	NZ, 00423$
      00060D 11r00r00         [12] 1514 	ld	de, #_shadow_OAM
      000610 3A               [ 8] 1515 	ld	a, (hl-)
      000611 6E               [ 8] 1516 	ld	l, (hl)
      000612 67               [ 4] 1517 	ld	h, a
      000613 19               [ 8] 1518 	add	hl, de
      000614 E5               [16] 1519 	push	hl
      000615 7D               [ 4] 1520 	ld	a, l
      000616 F8 06            [12] 1521 	ldhl	sp,	#6
      000618 77               [ 8] 1522 	ld	(hl), a
      000619 E1               [12] 1523 	pop	hl
      00061A 7C               [ 4] 1524 	ld	a, h
      00061B F8 05            [12] 1525 	ldhl	sp,	#5
      00061D 32               [ 8] 1526 	ld	(hl-), a
      00061E 2A               [ 8] 1527 	ld	a, (hl+)
      00061F 23               [ 8] 1528 	inc	hl
      000620 32               [ 8] 1529 	ld	(hl-), a
      000621 2A               [ 8] 1530 	ld	a, (hl+)
      000622 23               [ 8] 1531 	inc	hl
                                   1532 ;C:/Users/sva13/OneDrive/ドキュメント/会社/課題/gbdk/Resources/gbdk/include/gb/gb.h:1676: itm->y=y, itm->x=x;
      000623 32               [ 8] 1533 	ld	(hl-), a
      000624 2A               [ 8] 1534 	ld	a, (hl+)
      000625 5F               [ 4] 1535 	ld	e, a
      000626 2A               [ 8] 1536 	ld	a, (hl+)
      000627 57               [ 4] 1537 	ld	d, a
      000628 3A               [ 8] 1538 	ld	a, (hl-)
      000629 2B               [ 8] 1539 	dec	hl
      00062A 12               [ 8] 1540 	ld	(de), a
      00062B 2A               [ 8] 1541 	ld	a, (hl+)
      00062C 5F               [ 4] 1542 	ld	e, a
      00062D 56               [ 8] 1543 	ld	d, (hl)
      00062E 6B               [ 4] 1544 	ld	l, e
      00062F 62               [ 4] 1545 	ld	h, d
      000630 23               [ 8] 1546 	inc	hl
      000631 E5               [16] 1547 	push	hl
      000632 7D               [ 4] 1548 	ld	a, l
      000633 F8 06            [12] 1549 	ldhl	sp,	#6
      000635 77               [ 8] 1550 	ld	(hl), a
      000636 E1               [12] 1551 	pop	hl
      000637 7C               [ 4] 1552 	ld	a, h
      000638 F8 05            [12] 1553 	ldhl	sp,	#5
      00063A 32               [ 8] 1554 	ld	(hl-), a
      00063B 2A               [ 8] 1555 	ld	a, (hl+)
      00063C 5F               [ 4] 1556 	ld	e, a
      00063D 56               [ 8] 1557 	ld	d, (hl)
      00063E F8 09            [12] 1558 	ldhl	sp,	#9
      000640 7E               [ 8] 1559 	ld	a, (hl)
      000641 12               [ 8] 1560 	ld	(de), a
                           000642  1561 	C$EyeExec.c$170$2_0$137	= .
                                   1562 	.globl	C$EyeExec.c$170$2_0$137
                                   1563 ;C:\Users\sva13\OneDrive\ドキュメント\会社\課題\gbdk\Project\gb-test\source\exec\EyeExec.c:170: move_sprite(spriteNum+3, *eyeX + 8, *eyeY);
      000642 C3rB1r0B         [16] 1564 	jp	00222$
      000645                       1565 00112$:
                           000645  1566 	C$EyeExec.c$174$3_0$141	= .
                                   1567 	.globl	C$EyeExec.c$174$3_0$141
                                   1568 ;C:\Users\sva13\OneDrive\ドキュメント\会社\課題\gbdk\Project\gb-test\source\exec\EyeExec.c:174: *eyeX = 168;
      000645 F8 0D            [12] 1569 	ldhl	sp,	#13
      000647 2A               [ 8] 1570 	ld	a,	(hl+)
      000648 66               [ 8] 1571 	ld	h, (hl)
      000649 6F               [ 4] 1572 	ld	l, a
      00064A 36 A8            [12] 1573 	ld	(hl), #0xa8
                           00064C  1574 	C$EyeExec.c$175$3_0$141	= .
                                   1575 	.globl	C$EyeExec.c$175$3_0$141
                                   1576 ;C:\Users\sva13\OneDrive\ドキュメント\会社\課題\gbdk\Project\gb-test\source\exec\EyeExec.c:175: *eyeY = 16 * (randNum2 + 1);
      00064C F8 09            [12] 1577 	ldhl	sp,	#9
      00064E 7E               [ 8] 1578 	ld	a, (hl)
      00064F 3C               [ 4] 1579 	inc	a
      000650 CB 37            [ 8] 1580 	swap	a
      000652 E6 F0            [ 8] 1581 	and	a, #0xf0
      000654 77               [ 8] 1582 	ld	(hl), a
      000655 F8 0B            [12] 1583 	ldhl	sp,#11
      000657 2A               [ 8] 1584 	ld	a, (hl+)
      000658 5F               [ 4] 1585 	ld	e, a
      000659 56               [ 8] 1586 	ld	d, (hl)
      00065A F8 09            [12] 1587 	ldhl	sp,	#9
      00065C 7E               [ 8] 1588 	ld	a, (hl)
      00065D 12               [ 8] 1589 	ld	(de), a
                           00065E  1590 	C$EyeExec.c$176$3_0$141	= .
                                   1591 	.globl	C$EyeExec.c$176$3_0$141
                                   1592 ;C:\Users\sva13\OneDrive\ドキュメント\会社\課題\gbdk\Project\gb-test\source\exec\EyeExec.c:176: *eyeMode = MOVELEFT;
      00065E F8 04            [12] 1593 	ldhl	sp,	#4
      000660 2A               [ 8] 1594 	ld	a,	(hl+)
      000661 66               [ 8] 1595 	ld	h, (hl)
      000662 6F               [ 4] 1596 	ld	l, a
      000663 36 04            [12] 1597 	ld	(hl), #0x04
                                   1598 ;C:\Users\sva13\OneDrive\ドキュメント\会社\課題\gbdk\Project\gb-test\source\exec\EyeExec.c:177: move_sprite(spriteNum+2,*eyeX, *eyeY);
      000665 F8 09            [12] 1599 	ldhl	sp,	#9
      000667 7E               [ 8] 1600 	ld	a, (hl)
      000668 F8 05            [12] 1601 	ldhl	sp,	#5
      00066A 77               [ 8] 1602 	ld	(hl), a
      00066B F8 0D            [12] 1603 	ldhl	sp,#13
      00066D 2A               [ 8] 1604 	ld	a, (hl+)
      00066E 5F               [ 4] 1605 	ld	e, a
      00066F 56               [ 8] 1606 	ld	d, (hl)
      000670 1A               [ 8] 1607 	ld	a, (de)
      000671 F8 07            [12] 1608 	ldhl	sp,	#7
      000673 32               [ 8] 1609 	ld	(hl-), a
      000674 2A               [ 8] 1610 	ld	a, (hl+)
      000675 23               [ 8] 1611 	inc	hl
      000676 77               [ 8] 1612 	ld	(hl), a
                                   1613 ;C:/Users/sva13/OneDrive/ドキュメント/会社/課題/gbdk/Resources/gbdk/include/gb/gb.h:1675: OAM_item_t * itm = &shadow_OAM[nb];
      000677 7E               [ 8] 1614 	ld	a, (hl)
      000678 F8 03            [12] 1615 	ldhl	sp,	#3
      00067A 22               [ 8] 1616 	ld	(hl+), a
      00067B 36 00            [12] 1617 	ld	(hl), #0x00
      00067D 3E 02            [ 8] 1618 	ld	a, #0x02
      00067F                       1619 00424$:
      00067F F8 03            [12] 1620 	ldhl	sp,	#3
      000681 CB 26            [16] 1621 	sla	(hl)
      000683 23               [ 8] 1622 	inc	hl
      000684 CB 16            [16] 1623 	rl	(hl)
      000686 3D               [ 4] 1624 	dec	a
      000687 20 F6            [12] 1625 	jr	NZ, 00424$
      000689 2B               [ 8] 1626 	dec	hl
      00068A 2A               [ 8] 1627 	ld	a, (hl+)
      00068B 5F               [ 4] 1628 	ld	e, a
      00068C 56               [ 8] 1629 	ld	d, (hl)
      00068D 21r00r00         [12] 1630 	ld	hl, #_shadow_OAM
      000690 19               [ 8] 1631 	add	hl, de
      000691 E5               [16] 1632 	push	hl
      000692 7D               [ 4] 1633 	ld	a, l
      000693 F8 03            [12] 1634 	ldhl	sp,	#3
      000695 77               [ 8] 1635 	ld	(hl), a
      000696 E1               [12] 1636 	pop	hl
      000697 7C               [ 4] 1637 	ld	a, h
      000698 F8 02            [12] 1638 	ldhl	sp,	#2
      00069A 32               [ 8] 1639 	ld	(hl-), a
      00069B 2A               [ 8] 1640 	ld	a, (hl+)
      00069C 23               [ 8] 1641 	inc	hl
      00069D 32               [ 8] 1642 	ld	(hl-), a
      00069E 2A               [ 8] 1643 	ld	a, (hl+)
      00069F 23               [ 8] 1644 	inc	hl
                                   1645 ;C:/Users/sva13/OneDrive/ドキュメント/会社/課題/gbdk/Resources/gbdk/include/gb/gb.h:1676: itm->y=y, itm->x=x;
      0006A0 32               [ 8] 1646 	ld	(hl-), a
      0006A1 2A               [ 8] 1647 	ld	a, (hl+)
      0006A2 5F               [ 4] 1648 	ld	e, a
      0006A3 2A               [ 8] 1649 	ld	a, (hl+)
      0006A4 57               [ 4] 1650 	ld	d, a
      0006A5 3A               [ 8] 1651 	ld	a, (hl-)
      0006A6 2B               [ 8] 1652 	dec	hl
      0006A7 12               [ 8] 1653 	ld	(de), a
      0006A8 2A               [ 8] 1654 	ld	a, (hl+)
      0006A9 4F               [ 4] 1655 	ld	c, a
      0006AA 46               [ 8] 1656 	ld	b, (hl)
      0006AB 03               [ 8] 1657 	inc	bc
      0006AC F8 07            [12] 1658 	ldhl	sp,	#7
      0006AE 7E               [ 8] 1659 	ld	a, (hl)
      0006AF 02               [ 8] 1660 	ld	(bc), a
                                   1661 ;C:\Users\sva13\OneDrive\ドキュメント\会社\課題\gbdk\Project\gb-test\source\exec\EyeExec.c:178: move_sprite(spriteNum+3,*eyeX + 8, *eyeY);
      0006B0 F8 0D            [12] 1662 	ldhl	sp,#13
      0006B2 2A               [ 8] 1663 	ld	a, (hl+)
      0006B3 5F               [ 4] 1664 	ld	e, a
      0006B4 56               [ 8] 1665 	ld	d, (hl)
      0006B5 1A               [ 8] 1666 	ld	a, (de)
      0006B6 C6 08            [ 8] 1667 	add	a, #0x08
      0006B8 F8 08            [12] 1668 	ldhl	sp,	#8
                                   1669 ;C:/Users/sva13/OneDrive/ドキュメント/会社/課題/gbdk/Resources/gbdk/include/gb/gb.h:1675: OAM_item_t * itm = &shadow_OAM[nb];
      0006BA 22               [ 8] 1670 	ld	(hl+), a
      0006BB 23               [ 8] 1671 	inc	hl
      0006BC 7E               [ 8] 1672 	ld	a, (hl)
      0006BD F8 06            [12] 1673 	ldhl	sp,	#6
      0006BF 22               [ 8] 1674 	ld	(hl+), a
      0006C0 36 00            [12] 1675 	ld	(hl), #0x00
      0006C2 3E 02            [ 8] 1676 	ld	a, #0x02
      0006C4                       1677 00425$:
      0006C4 F8 06            [12] 1678 	ldhl	sp,	#6
      0006C6 CB 26            [16] 1679 	sla	(hl)
      0006C8 23               [ 8] 1680 	inc	hl
      0006C9 CB 16            [16] 1681 	rl	(hl)
      0006CB 3D               [ 4] 1682 	dec	a
      0006CC 20 F6            [12] 1683 	jr	NZ, 00425$
      0006CE 2B               [ 8] 1684 	dec	hl
      0006CF 2A               [ 8] 1685 	ld	a, (hl+)
      0006D0 5F               [ 4] 1686 	ld	e, a
      0006D1 56               [ 8] 1687 	ld	d, (hl)
      0006D2 21r00r00         [12] 1688 	ld	hl, #_shadow_OAM
      0006D5 19               [ 8] 1689 	add	hl, de
      0006D6 E5               [16] 1690 	push	hl
      0006D7 7D               [ 4] 1691 	ld	a, l
      0006D8 F8 06            [12] 1692 	ldhl	sp,	#6
      0006DA 77               [ 8] 1693 	ld	(hl), a
      0006DB E1               [12] 1694 	pop	hl
      0006DC 7C               [ 4] 1695 	ld	a, h
      0006DD F8 05            [12] 1696 	ldhl	sp,	#5
      0006DF 32               [ 8] 1697 	ld	(hl-), a
      0006E0 2A               [ 8] 1698 	ld	a, (hl+)
      0006E1 23               [ 8] 1699 	inc	hl
      0006E2 32               [ 8] 1700 	ld	(hl-), a
      0006E3 2A               [ 8] 1701 	ld	a, (hl+)
      0006E4 23               [ 8] 1702 	inc	hl
                                   1703 ;C:/Users/sva13/OneDrive/ドキュメント/会社/課題/gbdk/Resources/gbdk/include/gb/gb.h:1676: itm->y=y, itm->x=x;
      0006E5 32               [ 8] 1704 	ld	(hl-), a
      0006E6 2A               [ 8] 1705 	ld	a, (hl+)
      0006E7 5F               [ 4] 1706 	ld	e, a
      0006E8 2A               [ 8] 1707 	ld	a, (hl+)
      0006E9 23               [ 8] 1708 	inc	hl
      0006EA 57               [ 4] 1709 	ld	d, a
      0006EB 7E               [ 8] 1710 	ld	a, (hl)
      0006EC 12               [ 8] 1711 	ld	(de), a
      0006ED F8 06            [12] 1712 	ldhl	sp,	#6
      0006EF 2A               [ 8] 1713 	ld	a, (hl+)
      0006F0 4F               [ 4] 1714 	ld	c, a
      0006F1 2A               [ 8] 1715 	ld	a, (hl+)
      0006F2 47               [ 4] 1716 	ld	b, a
      0006F3 03               [ 8] 1717 	inc	bc
      0006F4 7E               [ 8] 1718 	ld	a, (hl)
      0006F5 02               [ 8] 1719 	ld	(bc), a
                           0006F6  1720 	C$EyeExec.c$178$1_0$131	= .
                                   1721 	.globl	C$EyeExec.c$178$1_0$131
                                   1722 ;C:\Users\sva13\OneDrive\ドキュメント\会社\課題\gbdk\Project\gb-test\source\exec\EyeExec.c:178: move_sprite(spriteNum+3,*eyeX + 8, *eyeY);
      0006F6 C3rB1r0B         [16] 1723 	jp	00222$
      0006F9                       1724 00178$:
                           0006F9  1725 	C$EyeExec.c$181$1_0$131	= .
                                   1726 	.globl	C$EyeExec.c$181$1_0$131
                                   1727 ;C:\Users\sva13\OneDrive\ドキュメント\会社\課題\gbdk\Project\gb-test\source\exec\EyeExec.c:181: else if((*bkgX >= 48 && *bkgX < 56 ) && (*bkgY >= 48 && *bkgY < 64)){
      0006F9 F8 09            [12] 1728 	ldhl	sp,	#9
      0006FB 7E               [ 8] 1729 	ld	a, (hl)
      0006FC D6 38            [ 8] 1730 	sub	a, #0x38
      0006FE 3E 00            [ 8] 1731 	ld	a, #0x00
      000700 17               [ 4] 1732 	rla
      000701 32               [ 8] 1733 	ld	(hl-), a
      000702 CB 46            [12] 1734 	bit	0, (hl)
      000704 C2r0Er08         [16] 1735 	jp	NZ, 00172$
      000707 23               [ 8] 1736 	inc	hl
      000708 7E               [ 8] 1737 	ld	a, (hl)
      000709 B7               [ 4] 1738 	or	a, a
      00070A CAr0Er08         [16] 1739 	jp	Z, 00172$
      00070D F8 02            [12] 1740 	ldhl	sp,#2
      00070F 2A               [ 8] 1741 	ld	a, (hl+)
      000710 5F               [ 4] 1742 	ld	e, a
      000711 56               [ 8] 1743 	ld	d, (hl)
      000712 1A               [ 8] 1744 	ld	a, (de)
      000713 FE 30            [ 8] 1745 	cp	a, #0x30
      000715 DAr0Er08         [16] 1746 	jp	C, 00172$
      000718 D6 40            [ 8] 1747 	sub	a, #0x40
      00071A D2r0Er08         [16] 1748 	jp	NC, 00172$
                           00071D  1749 	C$EyeExec.c$183$2_0$142	= .
                                   1750 	.globl	C$EyeExec.c$183$2_0$142
                                   1751 ;C:\Users\sva13\OneDrive\ドキュメント\会社\課題\gbdk\Project\gb-test\source\exec\EyeExec.c:183: uint8_t randNum1 = randGenetate(4);
      00071D 3E 04            [ 8] 1752 	ld	a, #0x04
      00071F CDr24r00         [24] 1753 	call	_randGenetate
      000722 F8 08            [12] 1754 	ldhl	sp,	#8
      000724 77               [ 8] 1755 	ld	(hl), a
                           000725  1756 	C$EyeExec.c$184$2_0$142	= .
                                   1757 	.globl	C$EyeExec.c$184$2_0$142
                                   1758 ;C:\Users\sva13\OneDrive\ドキュメント\会社\課題\gbdk\Project\gb-test\source\exec\EyeExec.c:184: uint8_t randNum2 = randGenetate(8);
      000725 3E 08            [ 8] 1759 	ld	a, #0x08
      000727 CDr24r00         [24] 1760 	call	_randGenetate
                           00072A  1761 	C$EyeExec.c$186$1_0$131	= .
                                   1762 	.globl	C$EyeExec.c$186$1_0$131
                                   1763 ;C:\Users\sva13\OneDrive\ドキュメント\会社\課題\gbdk\Project\gb-test\source\exec\EyeExec.c:186: *eyeX = (16 * (randNum2 + 1) + 8);
      00072A 3C               [ 4] 1764 	inc	a
      00072B F8 09            [12] 1765 	ldhl	sp,	#9
                           00072D  1766 	C$EyeExec.c$185$2_0$142	= .
                                   1767 	.globl	C$EyeExec.c$185$2_0$142
                                   1768 ;C:\Users\sva13\OneDrive\ドキュメント\会社\課題\gbdk\Project\gb-test\source\exec\EyeExec.c:185: if(randNum1 >= 0 && randNum1 <= 1){
      00072D 32               [ 8] 1769 	ld	(hl-), a
      00072E 3E 01            [ 8] 1770 	ld	a, #0x01
      000730 96               [ 8] 1771 	sub	a, (hl)
      000731 38 6E            [12] 1772 	jr	C, 00122$
                           000733  1773 	C$EyeExec.c$186$3_0$143	= .
                                   1774 	.globl	C$EyeExec.c$186$3_0$143
                                   1775 ;C:\Users\sva13\OneDrive\ドキュメント\会社\課題\gbdk\Project\gb-test\source\exec\EyeExec.c:186: *eyeX = (16 * (randNum2 + 1) + 8);
      000733 23               [ 8] 1776 	inc	hl
      000734 7E               [ 8] 1777 	ld	a, (hl)
      000735 CB 37            [ 8] 1778 	swap	a
      000737 E6 F0            [ 8] 1779 	and	a, #0xf0
      000739 C6 08            [ 8] 1780 	add	a, #0x08
      00073B 4F               [ 4] 1781 	ld	c, a
      00073C F8 0D            [12] 1782 	ldhl	sp,	#13
      00073E 2A               [ 8] 1783 	ld	a,	(hl+)
      00073F 66               [ 8] 1784 	ld	h, (hl)
      000740 6F               [ 4] 1785 	ld	l, a
      000741 71               [ 8] 1786 	ld	(hl), c
                           000742  1787 	C$EyeExec.c$187$3_0$143	= .
                                   1788 	.globl	C$EyeExec.c$187$3_0$143
                                   1789 ;C:\Users\sva13\OneDrive\ドキュメント\会社\課題\gbdk\Project\gb-test\source\exec\EyeExec.c:187: if(randNum1 == 0){
      000742 F8 08            [12] 1790 	ldhl	sp,	#8
      000744 7E               [ 8] 1791 	ld	a, (hl)
      000745 B7               [ 4] 1792 	or	a, a
      000746 20 10            [12] 1793 	jr	NZ, 00116$
                           000748  1794 	C$EyeExec.c$189$4_0$144	= .
                                   1795 	.globl	C$EyeExec.c$189$4_0$144
                                   1796 ;C:\Users\sva13\OneDrive\ドキュメント\会社\課題\gbdk\Project\gb-test\source\exec\EyeExec.c:189: *eyeY = 0;
      000748 F8 0B            [12] 1797 	ldhl	sp,	#11
      00074A 2A               [ 8] 1798 	ld	a,	(hl+)
      00074B 66               [ 8] 1799 	ld	h, (hl)
      00074C 6F               [ 4] 1800 	ld	l, a
      00074D 36 00            [12] 1801 	ld	(hl), #0x00
                           00074F  1802 	C$EyeExec.c$190$4_0$144	= .
                                   1803 	.globl	C$EyeExec.c$190$4_0$144
                                   1804 ;C:\Users\sva13\OneDrive\ドキュメント\会社\課題\gbdk\Project\gb-test\source\exec\EyeExec.c:190: *eyeMode = MOVEDOWN;
      00074F F8 04            [12] 1805 	ldhl	sp,	#4
      000751 2A               [ 8] 1806 	ld	a,	(hl+)
      000752 66               [ 8] 1807 	ld	h, (hl)
      000753 6F               [ 4] 1808 	ld	l, a
      000754 36 03            [12] 1809 	ld	(hl), #0x03
      000756 18 0E            [12] 1810 	jr	00117$
      000758                       1811 00116$:
                           000758  1812 	C$EyeExec.c$194$4_0$145	= .
                                   1813 	.globl	C$EyeExec.c$194$4_0$145
                                   1814 ;C:\Users\sva13\OneDrive\ドキュメント\会社\課題\gbdk\Project\gb-test\source\exec\EyeExec.c:194: *eyeY = 144;
      000758 F8 0B            [12] 1815 	ldhl	sp,	#11
      00075A 2A               [ 8] 1816 	ld	a,	(hl+)
      00075B 66               [ 8] 1817 	ld	h, (hl)
      00075C 6F               [ 4] 1818 	ld	l, a
      00075D 36 90            [12] 1819 	ld	(hl), #0x90
                           00075F  1820 	C$EyeExec.c$195$4_0$145	= .
                                   1821 	.globl	C$EyeExec.c$195$4_0$145
                                   1822 ;C:\Users\sva13\OneDrive\ドキュメント\会社\課題\gbdk\Project\gb-test\source\exec\EyeExec.c:195: *eyeMode = MOVEUP;
      00075F F8 04            [12] 1823 	ldhl	sp,	#4
      000761 2A               [ 8] 1824 	ld	a,	(hl+)
      000762 66               [ 8] 1825 	ld	h, (hl)
      000763 6F               [ 4] 1826 	ld	l, a
      000764 36 01            [12] 1827 	ld	(hl), #0x01
      000766                       1828 00117$:
                                   1829 ;C:\Users\sva13\OneDrive\ドキュメント\会社\課題\gbdk\Project\gb-test\source\exec\EyeExec.c:197: move_sprite(spriteNum+2, *eyeX, *eyeY );
      000766 F8 0B            [12] 1830 	ldhl	sp,#11
      000768 2A               [ 8] 1831 	ld	a, (hl+)
      000769 5F               [ 4] 1832 	ld	e, a
      00076A 2A               [ 8] 1833 	ld	a, (hl+)
      00076B 57               [ 4] 1834 	ld	d, a
      00076C 1A               [ 8] 1835 	ld	a, (de)
      00076D 47               [ 4] 1836 	ld	b, a
      00076E 2A               [ 8] 1837 	ld	a, (hl+)
      00076F 5F               [ 4] 1838 	ld	e, a
      000770 56               [ 8] 1839 	ld	d, (hl)
      000771 1A               [ 8] 1840 	ld	a, (de)
      000772 4F               [ 4] 1841 	ld	c, a
      000773 F8 06            [12] 1842 	ldhl	sp,	#6
                                   1843 ;C:/Users/sva13/OneDrive/ドキュメント/会社/課題/gbdk/Resources/gbdk/include/gb/gb.h:1675: OAM_item_t * itm = &shadow_OAM[nb];
      000775 6E               [ 8] 1844 	ld	l, (hl)
                                   1845 ;	spillPairReg hl
                                   1846 ;	spillPairReg hl
      000776 26 00            [ 8] 1847 	ld	h, #0x00
                                   1848 ;	spillPairReg hl
                                   1849 ;	spillPairReg hl
      000778 29               [ 8] 1850 	add	hl, hl
      000779 29               [ 8] 1851 	add	hl, hl
      00077A 11r00r00         [12] 1852 	ld	de, #_shadow_OAM
      00077D 19               [ 8] 1853 	add	hl, de
                                   1854 ;C:/Users/sva13/OneDrive/ドキュメント/会社/課題/gbdk/Resources/gbdk/include/gb/gb.h:1676: itm->y=y, itm->x=x;
      00077E 78               [ 4] 1855 	ld	a, b
      00077F 22               [ 8] 1856 	ld	(hl+), a
      000780 71               [ 8] 1857 	ld	(hl), c
                                   1858 ;C:\Users\sva13\OneDrive\ドキュメント\会社\課題\gbdk\Project\gb-test\source\exec\EyeExec.c:198: move_sprite(spriteNum+3, *eyeX + 8, *eyeY);
      000781 F8 0B            [12] 1859 	ldhl	sp,#11
      000783 2A               [ 8] 1860 	ld	a, (hl+)
      000784 5F               [ 4] 1861 	ld	e, a
      000785 2A               [ 8] 1862 	ld	a, (hl+)
      000786 57               [ 4] 1863 	ld	d, a
      000787 1A               [ 8] 1864 	ld	a, (de)
      000788 47               [ 4] 1865 	ld	b, a
      000789 2A               [ 8] 1866 	ld	a, (hl+)
      00078A 5F               [ 4] 1867 	ld	e, a
      00078B 56               [ 8] 1868 	ld	d, (hl)
      00078C 1A               [ 8] 1869 	ld	a, (de)
      00078D C6 08            [ 8] 1870 	add	a, #0x08
      00078F 4F               [ 4] 1871 	ld	c, a
      000790 F8 0A            [12] 1872 	ldhl	sp,	#10
                                   1873 ;C:/Users/sva13/OneDrive/ドキュメント/会社/課題/gbdk/Resources/gbdk/include/gb/gb.h:1675: OAM_item_t * itm = &shadow_OAM[nb];
      000792 6E               [ 8] 1874 	ld	l, (hl)
                                   1875 ;	spillPairReg hl
                                   1876 ;	spillPairReg hl
      000793 26 00            [ 8] 1877 	ld	h, #0x00
                                   1878 ;	spillPairReg hl
                                   1879 ;	spillPairReg hl
      000795 29               [ 8] 1880 	add	hl, hl
      000796 29               [ 8] 1881 	add	hl, hl
      000797 11r00r00         [12] 1882 	ld	de, #_shadow_OAM
      00079A 19               [ 8] 1883 	add	hl, de
                                   1884 ;C:/Users/sva13/OneDrive/ドキュメント/会社/課題/gbdk/Resources/gbdk/include/gb/gb.h:1676: itm->y=y, itm->x=x;
      00079B 70               [ 8] 1885 	ld	(hl), b
      00079C 23               [ 8] 1886 	inc	hl
      00079D 71               [ 8] 1887 	ld	(hl), c
                           00079E  1888 	C$EyeExec.c$198$2_0$142	= .
                                   1889 	.globl	C$EyeExec.c$198$2_0$142
                                   1890 ;C:\Users\sva13\OneDrive\ドキュメント\会社\課題\gbdk\Project\gb-test\source\exec\EyeExec.c:198: move_sprite(spriteNum+3, *eyeX + 8, *eyeY);
      00079E C3rB1r0B         [16] 1891 	jp	00222$
      0007A1                       1892 00122$:
                           0007A1  1893 	C$EyeExec.c$201$3_0$146	= .
                                   1894 	.globl	C$EyeExec.c$201$3_0$146
                                   1895 ;C:\Users\sva13\OneDrive\ドキュメント\会社\課題\gbdk\Project\gb-test\source\exec\EyeExec.c:201: *eyeY = 16 * (randNum2 + 1);
      0007A1 F8 09            [12] 1896 	ldhl	sp,	#9
      0007A3 2A               [ 8] 1897 	ld	a, (hl+)
      0007A4 23               [ 8] 1898 	inc	hl
      0007A5 CB 37            [ 8] 1899 	swap	a
      0007A7 E6 F0            [ 8] 1900 	and	a, #0xf0
      0007A9 4F               [ 4] 1901 	ld	c, a
      0007AA 2A               [ 8] 1902 	ld	a,	(hl+)
      0007AB 66               [ 8] 1903 	ld	h, (hl)
      0007AC 6F               [ 4] 1904 	ld	l, a
      0007AD 71               [ 8] 1905 	ld	(hl), c
                           0007AE  1906 	C$EyeExec.c$202$3_0$146	= .
                                   1907 	.globl	C$EyeExec.c$202$3_0$146
                                   1908 ;C:\Users\sva13\OneDrive\ドキュメント\会社\課題\gbdk\Project\gb-test\source\exec\EyeExec.c:202: if(randNum1 == 2){
      0007AE F8 08            [12] 1909 	ldhl	sp,	#8
      0007B0 7E               [ 8] 1910 	ld	a, (hl)
      0007B1 D6 02            [ 8] 1911 	sub	a, #0x02
      0007B3 20 10            [12] 1912 	jr	NZ, 00119$
                           0007B5  1913 	C$EyeExec.c$204$4_0$147	= .
                                   1914 	.globl	C$EyeExec.c$204$4_0$147
                                   1915 ;C:\Users\sva13\OneDrive\ドキュメント\会社\課題\gbdk\Project\gb-test\source\exec\EyeExec.c:204: *eyeX = 168;
      0007B5 F8 0D            [12] 1916 	ldhl	sp,	#13
      0007B7 2A               [ 8] 1917 	ld	a,	(hl+)
      0007B8 66               [ 8] 1918 	ld	h, (hl)
      0007B9 6F               [ 4] 1919 	ld	l, a
      0007BA 36 A8            [12] 1920 	ld	(hl), #0xa8
                           0007BC  1921 	C$EyeExec.c$205$4_0$147	= .
                                   1922 	.globl	C$EyeExec.c$205$4_0$147
                                   1923 ;C:\Users\sva13\OneDrive\ドキュメント\会社\課題\gbdk\Project\gb-test\source\exec\EyeExec.c:205: *eyeMode = MOVELEFT;
      0007BC F8 04            [12] 1924 	ldhl	sp,	#4
      0007BE 2A               [ 8] 1925 	ld	a,	(hl+)
      0007BF 66               [ 8] 1926 	ld	h, (hl)
      0007C0 6F               [ 4] 1927 	ld	l, a
      0007C1 36 04            [12] 1928 	ld	(hl), #0x04
      0007C3 18 0E            [12] 1929 	jr	00120$
      0007C5                       1930 00119$:
                           0007C5  1931 	C$EyeExec.c$209$4_0$148	= .
                                   1932 	.globl	C$EyeExec.c$209$4_0$148
                                   1933 ;C:\Users\sva13\OneDrive\ドキュメント\会社\課題\gbdk\Project\gb-test\source\exec\EyeExec.c:209: *eyeX = 8;
      0007C5 F8 0D            [12] 1934 	ldhl	sp,	#13
      0007C7 2A               [ 8] 1935 	ld	a,	(hl+)
      0007C8 66               [ 8] 1936 	ld	h, (hl)
      0007C9 6F               [ 4] 1937 	ld	l, a
      0007CA 36 08            [12] 1938 	ld	(hl), #0x08
                           0007CC  1939 	C$EyeExec.c$210$4_0$148	= .
                                   1940 	.globl	C$EyeExec.c$210$4_0$148
                                   1941 ;C:\Users\sva13\OneDrive\ドキュメント\会社\課題\gbdk\Project\gb-test\source\exec\EyeExec.c:210: *eyeMode = MOVERIGHT;
      0007CC F8 04            [12] 1942 	ldhl	sp,	#4
      0007CE 2A               [ 8] 1943 	ld	a,	(hl+)
      0007CF 66               [ 8] 1944 	ld	h, (hl)
      0007D0 6F               [ 4] 1945 	ld	l, a
      0007D1 36 02            [12] 1946 	ld	(hl), #0x02
      0007D3                       1947 00120$:
                                   1948 ;C:\Users\sva13\OneDrive\ドキュメント\会社\課題\gbdk\Project\gb-test\source\exec\EyeExec.c:212: move_sprite(spriteNum+2,*eyeX, *eyeY);
      0007D3 F8 0B            [12] 1949 	ldhl	sp,#11
      0007D5 2A               [ 8] 1950 	ld	a, (hl+)
      0007D6 5F               [ 4] 1951 	ld	e, a
      0007D7 2A               [ 8] 1952 	ld	a, (hl+)
      0007D8 57               [ 4] 1953 	ld	d, a
      0007D9 1A               [ 8] 1954 	ld	a, (de)
      0007DA 47               [ 4] 1955 	ld	b, a
      0007DB 2A               [ 8] 1956 	ld	a, (hl+)
      0007DC 5F               [ 4] 1957 	ld	e, a
      0007DD 56               [ 8] 1958 	ld	d, (hl)
      0007DE 1A               [ 8] 1959 	ld	a, (de)
      0007DF 4F               [ 4] 1960 	ld	c, a
      0007E0 F8 06            [12] 1961 	ldhl	sp,	#6
                                   1962 ;C:/Users/sva13/OneDrive/ドキュメント/会社/課題/gbdk/Resources/gbdk/include/gb/gb.h:1675: OAM_item_t * itm = &shadow_OAM[nb];
      0007E2 6E               [ 8] 1963 	ld	l, (hl)
                                   1964 ;	spillPairReg hl
                                   1965 ;	spillPairReg hl
      0007E3 26 00            [ 8] 1966 	ld	h, #0x00
                                   1967 ;	spillPairReg hl
                                   1968 ;	spillPairReg hl
      0007E5 29               [ 8] 1969 	add	hl, hl
      0007E6 29               [ 8] 1970 	add	hl, hl
      0007E7 11r00r00         [12] 1971 	ld	de, #_shadow_OAM
      0007EA 19               [ 8] 1972 	add	hl, de
                                   1973 ;C:/Users/sva13/OneDrive/ドキュメント/会社/課題/gbdk/Resources/gbdk/include/gb/gb.h:1676: itm->y=y, itm->x=x;
      0007EB 78               [ 4] 1974 	ld	a, b
      0007EC 22               [ 8] 1975 	ld	(hl+), a
      0007ED 71               [ 8] 1976 	ld	(hl), c
                                   1977 ;C:\Users\sva13\OneDrive\ドキュメント\会社\課題\gbdk\Project\gb-test\source\exec\EyeExec.c:213: move_sprite(spriteNum+3,*eyeX + 8, *eyeY);
      0007EE F8 0B            [12] 1978 	ldhl	sp,#11
      0007F0 2A               [ 8] 1979 	ld	a, (hl+)
      0007F1 5F               [ 4] 1980 	ld	e, a
      0007F2 2A               [ 8] 1981 	ld	a, (hl+)
      0007F3 57               [ 4] 1982 	ld	d, a
      0007F4 1A               [ 8] 1983 	ld	a, (de)
      0007F5 47               [ 4] 1984 	ld	b, a
      0007F6 2A               [ 8] 1985 	ld	a, (hl+)
      0007F7 5F               [ 4] 1986 	ld	e, a
      0007F8 56               [ 8] 1987 	ld	d, (hl)
      0007F9 1A               [ 8] 1988 	ld	a, (de)
      0007FA C6 08            [ 8] 1989 	add	a, #0x08
      0007FC 4F               [ 4] 1990 	ld	c, a
      0007FD F8 0A            [12] 1991 	ldhl	sp,	#10
                                   1992 ;C:/Users/sva13/OneDrive/ドキュメント/会社/課題/gbdk/Resources/gbdk/include/gb/gb.h:1675: OAM_item_t * itm = &shadow_OAM[nb];
      0007FF 6E               [ 8] 1993 	ld	l, (hl)
                                   1994 ;	spillPairReg hl
                                   1995 ;	spillPairReg hl
      000800 26 00            [ 8] 1996 	ld	h, #0x00
                                   1997 ;	spillPairReg hl
                                   1998 ;	spillPairReg hl
      000802 29               [ 8] 1999 	add	hl, hl
      000803 29               [ 8] 2000 	add	hl, hl
      000804 11r00r00         [12] 2001 	ld	de, #_shadow_OAM
      000807 19               [ 8] 2002 	add	hl, de
                                   2003 ;C:/Users/sva13/OneDrive/ドキュメント/会社/課題/gbdk/Resources/gbdk/include/gb/gb.h:1676: itm->y=y, itm->x=x;
      000808 70               [ 8] 2004 	ld	(hl), b
      000809 23               [ 8] 2005 	inc	hl
      00080A 71               [ 8] 2006 	ld	(hl), c
                           00080B  2007 	C$EyeExec.c$213$1_0$131	= .
                                   2008 	.globl	C$EyeExec.c$213$1_0$131
                                   2009 ;C:\Users\sva13\OneDrive\ドキュメント\会社\課題\gbdk\Project\gb-test\source\exec\EyeExec.c:213: move_sprite(spriteNum+3,*eyeX + 8, *eyeY);
      00080B C3rB1r0B         [16] 2010 	jp	00222$
      00080E                       2011 00172$:
                           00080E  2012 	C$EyeExec.c$216$1_0$131	= .
                                   2013 	.globl	C$EyeExec.c$216$1_0$131
                                   2014 ;C:\Users\sva13\OneDrive\ドキュメント\会社\課題\gbdk\Project\gb-test\source\exec\EyeExec.c:216: else if((*bkgX >= 48 && *bkgX < 56 ) && (*bkgY >= 64)){
      00080E F8 08            [12] 2015 	ldhl	sp,	#8
      000810 CB 46            [12] 2016 	bit	0, (hl)
      000812 C2r0Dr09         [16] 2017 	jp	NZ, 00167$
      000815 23               [ 8] 2018 	inc	hl
      000816 7E               [ 8] 2019 	ld	a, (hl)
      000817 B7               [ 4] 2020 	or	a, a
      000818 CAr0Dr09         [16] 2021 	jp	Z, 00167$
      00081B F8 02            [12] 2022 	ldhl	sp,#2
      00081D 2A               [ 8] 2023 	ld	a, (hl+)
      00081E 5F               [ 4] 2024 	ld	e, a
      00081F 56               [ 8] 2025 	ld	d, (hl)
      000820 1A               [ 8] 2026 	ld	a, (de)
      000821 D6 40            [ 8] 2027 	sub	a, #0x40
      000823 DAr0Dr09         [16] 2028 	jp	C, 00167$
                           000826  2029 	C$EyeExec.c$218$2_0$149	= .
                                   2030 	.globl	C$EyeExec.c$218$2_0$149
                                   2031 ;C:\Users\sva13\OneDrive\ドキュメント\会社\課題\gbdk\Project\gb-test\source\exec\EyeExec.c:218: uint8_t randNum1 = randGenetate(4);
      000826 3E 04            [ 8] 2032 	ld	a, #0x04
      000828 CDr24r00         [24] 2033 	call	_randGenetate
      00082B 4F               [ 4] 2034 	ld	c, a
                           00082C  2035 	C$EyeExec.c$219$2_0$149	= .
                                   2036 	.globl	C$EyeExec.c$219$2_0$149
                                   2037 ;C:\Users\sva13\OneDrive\ドキュメント\会社\課題\gbdk\Project\gb-test\source\exec\EyeExec.c:219: uint8_t randNum2 = randGenetate(8);
      00082C C5               [16] 2038 	push	bc
      00082D 3E 08            [ 8] 2039 	ld	a, #0x08
      00082F CDr24r00         [24] 2040 	call	_randGenetate
      000832 C1               [12] 2041 	pop	bc
      000833 5F               [ 4] 2042 	ld	e, a
                           000834  2043 	C$EyeExec.c$220$2_0$149	= .
                                   2044 	.globl	C$EyeExec.c$220$2_0$149
                                   2045 ;C:\Users\sva13\OneDrive\ドキュメント\会社\課題\gbdk\Project\gb-test\source\exec\EyeExec.c:220: if(randNum1 >= 0 && randNum1 <= 1){
      000834 3E 01            [ 8] 2046 	ld	a, #0x01
      000836 91               [ 4] 2047 	sub	a, c
      000837 38 64            [12] 2048 	jr	C, 00131$
                           000839  2049 	C$EyeExec.c$221$3_0$150	= .
                                   2050 	.globl	C$EyeExec.c$221$3_0$150
                                   2051 ;C:\Users\sva13\OneDrive\ドキュメント\会社\課題\gbdk\Project\gb-test\source\exec\EyeExec.c:221: *eyeX = (16 * (randNum2 + 1) + 8);
      000839 7B               [ 4] 2052 	ld	a, e
      00083A 3C               [ 4] 2053 	inc	a
      00083B CB 37            [ 8] 2054 	swap	a
      00083D E6 F0            [ 8] 2055 	and	a, #0xf0
      00083F C6 08            [ 8] 2056 	add	a, #0x08
      000841 4F               [ 4] 2057 	ld	c, a
      000842 F8 0D            [12] 2058 	ldhl	sp,	#13
      000844 2A               [ 8] 2059 	ld	a,	(hl+)
      000845 66               [ 8] 2060 	ld	h, (hl)
      000846 6F               [ 4] 2061 	ld	l, a
      000847 71               [ 8] 2062 	ld	(hl), c
                           000848  2063 	C$EyeExec.c$222$3_0$150	= .
                                   2064 	.globl	C$EyeExec.c$222$3_0$150
                                   2065 ;C:\Users\sva13\OneDrive\ドキュメント\会社\課題\gbdk\Project\gb-test\source\exec\EyeExec.c:222: *eyeY = 0;
      000848 F8 0B            [12] 2066 	ldhl	sp,	#11
      00084A 2A               [ 8] 2067 	ld	a,	(hl+)
      00084B 66               [ 8] 2068 	ld	h, (hl)
      00084C 6F               [ 4] 2069 	ld	l, a
      00084D 36 00            [12] 2070 	ld	(hl), #0x00
                           00084F  2071 	C$EyeExec.c$223$3_0$150	= .
                                   2072 	.globl	C$EyeExec.c$223$3_0$150
                                   2073 ;C:\Users\sva13\OneDrive\ドキュメント\会社\課題\gbdk\Project\gb-test\source\exec\EyeExec.c:223: *eyeMode = MOVEDOWN;
      00084F F8 04            [12] 2074 	ldhl	sp,	#4
      000851 2A               [ 8] 2075 	ld	a,	(hl+)
      000852 66               [ 8] 2076 	ld	h, (hl)
      000853 6F               [ 4] 2077 	ld	l, a
      000854 36 03            [12] 2078 	ld	(hl), #0x03
                                   2079 ;C:\Users\sva13\OneDrive\ドキュメント\会社\課題\gbdk\Project\gb-test\source\exec\EyeExec.c:224: move_sprite(spriteNum+2, *eyeX, *eyeY );
      000856 F8 0B            [12] 2080 	ldhl	sp,#11
      000858 2A               [ 8] 2081 	ld	a, (hl+)
      000859 5F               [ 4] 2082 	ld	e, a
      00085A 2A               [ 8] 2083 	ld	a, (hl+)
      00085B 57               [ 4] 2084 	ld	d, a
      00085C 1A               [ 8] 2085 	ld	a, (de)
      00085D 4F               [ 4] 2086 	ld	c, a
      00085E 2A               [ 8] 2087 	ld	a, (hl+)
      00085F 5F               [ 4] 2088 	ld	e, a
      000860 56               [ 8] 2089 	ld	d, (hl)
      000861 1A               [ 8] 2090 	ld	a, (de)
      000862 F8 09            [12] 2091 	ldhl	sp,	#9
      000864 77               [ 8] 2092 	ld	(hl), a
      000865 F8 06            [12] 2093 	ldhl	sp,	#6
                                   2094 ;C:/Users/sva13/OneDrive/ドキュメント/会社/課題/gbdk/Resources/gbdk/include/gb/gb.h:1675: OAM_item_t * itm = &shadow_OAM[nb];
      000867 6E               [ 8] 2095 	ld	l, (hl)
                                   2096 ;	spillPairReg hl
                                   2097 ;	spillPairReg hl
      000868 26 00            [ 8] 2098 	ld	h, #0x00
                                   2099 ;	spillPairReg hl
                                   2100 ;	spillPairReg hl
      00086A 29               [ 8] 2101 	add	hl, hl
      00086B 29               [ 8] 2102 	add	hl, hl
      00086C 11r00r00         [12] 2103 	ld	de, #_shadow_OAM
      00086F 19               [ 8] 2104 	add	hl, de
                                   2105 ;C:/Users/sva13/OneDrive/ドキュメント/会社/課題/gbdk/Resources/gbdk/include/gb/gb.h:1676: itm->y=y, itm->x=x;
      000870 79               [ 4] 2106 	ld	a, c
      000871 22               [ 8] 2107 	ld	(hl+), a
      000872 4D               [ 4] 2108 	ld	c, l
      000873 44               [ 4] 2109 	ld	b, h
      000874 F8 09            [12] 2110 	ldhl	sp,	#9
      000876 7E               [ 8] 2111 	ld	a, (hl)
      000877 02               [ 8] 2112 	ld	(bc), a
                                   2113 ;C:\Users\sva13\OneDrive\ドキュメント\会社\課題\gbdk\Project\gb-test\source\exec\EyeExec.c:225: move_sprite(spriteNum+3, *eyeX + 8, *eyeY);
      000878 F8 0B            [12] 2114 	ldhl	sp,#11
      00087A 2A               [ 8] 2115 	ld	a, (hl+)
      00087B 5F               [ 4] 2116 	ld	e, a
      00087C 2A               [ 8] 2117 	ld	a, (hl+)
      00087D 57               [ 4] 2118 	ld	d, a
      00087E 1A               [ 8] 2119 	ld	a, (de)
      00087F 4F               [ 4] 2120 	ld	c, a
      000880 2A               [ 8] 2121 	ld	a, (hl+)
      000881 5F               [ 4] 2122 	ld	e, a
      000882 56               [ 8] 2123 	ld	d, (hl)
      000883 1A               [ 8] 2124 	ld	a, (de)
      000884 C6 08            [ 8] 2125 	add	a, #0x08
      000886 F8 09            [12] 2126 	ldhl	sp,	#9
      000888 22               [ 8] 2127 	ld	(hl+), a
                                   2128 ;C:/Users/sva13/OneDrive/ドキュメント/会社/課題/gbdk/Resources/gbdk/include/gb/gb.h:1675: OAM_item_t * itm = &shadow_OAM[nb];
      000889 6E               [ 8] 2129 	ld	l, (hl)
                                   2130 ;	spillPairReg hl
                                   2131 ;	spillPairReg hl
      00088A 26 00            [ 8] 2132 	ld	h, #0x00
                                   2133 ;	spillPairReg hl
                                   2134 ;	spillPairReg hl
      00088C 29               [ 8] 2135 	add	hl, hl
      00088D 29               [ 8] 2136 	add	hl, hl
      00088E 11r00r00         [12] 2137 	ld	de, #_shadow_OAM
      000891 19               [ 8] 2138 	add	hl, de
                                   2139 ;C:/Users/sva13/OneDrive/ドキュメント/会社/課題/gbdk/Resources/gbdk/include/gb/gb.h:1676: itm->y=y, itm->x=x;
      000892 79               [ 4] 2140 	ld	a, c
      000893 22               [ 8] 2141 	ld	(hl+), a
      000894 4D               [ 4] 2142 	ld	c, l
      000895 44               [ 4] 2143 	ld	b, h
      000896 F8 09            [12] 2144 	ldhl	sp,	#9
      000898 7E               [ 8] 2145 	ld	a, (hl)
      000899 02               [ 8] 2146 	ld	(bc), a
                           00089A  2147 	C$EyeExec.c$225$2_0$149	= .
                                   2148 	.globl	C$EyeExec.c$225$2_0$149
                                   2149 ;C:\Users\sva13\OneDrive\ドキュメント\会社\課題\gbdk\Project\gb-test\source\exec\EyeExec.c:225: move_sprite(spriteNum+3, *eyeX + 8, *eyeY);
      00089A C3rB1r0B         [16] 2150 	jp	00222$
      00089D                       2151 00131$:
                           00089D  2152 	C$EyeExec.c$228$3_0$151	= .
                                   2153 	.globl	C$EyeExec.c$228$3_0$151
                                   2154 ;C:\Users\sva13\OneDrive\ドキュメント\会社\課題\gbdk\Project\gb-test\source\exec\EyeExec.c:228: if(randNum1 == 7) return;
      00089D 79               [ 4] 2155 	ld	a, c
      00089E D6 07            [ 8] 2156 	sub	a, #0x07
      0008A0 CArB1r0B         [16] 2157 	jp	Z,00222$
                           0008A3  2158 	C$EyeExec.c$229$3_0$151	= .
                                   2159 	.globl	C$EyeExec.c$229$3_0$151
                                   2160 ;C:\Users\sva13\OneDrive\ドキュメント\会社\課題\gbdk\Project\gb-test\source\exec\EyeExec.c:229: *eyeY = 16 * randNum2;
      0008A3 7B               [ 4] 2161 	ld	a, e
      0008A4 CB 37            [ 8] 2162 	swap	a
      0008A6 E6 F0            [ 8] 2163 	and	a, #0xf0
      0008A8 47               [ 4] 2164 	ld	b, a
      0008A9 F8 0B            [12] 2165 	ldhl	sp,	#11
      0008AB 2A               [ 8] 2166 	ld	a,	(hl+)
      0008AC 66               [ 8] 2167 	ld	h, (hl)
      0008AD 6F               [ 4] 2168 	ld	l, a
      0008AE 70               [ 8] 2169 	ld	(hl), b
                           0008AF  2170 	C$EyeExec.c$230$3_0$151	= .
                                   2171 	.globl	C$EyeExec.c$230$3_0$151
                                   2172 ;C:\Users\sva13\OneDrive\ドキュメント\会社\課題\gbdk\Project\gb-test\source\exec\EyeExec.c:230: if(randNum1 == 2){
      0008AF 79               [ 4] 2173 	ld	a, c
      0008B0 D6 02            [ 8] 2174 	sub	a, #0x02
      0008B2 20 10            [12] 2175 	jr	NZ, 00128$
                           0008B4  2176 	C$EyeExec.c$232$4_0$152	= .
                                   2177 	.globl	C$EyeExec.c$232$4_0$152
                                   2178 ;C:\Users\sva13\OneDrive\ドキュメント\会社\課題\gbdk\Project\gb-test\source\exec\EyeExec.c:232: *eyeX = 168;
      0008B4 F8 0D            [12] 2179 	ldhl	sp,	#13
      0008B6 2A               [ 8] 2180 	ld	a,	(hl+)
      0008B7 66               [ 8] 2181 	ld	h, (hl)
      0008B8 6F               [ 4] 2182 	ld	l, a
      0008B9 36 A8            [12] 2183 	ld	(hl), #0xa8
                           0008BB  2184 	C$EyeExec.c$233$4_0$152	= .
                                   2185 	.globl	C$EyeExec.c$233$4_0$152
                                   2186 ;C:\Users\sva13\OneDrive\ドキュメント\会社\課題\gbdk\Project\gb-test\source\exec\EyeExec.c:233: *eyeMode = MOVELEFT;
      0008BB F8 04            [12] 2187 	ldhl	sp,	#4
      0008BD 2A               [ 8] 2188 	ld	a,	(hl+)
      0008BE 66               [ 8] 2189 	ld	h, (hl)
      0008BF 6F               [ 4] 2190 	ld	l, a
      0008C0 36 04            [12] 2191 	ld	(hl), #0x04
      0008C2 18 0E            [12] 2192 	jr	00129$
      0008C4                       2193 00128$:
                           0008C4  2194 	C$EyeExec.c$237$4_0$153	= .
                                   2195 	.globl	C$EyeExec.c$237$4_0$153
                                   2196 ;C:\Users\sva13\OneDrive\ドキュメント\会社\課題\gbdk\Project\gb-test\source\exec\EyeExec.c:237: *eyeX = 8;
      0008C4 F8 0D            [12] 2197 	ldhl	sp,	#13
      0008C6 2A               [ 8] 2198 	ld	a,	(hl+)
      0008C7 66               [ 8] 2199 	ld	h, (hl)
      0008C8 6F               [ 4] 2200 	ld	l, a
      0008C9 36 08            [12] 2201 	ld	(hl), #0x08
                           0008CB  2202 	C$EyeExec.c$238$4_0$153	= .
                                   2203 	.globl	C$EyeExec.c$238$4_0$153
                                   2204 ;C:\Users\sva13\OneDrive\ドキュメント\会社\課題\gbdk\Project\gb-test\source\exec\EyeExec.c:238: *eyeMode = MOVERIGHT;
      0008CB F8 04            [12] 2205 	ldhl	sp,	#4
      0008CD 2A               [ 8] 2206 	ld	a,	(hl+)
      0008CE 66               [ 8] 2207 	ld	h, (hl)
      0008CF 6F               [ 4] 2208 	ld	l, a
      0008D0 36 02            [12] 2209 	ld	(hl), #0x02
      0008D2                       2210 00129$:
                                   2211 ;C:\Users\sva13\OneDrive\ドキュメント\会社\課題\gbdk\Project\gb-test\source\exec\EyeExec.c:240: move_sprite(spriteNum+2,*eyeX, *eyeY);
      0008D2 F8 0B            [12] 2212 	ldhl	sp,#11
      0008D4 2A               [ 8] 2213 	ld	a, (hl+)
      0008D5 5F               [ 4] 2214 	ld	e, a
      0008D6 2A               [ 8] 2215 	ld	a, (hl+)
      0008D7 57               [ 4] 2216 	ld	d, a
      0008D8 1A               [ 8] 2217 	ld	a, (de)
      0008D9 47               [ 4] 2218 	ld	b, a
      0008DA 2A               [ 8] 2219 	ld	a, (hl+)
      0008DB 5F               [ 4] 2220 	ld	e, a
      0008DC 56               [ 8] 2221 	ld	d, (hl)
      0008DD 1A               [ 8] 2222 	ld	a, (de)
      0008DE 4F               [ 4] 2223 	ld	c, a
      0008DF F8 06            [12] 2224 	ldhl	sp,	#6
                                   2225 ;C:/Users/sva13/OneDrive/ドキュメント/会社/課題/gbdk/Resources/gbdk/include/gb/gb.h:1675: OAM_item_t * itm = &shadow_OAM[nb];
      0008E1 6E               [ 8] 2226 	ld	l, (hl)
                                   2227 ;	spillPairReg hl
                                   2228 ;	spillPairReg hl
      0008E2 26 00            [ 8] 2229 	ld	h, #0x00
                                   2230 ;	spillPairReg hl
                                   2231 ;	spillPairReg hl
      0008E4 29               [ 8] 2232 	add	hl, hl
      0008E5 29               [ 8] 2233 	add	hl, hl
      0008E6 11r00r00         [12] 2234 	ld	de, #_shadow_OAM
      0008E9 19               [ 8] 2235 	add	hl, de
                                   2236 ;C:/Users/sva13/OneDrive/ドキュメント/会社/課題/gbdk/Resources/gbdk/include/gb/gb.h:1676: itm->y=y, itm->x=x;
      0008EA 78               [ 4] 2237 	ld	a, b
      0008EB 22               [ 8] 2238 	ld	(hl+), a
      0008EC 71               [ 8] 2239 	ld	(hl), c
                                   2240 ;C:\Users\sva13\OneDrive\ドキュメント\会社\課題\gbdk\Project\gb-test\source\exec\EyeExec.c:241: move_sprite(spriteNum+3,*eyeX + 8, *eyeY);
      0008ED F8 0B            [12] 2241 	ldhl	sp,#11
      0008EF 2A               [ 8] 2242 	ld	a, (hl+)
      0008F0 5F               [ 4] 2243 	ld	e, a
      0008F1 2A               [ 8] 2244 	ld	a, (hl+)
      0008F2 57               [ 4] 2245 	ld	d, a
      0008F3 1A               [ 8] 2246 	ld	a, (de)
      0008F4 47               [ 4] 2247 	ld	b, a
      0008F5 2A               [ 8] 2248 	ld	a, (hl+)
      0008F6 5F               [ 4] 2249 	ld	e, a
      0008F7 56               [ 8] 2250 	ld	d, (hl)
      0008F8 1A               [ 8] 2251 	ld	a, (de)
      0008F9 C6 08            [ 8] 2252 	add	a, #0x08
      0008FB 4F               [ 4] 2253 	ld	c, a
      0008FC F8 0A            [12] 2254 	ldhl	sp,	#10
                                   2255 ;C:/Users/sva13/OneDrive/ドキュメント/会社/課題/gbdk/Resources/gbdk/include/gb/gb.h:1675: OAM_item_t * itm = &shadow_OAM[nb];
      0008FE 6E               [ 8] 2256 	ld	l, (hl)
                                   2257 ;	spillPairReg hl
                                   2258 ;	spillPairReg hl
      0008FF 26 00            [ 8] 2259 	ld	h, #0x00
                                   2260 ;	spillPairReg hl
                                   2261 ;	spillPairReg hl
      000901 29               [ 8] 2262 	add	hl, hl
      000902 29               [ 8] 2263 	add	hl, hl
      000903 11r00r00         [12] 2264 	ld	de, #_shadow_OAM
      000906 19               [ 8] 2265 	add	hl, de
                                   2266 ;C:/Users/sva13/OneDrive/ドキュメント/会社/課題/gbdk/Resources/gbdk/include/gb/gb.h:1676: itm->y=y, itm->x=x;
      000907 70               [ 8] 2267 	ld	(hl), b
      000908 23               [ 8] 2268 	inc	hl
      000909 71               [ 8] 2269 	ld	(hl), c
                           00090A  2270 	C$EyeExec.c$241$1_0$131	= .
                                   2271 	.globl	C$EyeExec.c$241$1_0$131
                                   2272 ;C:\Users\sva13\OneDrive\ドキュメント\会社\課題\gbdk\Project\gb-test\source\exec\EyeExec.c:241: move_sprite(spriteNum+3,*eyeX + 8, *eyeY);
      00090A C3rB1r0B         [16] 2273 	jp	00222$
      00090D                       2274 00167$:
                           00090D  2275 	C$EyeExec.c$244$1_0$131	= .
                                   2276 	.globl	C$EyeExec.c$244$1_0$131
                                   2277 ;C:\Users\sva13\OneDrive\ドキュメント\会社\課題\gbdk\Project\gb-test\source\exec\EyeExec.c:244: else if(*bkgX >= 56 && *bkgY >= 64){
      00090D F8 09            [12] 2278 	ldhl	sp,	#9
      00090F 4E               [ 8] 2279 	ld	c, (hl)
      000910 CB 41            [ 8] 2280 	bit	0, c
      000912 C2rEEr09         [16] 2281 	jp	NZ, 00163$
      000915 F8 02            [12] 2282 	ldhl	sp,#2
      000917 2A               [ 8] 2283 	ld	a, (hl+)
      000918 5F               [ 4] 2284 	ld	e, a
      000919 56               [ 8] 2285 	ld	d, (hl)
      00091A 1A               [ 8] 2286 	ld	a, (de)
      00091B D6 40            [ 8] 2287 	sub	a, #0x40
      00091D DArEEr09         [16] 2288 	jp	C, 00163$
                           000920  2289 	C$EyeExec.c$246$2_0$154	= .
                                   2290 	.globl	C$EyeExec.c$246$2_0$154
                                   2291 ;C:\Users\sva13\OneDrive\ドキュメント\会社\課題\gbdk\Project\gb-test\source\exec\EyeExec.c:246: uint8_t randNum1 = randGenetate(4);
      000920 3E 04            [ 8] 2292 	ld	a, #0x04
      000922 CDr24r00         [24] 2293 	call	_randGenetate
      000925 5F               [ 4] 2294 	ld	e, a
                           000926  2295 	C$EyeExec.c$247$2_0$154	= .
                                   2296 	.globl	C$EyeExec.c$247$2_0$154
                                   2297 ;C:\Users\sva13\OneDrive\ドキュメント\会社\課題\gbdk\Project\gb-test\source\exec\EyeExec.c:247: uint8_t randNum2 = randGenetate(8);
      000926 D5               [16] 2298 	push	de
      000927 3E 08            [ 8] 2299 	ld	a, #0x08
      000929 CDr24r00         [24] 2300 	call	_randGenetate
      00092C D1               [12] 2301 	pop	de
      00092D 4F               [ 4] 2302 	ld	c, a
                           00092E  2303 	C$EyeExec.c$248$2_0$154	= .
                                   2304 	.globl	C$EyeExec.c$248$2_0$154
                                   2305 ;C:\Users\sva13\OneDrive\ドキュメント\会社\課題\gbdk\Project\gb-test\source\exec\EyeExec.c:248: if(randNum1 >= 0 && randNum1 <= 1){
      00092E 3E 01            [ 8] 2306 	ld	a, #0x01
      000930 93               [ 4] 2307 	sub	a, e
      000931 38 64            [12] 2308 	jr	C, 00137$
                           000933  2309 	C$EyeExec.c$249$3_0$155	= .
                                   2310 	.globl	C$EyeExec.c$249$3_0$155
                                   2311 ;C:\Users\sva13\OneDrive\ドキュメント\会社\課題\gbdk\Project\gb-test\source\exec\EyeExec.c:249: *eyeX = (16 * (randNum2 + 1) + 8);
      000933 79               [ 4] 2312 	ld	a, c
      000934 3C               [ 4] 2313 	inc	a
      000935 CB 37            [ 8] 2314 	swap	a
      000937 E6 F0            [ 8] 2315 	and	a, #0xf0
      000939 C6 08            [ 8] 2316 	add	a, #0x08
      00093B 4F               [ 4] 2317 	ld	c, a
      00093C F8 0D            [12] 2318 	ldhl	sp,	#13
      00093E 2A               [ 8] 2319 	ld	a,	(hl+)
      00093F 66               [ 8] 2320 	ld	h, (hl)
      000940 6F               [ 4] 2321 	ld	l, a
      000941 71               [ 8] 2322 	ld	(hl), c
                           000942  2323 	C$EyeExec.c$250$3_0$155	= .
                                   2324 	.globl	C$EyeExec.c$250$3_0$155
                                   2325 ;C:\Users\sva13\OneDrive\ドキュメント\会社\課題\gbdk\Project\gb-test\source\exec\EyeExec.c:250: *eyeY = 0;
      000942 F8 0B            [12] 2326 	ldhl	sp,	#11
      000944 2A               [ 8] 2327 	ld	a,	(hl+)
      000945 66               [ 8] 2328 	ld	h, (hl)
      000946 6F               [ 4] 2329 	ld	l, a
      000947 36 00            [12] 2330 	ld	(hl), #0x00
                           000949  2331 	C$EyeExec.c$251$3_0$155	= .
                                   2332 	.globl	C$EyeExec.c$251$3_0$155
                                   2333 ;C:\Users\sva13\OneDrive\ドキュメント\会社\課題\gbdk\Project\gb-test\source\exec\EyeExec.c:251: *eyeMode = MOVEDOWN;
      000949 F8 04            [12] 2334 	ldhl	sp,	#4
      00094B 2A               [ 8] 2335 	ld	a,	(hl+)
      00094C 66               [ 8] 2336 	ld	h, (hl)
      00094D 6F               [ 4] 2337 	ld	l, a
      00094E 36 03            [12] 2338 	ld	(hl), #0x03
                                   2339 ;C:\Users\sva13\OneDrive\ドキュメント\会社\課題\gbdk\Project\gb-test\source\exec\EyeExec.c:252: move_sprite(spriteNum+2, *eyeX, *eyeY );
      000950 F8 0B            [12] 2340 	ldhl	sp,#11
      000952 2A               [ 8] 2341 	ld	a, (hl+)
      000953 5F               [ 4] 2342 	ld	e, a
      000954 2A               [ 8] 2343 	ld	a, (hl+)
      000955 57               [ 4] 2344 	ld	d, a
      000956 1A               [ 8] 2345 	ld	a, (de)
      000957 4F               [ 4] 2346 	ld	c, a
      000958 2A               [ 8] 2347 	ld	a, (hl+)
      000959 5F               [ 4] 2348 	ld	e, a
      00095A 56               [ 8] 2349 	ld	d, (hl)
      00095B 1A               [ 8] 2350 	ld	a, (de)
      00095C F8 09            [12] 2351 	ldhl	sp,	#9
      00095E 77               [ 8] 2352 	ld	(hl), a
      00095F F8 06            [12] 2353 	ldhl	sp,	#6
                                   2354 ;C:/Users/sva13/OneDrive/ドキュメント/会社/課題/gbdk/Resources/gbdk/include/gb/gb.h:1675: OAM_item_t * itm = &shadow_OAM[nb];
      000961 6E               [ 8] 2355 	ld	l, (hl)
                                   2356 ;	spillPairReg hl
                                   2357 ;	spillPairReg hl
      000962 26 00            [ 8] 2358 	ld	h, #0x00
                                   2359 ;	spillPairReg hl
                                   2360 ;	spillPairReg hl
      000964 29               [ 8] 2361 	add	hl, hl
      000965 29               [ 8] 2362 	add	hl, hl
      000966 11r00r00         [12] 2363 	ld	de, #_shadow_OAM
      000969 19               [ 8] 2364 	add	hl, de
                                   2365 ;C:/Users/sva13/OneDrive/ドキュメント/会社/課題/gbdk/Resources/gbdk/include/gb/gb.h:1676: itm->y=y, itm->x=x;
      00096A 79               [ 4] 2366 	ld	a, c
      00096B 22               [ 8] 2367 	ld	(hl+), a
      00096C 4D               [ 4] 2368 	ld	c, l
      00096D 44               [ 4] 2369 	ld	b, h
      00096E F8 09            [12] 2370 	ldhl	sp,	#9
      000970 7E               [ 8] 2371 	ld	a, (hl)
      000971 02               [ 8] 2372 	ld	(bc), a
                                   2373 ;C:\Users\sva13\OneDrive\ドキュメント\会社\課題\gbdk\Project\gb-test\source\exec\EyeExec.c:253: move_sprite(spriteNum+3, *eyeX + 8, *eyeY);
      000972 F8 0B            [12] 2374 	ldhl	sp,#11
      000974 2A               [ 8] 2375 	ld	a, (hl+)
      000975 5F               [ 4] 2376 	ld	e, a
      000976 2A               [ 8] 2377 	ld	a, (hl+)
      000977 57               [ 4] 2378 	ld	d, a
      000978 1A               [ 8] 2379 	ld	a, (de)
      000979 4F               [ 4] 2380 	ld	c, a
      00097A 2A               [ 8] 2381 	ld	a, (hl+)
      00097B 5F               [ 4] 2382 	ld	e, a
      00097C 56               [ 8] 2383 	ld	d, (hl)
      00097D 1A               [ 8] 2384 	ld	a, (de)
      00097E C6 08            [ 8] 2385 	add	a, #0x08
      000980 F8 09            [12] 2386 	ldhl	sp,	#9
      000982 22               [ 8] 2387 	ld	(hl+), a
                                   2388 ;C:/Users/sva13/OneDrive/ドキュメント/会社/課題/gbdk/Resources/gbdk/include/gb/gb.h:1675: OAM_item_t * itm = &shadow_OAM[nb];
      000983 6E               [ 8] 2389 	ld	l, (hl)
                                   2390 ;	spillPairReg hl
                                   2391 ;	spillPairReg hl
      000984 26 00            [ 8] 2392 	ld	h, #0x00
                                   2393 ;	spillPairReg hl
                                   2394 ;	spillPairReg hl
      000986 29               [ 8] 2395 	add	hl, hl
      000987 29               [ 8] 2396 	add	hl, hl
      000988 11r00r00         [12] 2397 	ld	de, #_shadow_OAM
      00098B 19               [ 8] 2398 	add	hl, de
                                   2399 ;C:/Users/sva13/OneDrive/ドキュメント/会社/課題/gbdk/Resources/gbdk/include/gb/gb.h:1676: itm->y=y, itm->x=x;
      00098C 79               [ 4] 2400 	ld	a, c
      00098D 22               [ 8] 2401 	ld	(hl+), a
      00098E 4D               [ 4] 2402 	ld	c, l
      00098F 44               [ 4] 2403 	ld	b, h
      000990 F8 09            [12] 2404 	ldhl	sp,	#9
      000992 7E               [ 8] 2405 	ld	a, (hl)
      000993 02               [ 8] 2406 	ld	(bc), a
                           000994  2407 	C$EyeExec.c$253$2_0$154	= .
                                   2408 	.globl	C$EyeExec.c$253$2_0$154
                                   2409 ;C:\Users\sva13\OneDrive\ドキュメント\会社\課題\gbdk\Project\gb-test\source\exec\EyeExec.c:253: move_sprite(spriteNum+3, *eyeX + 8, *eyeY);
      000994 C3rB1r0B         [16] 2410 	jp	00222$
      000997                       2411 00137$:
                           000997  2412 	C$EyeExec.c$257$3_0$156	= .
                                   2413 	.globl	C$EyeExec.c$257$3_0$156
                                   2414 ;C:\Users\sva13\OneDrive\ドキュメント\会社\課題\gbdk\Project\gb-test\source\exec\EyeExec.c:257: if(randNum1 == 7) return;
      000997 7B               [ 4] 2415 	ld	a, e
      000998 D6 07            [ 8] 2416 	sub	a, #0x07
      00099A CArB1r0B         [16] 2417 	jp	Z,00222$
                           00099D  2418 	C$EyeExec.c$258$3_0$156	= .
                                   2419 	.globl	C$EyeExec.c$258$3_0$156
                                   2420 ;C:\Users\sva13\OneDrive\ドキュメント\会社\課題\gbdk\Project\gb-test\source\exec\EyeExec.c:258: *eyeY = 16 * randNum2;
      00099D 79               [ 4] 2421 	ld	a, c
      00099E CB 37            [ 8] 2422 	swap	a
      0009A0 E6 F0            [ 8] 2423 	and	a, #0xf0
      0009A2 47               [ 4] 2424 	ld	b, a
      0009A3 F8 0B            [12] 2425 	ldhl	sp,	#11
      0009A5 2A               [ 8] 2426 	ld	a,	(hl+)
      0009A6 66               [ 8] 2427 	ld	h, (hl)
      0009A7 6F               [ 4] 2428 	ld	l, a
      0009A8 70               [ 8] 2429 	ld	(hl), b
                           0009A9  2430 	C$EyeExec.c$259$3_0$156	= .
                                   2431 	.globl	C$EyeExec.c$259$3_0$156
                                   2432 ;C:\Users\sva13\OneDrive\ドキュメント\会社\課題\gbdk\Project\gb-test\source\exec\EyeExec.c:259: *eyeX = 8;
      0009A9 F8 0D            [12] 2433 	ldhl	sp,	#13
      0009AB 2A               [ 8] 2434 	ld	a,	(hl+)
      0009AC 66               [ 8] 2435 	ld	h, (hl)
      0009AD 6F               [ 4] 2436 	ld	l, a
      0009AE 36 08            [12] 2437 	ld	(hl), #0x08
                           0009B0  2438 	C$EyeExec.c$260$3_0$156	= .
                                   2439 	.globl	C$EyeExec.c$260$3_0$156
                                   2440 ;C:\Users\sva13\OneDrive\ドキュメント\会社\課題\gbdk\Project\gb-test\source\exec\EyeExec.c:260: *eyeMode = MOVERIGHT;
      0009B0 F8 04            [12] 2441 	ldhl	sp,	#4
      0009B2 2A               [ 8] 2442 	ld	a,	(hl+)
      0009B3 66               [ 8] 2443 	ld	h, (hl)
      0009B4 6F               [ 4] 2444 	ld	l, a
      0009B5 36 02            [12] 2445 	ld	(hl), #0x02
                                   2446 ;C:\Users\sva13\OneDrive\ドキュメント\会社\課題\gbdk\Project\gb-test\source\exec\EyeExec.c:261: move_sprite(spriteNum+2,*eyeX, *eyeY);
      0009B7 48               [ 4] 2447 	ld	c, b
      0009B8 F8 0D            [12] 2448 	ldhl	sp,#13
      0009BA 2A               [ 8] 2449 	ld	a, (hl+)
      0009BB 5F               [ 4] 2450 	ld	e, a
      0009BC 56               [ 8] 2451 	ld	d, (hl)
      0009BD 1A               [ 8] 2452 	ld	a, (de)
      0009BE F8 09            [12] 2453 	ldhl	sp,	#9
      0009C0 77               [ 8] 2454 	ld	(hl), a
      0009C1 F8 06            [12] 2455 	ldhl	sp,	#6
                                   2456 ;C:/Users/sva13/OneDrive/ドキュメント/会社/課題/gbdk/Resources/gbdk/include/gb/gb.h:1675: OAM_item_t * itm = &shadow_OAM[nb];
      0009C3 6E               [ 8] 2457 	ld	l, (hl)
                                   2458 ;	spillPairReg hl
                                   2459 ;	spillPairReg hl
      0009C4 26 00            [ 8] 2460 	ld	h, #0x00
                                   2461 ;	spillPairReg hl
                                   2462 ;	spillPairReg hl
      0009C6 29               [ 8] 2463 	add	hl, hl
      0009C7 29               [ 8] 2464 	add	hl, hl
      0009C8 11r00r00         [12] 2465 	ld	de, #_shadow_OAM
      0009CB 19               [ 8] 2466 	add	hl, de
                                   2467 ;C:/Users/sva13/OneDrive/ドキュメント/会社/課題/gbdk/Resources/gbdk/include/gb/gb.h:1676: itm->y=y, itm->x=x;
      0009CC 79               [ 4] 2468 	ld	a, c
      0009CD 22               [ 8] 2469 	ld	(hl+), a
      0009CE 5D               [ 4] 2470 	ld	e, l
      0009CF 54               [ 4] 2471 	ld	d, h
      0009D0 F8 09            [12] 2472 	ldhl	sp,	#9
      0009D2 7E               [ 8] 2473 	ld	a, (hl)
      0009D3 12               [ 8] 2474 	ld	(de), a
                                   2475 ;C:\Users\sva13\OneDrive\ドキュメント\会社\課題\gbdk\Project\gb-test\source\exec\EyeExec.c:262: move_sprite(spriteNum+3,*eyeX + 8, *eyeY);
      0009D4 F8 0D            [12] 2476 	ldhl	sp,#13
      0009D6 2A               [ 8] 2477 	ld	a, (hl+)
      0009D7 5F               [ 4] 2478 	ld	e, a
      0009D8 56               [ 8] 2479 	ld	d, (hl)
      0009D9 1A               [ 8] 2480 	ld	a, (de)
      0009DA C6 08            [ 8] 2481 	add	a, #0x08
      0009DC 4F               [ 4] 2482 	ld	c, a
      0009DD F8 0A            [12] 2483 	ldhl	sp,	#10
                                   2484 ;C:/Users/sva13/OneDrive/ドキュメント/会社/課題/gbdk/Resources/gbdk/include/gb/gb.h:1675: OAM_item_t * itm = &shadow_OAM[nb];
      0009DF 6E               [ 8] 2485 	ld	l, (hl)
                                   2486 ;	spillPairReg hl
                                   2487 ;	spillPairReg hl
      0009E0 26 00            [ 8] 2488 	ld	h, #0x00
                                   2489 ;	spillPairReg hl
                                   2490 ;	spillPairReg hl
      0009E2 29               [ 8] 2491 	add	hl, hl
      0009E3 29               [ 8] 2492 	add	hl, hl
      0009E4 11r00r00         [12] 2493 	ld	de, #_shadow_OAM
      0009E7 19               [ 8] 2494 	add	hl, de
                                   2495 ;C:/Users/sva13/OneDrive/ドキュメント/会社/課題/gbdk/Resources/gbdk/include/gb/gb.h:1676: itm->y=y, itm->x=x;
      0009E8 70               [ 8] 2496 	ld	(hl), b
      0009E9 23               [ 8] 2497 	inc	hl
      0009EA 71               [ 8] 2498 	ld	(hl), c
                           0009EB  2499 	C$EyeExec.c$262$1_0$131	= .
                                   2500 	.globl	C$EyeExec.c$262$1_0$131
                                   2501 ;C:\Users\sva13\OneDrive\ドキュメント\会社\課題\gbdk\Project\gb-test\source\exec\EyeExec.c:262: move_sprite(spriteNum+3,*eyeX + 8, *eyeY);
      0009EB C3rB1r0B         [16] 2502 	jp	00222$
      0009EE                       2503 00163$:
                           0009EE  2504 	C$EyeExec.c$265$1_0$131	= .
                                   2505 	.globl	C$EyeExec.c$265$1_0$131
                                   2506 ;C:\Users\sva13\OneDrive\ドキュメント\会社\課題\gbdk\Project\gb-test\source\exec\EyeExec.c:265: else if(*bkgX >= 56 && *bkgY < 48){
      0009EE CB 41            [ 8] 2507 	bit	0, c
      0009F0 C2rD0r0A         [16] 2508 	jp	NZ, 00159$
      0009F3 F8 02            [12] 2509 	ldhl	sp,#2
      0009F5 2A               [ 8] 2510 	ld	a, (hl+)
      0009F6 5F               [ 4] 2511 	ld	e, a
      0009F7 56               [ 8] 2512 	ld	d, (hl)
      0009F8 1A               [ 8] 2513 	ld	a, (de)
      0009F9 D6 30            [ 8] 2514 	sub	a, #0x30
      0009FB D2rD0r0A         [16] 2515 	jp	NC, 00159$
                           0009FE  2516 	C$EyeExec.c$267$2_0$157	= .
                                   2517 	.globl	C$EyeExec.c$267$2_0$157
                                   2518 ;C:\Users\sva13\OneDrive\ドキュメント\会社\課題\gbdk\Project\gb-test\source\exec\EyeExec.c:267: uint8_t randNum1 = randGenetate(2);
      0009FE 3E 02            [ 8] 2519 	ld	a, #0x02
      000A00 CDr24r00         [24] 2520 	call	_randGenetate
      000A03 47               [ 4] 2521 	ld	b, a
                           000A04  2522 	C$EyeExec.c$268$2_0$157	= .
                                   2523 	.globl	C$EyeExec.c$268$2_0$157
                                   2524 ;C:\Users\sva13\OneDrive\ドキュメント\会社\課題\gbdk\Project\gb-test\source\exec\EyeExec.c:268: uint8_t randNum2 = randGenetate(8);
      000A04 C5               [16] 2525 	push	bc
      000A05 3E 08            [ 8] 2526 	ld	a, #0x08
      000A07 CDr24r00         [24] 2527 	call	_randGenetate
      000A0A C1               [12] 2528 	pop	bc
                           000A0B  2529 	C$EyeExec.c$129$1_0$131	= .
                                   2530 	.globl	C$EyeExec.c$129$1_0$131
                                   2531 ;C:\Users\sva13\OneDrive\ドキュメント\会社\課題\gbdk\Project\gb-test\source\exec\EyeExec.c:129: adjustCnt = adjustCnt + 1;
      000A0B 21r0Ar00         [12] 2532 	ld	hl, #_adjustCnt
      000A0E 4E               [ 8] 2533 	ld	c, (hl)
      000A0F 0C               [ 4] 2534 	inc	c
                           000A10  2535 	C$EyeExec.c$269$2_0$157	= .
                                   2536 	.globl	C$EyeExec.c$269$2_0$157
                                   2537 ;C:\Users\sva13\OneDrive\ドキュメント\会社\課題\gbdk\Project\gb-test\source\exec\EyeExec.c:269: if(randNum2 == 7){
      000A10 FE 07            [ 8] 2538 	cp	a, #0x07
      000A12 20 04            [12] 2539 	jr	NZ, 00141$
                           000A14  2540 	C$EyeExec.c$270$3_0$158	= .
                                   2541 	.globl	C$EyeExec.c$270$3_0$158
                                   2542 ;C:\Users\sva13\OneDrive\ドキュメント\会社\課題\gbdk\Project\gb-test\source\exec\EyeExec.c:270: adjustCnt = adjustCnt + 1;
      000A14 71               [ 8] 2543 	ld	(hl), c
                           000A15  2544 	C$EyeExec.c$271$3_0$158	= .
                                   2545 	.globl	C$EyeExec.c$271$3_0$158
                                   2546 ;C:\Users\sva13\OneDrive\ドキュメント\会社\課題\gbdk\Project\gb-test\source\exec\EyeExec.c:271: return;
      000A15 C3rB1r0B         [16] 2547 	jp	00222$
      000A18                       2548 00141$:
                           000A18  2549 	C$EyeExec.c$273$2_0$157	= .
                                   2550 	.globl	C$EyeExec.c$273$2_0$157
                                   2551 ;C:\Users\sva13\OneDrive\ドキュメント\会社\課題\gbdk\Project\gb-test\source\exec\EyeExec.c:273: if(randNum1 == 0){
      000A18 04               [ 4] 2552 	inc	b
      000A19 05               [ 4] 2553 	dec	b
      000A1A 20 5E            [12] 2554 	jr	NZ, 00145$
                           000A1C  2555 	C$EyeExec.c$275$3_0$159	= .
                                   2556 	.globl	C$EyeExec.c$275$3_0$159
                                   2557 ;C:\Users\sva13\OneDrive\ドキュメント\会社\課題\gbdk\Project\gb-test\source\exec\EyeExec.c:275: if(randNum2 < 2){
      000A1C FE 02            [ 8] 2558 	cp	a, #0x02
      000A1E 30 07            [12] 2559 	jr	NC, 00143$
                           000A20  2560 	C$EyeExec.c$276$4_0$160	= .
                                   2561 	.globl	C$EyeExec.c$276$4_0$160
                                   2562 ;C:\Users\sva13\OneDrive\ドキュメント\会社\課題\gbdk\Project\gb-test\source\exec\EyeExec.c:276: adjustCnt = adjustCnt + 1;
      000A20 21r0Ar00         [12] 2563 	ld	hl, #_adjustCnt
      000A23 71               [ 8] 2564 	ld	(hl), c
                           000A24  2565 	C$EyeExec.c$277$4_0$160	= .
                                   2566 	.globl	C$EyeExec.c$277$4_0$160
                                   2567 ;C:\Users\sva13\OneDrive\ドキュメント\会社\課題\gbdk\Project\gb-test\source\exec\EyeExec.c:277: return;
      000A24 C3rB1r0B         [16] 2568 	jp	00222$
      000A27                       2569 00143$:
                           000A27  2570 	C$EyeExec.c$279$3_0$159	= .
                                   2571 	.globl	C$EyeExec.c$279$3_0$159
                                   2572 ;C:\Users\sva13\OneDrive\ドキュメント\会社\課題\gbdk\Project\gb-test\source\exec\EyeExec.c:279: *eyeX = 8;
      000A27 F8 0D            [12] 2573 	ldhl	sp,	#13
      000A29 F5               [16] 2574 	push	af
      000A2A 2A               [ 8] 2575 	ld	a,	(hl+)
      000A2B 66               [ 8] 2576 	ld	h, (hl)
      000A2C 6F               [ 4] 2577 	ld	l, a
      000A2D F1               [12] 2578 	pop	af
      000A2E 36 08            [12] 2579 	ld	(hl), #0x08
                           000A30  2580 	C$EyeExec.c$280$3_0$159	= .
                                   2581 	.globl	C$EyeExec.c$280$3_0$159
                                   2582 ;C:\Users\sva13\OneDrive\ドキュメント\会社\課題\gbdk\Project\gb-test\source\exec\EyeExec.c:280: *eyeY = 16 * (randNum2 + 1);
      000A30 3C               [ 4] 2583 	inc	a
      000A31 CB 37            [ 8] 2584 	swap	a
      000A33 E6 F0            [ 8] 2585 	and	a, #0xf0
      000A35 47               [ 4] 2586 	ld	b, a
      000A36 F8 0B            [12] 2587 	ldhl	sp,	#11
      000A38 2A               [ 8] 2588 	ld	a,	(hl+)
      000A39 66               [ 8] 2589 	ld	h, (hl)
      000A3A 6F               [ 4] 2590 	ld	l, a
      000A3B 70               [ 8] 2591 	ld	(hl), b
                           000A3C  2592 	C$EyeExec.c$281$3_0$159	= .
                                   2593 	.globl	C$EyeExec.c$281$3_0$159
                                   2594 ;C:\Users\sva13\OneDrive\ドキュメント\会社\課題\gbdk\Project\gb-test\source\exec\EyeExec.c:281: *eyeMode = MOVERIGHT;
      000A3C F8 04            [12] 2595 	ldhl	sp,	#4
      000A3E 2A               [ 8] 2596 	ld	a,	(hl+)
      000A3F 66               [ 8] 2597 	ld	h, (hl)
      000A40 6F               [ 4] 2598 	ld	l, a
      000A41 36 02            [12] 2599 	ld	(hl), #0x02
                                   2600 ;C:\Users\sva13\OneDrive\ドキュメント\会社\課題\gbdk\Project\gb-test\source\exec\EyeExec.c:282: move_sprite(spriteNum+2,*eyeX, *eyeY);
      000A43 48               [ 4] 2601 	ld	c, b
      000A44 F8 0D            [12] 2602 	ldhl	sp,#13
      000A46 2A               [ 8] 2603 	ld	a, (hl+)
      000A47 5F               [ 4] 2604 	ld	e, a
      000A48 56               [ 8] 2605 	ld	d, (hl)
      000A49 1A               [ 8] 2606 	ld	a, (de)
      000A4A F8 09            [12] 2607 	ldhl	sp,	#9
      000A4C 77               [ 8] 2608 	ld	(hl), a
      000A4D F8 06            [12] 2609 	ldhl	sp,	#6
                                   2610 ;C:/Users/sva13/OneDrive/ドキュメント/会社/課題/gbdk/Resources/gbdk/include/gb/gb.h:1675: OAM_item_t * itm = &shadow_OAM[nb];
      000A4F 6E               [ 8] 2611 	ld	l, (hl)
                                   2612 ;	spillPairReg hl
                                   2613 ;	spillPairReg hl
      000A50 26 00            [ 8] 2614 	ld	h, #0x00
                                   2615 ;	spillPairReg hl
                                   2616 ;	spillPairReg hl
      000A52 29               [ 8] 2617 	add	hl, hl
      000A53 29               [ 8] 2618 	add	hl, hl
      000A54 11r00r00         [12] 2619 	ld	de, #_shadow_OAM
      000A57 19               [ 8] 2620 	add	hl, de
                                   2621 ;C:/Users/sva13/OneDrive/ドキュメント/会社/課題/gbdk/Resources/gbdk/include/gb/gb.h:1676: itm->y=y, itm->x=x;
      000A58 79               [ 4] 2622 	ld	a, c
      000A59 22               [ 8] 2623 	ld	(hl+), a
      000A5A 5D               [ 4] 2624 	ld	e, l
      000A5B 54               [ 4] 2625 	ld	d, h
      000A5C F8 09            [12] 2626 	ldhl	sp,	#9
      000A5E 7E               [ 8] 2627 	ld	a, (hl)
      000A5F 12               [ 8] 2628 	ld	(de), a
                                   2629 ;C:\Users\sva13\OneDrive\ドキュメント\会社\課題\gbdk\Project\gb-test\source\exec\EyeExec.c:283: move_sprite(spriteNum+3,*eyeX + 8, *eyeY);
      000A60 F8 0D            [12] 2630 	ldhl	sp,#13
      000A62 2A               [ 8] 2631 	ld	a, (hl+)
      000A63 5F               [ 4] 2632 	ld	e, a
      000A64 56               [ 8] 2633 	ld	d, (hl)
      000A65 1A               [ 8] 2634 	ld	a, (de)
      000A66 C6 08            [ 8] 2635 	add	a, #0x08
      000A68 4F               [ 4] 2636 	ld	c, a
      000A69 F8 0A            [12] 2637 	ldhl	sp,	#10
                                   2638 ;C:/Users/sva13/OneDrive/ドキュメント/会社/課題/gbdk/Resources/gbdk/include/gb/gb.h:1675: OAM_item_t * itm = &shadow_OAM[nb];
      000A6B 6E               [ 8] 2639 	ld	l, (hl)
                                   2640 ;	spillPairReg hl
                                   2641 ;	spillPairReg hl
      000A6C 26 00            [ 8] 2642 	ld	h, #0x00
                                   2643 ;	spillPairReg hl
                                   2644 ;	spillPairReg hl
      000A6E 29               [ 8] 2645 	add	hl, hl
      000A6F 29               [ 8] 2646 	add	hl, hl
      000A70 11r00r00         [12] 2647 	ld	de, #_shadow_OAM
      000A73 19               [ 8] 2648 	add	hl, de
                                   2649 ;C:/Users/sva13/OneDrive/ドキュメント/会社/課題/gbdk/Resources/gbdk/include/gb/gb.h:1676: itm->y=y, itm->x=x;
      000A74 70               [ 8] 2650 	ld	(hl), b
      000A75 23               [ 8] 2651 	inc	hl
      000A76 71               [ 8] 2652 	ld	(hl), c
                           000A77  2653 	C$EyeExec.c$283$2_0$157	= .
                                   2654 	.globl	C$EyeExec.c$283$2_0$157
                                   2655 ;C:\Users\sva13\OneDrive\ドキュメント\会社\課題\gbdk\Project\gb-test\source\exec\EyeExec.c:283: move_sprite(spriteNum+3,*eyeX + 8, *eyeY);
      000A77 C3rB1r0B         [16] 2656 	jp	00222$
      000A7A                       2657 00145$:
                           000A7A  2658 	C$EyeExec.c$287$3_0$161	= .
                                   2659 	.globl	C$EyeExec.c$287$3_0$161
                                   2660 ;C:\Users\sva13\OneDrive\ドキュメント\会社\課題\gbdk\Project\gb-test\source\exec\EyeExec.c:287: *eyeX = (16 * randNum2 + 8);
      000A7A CB 37            [ 8] 2661 	swap	a
      000A7C E6 F0            [ 8] 2662 	and	a, #0xf0
      000A7E C6 08            [ 8] 2663 	add	a, #0x08
      000A80 4F               [ 4] 2664 	ld	c, a
      000A81 F8 0D            [12] 2665 	ldhl	sp,	#13
      000A83 2A               [ 8] 2666 	ld	a,	(hl+)
      000A84 66               [ 8] 2667 	ld	h, (hl)
      000A85 6F               [ 4] 2668 	ld	l, a
      000A86 71               [ 8] 2669 	ld	(hl), c
                           000A87  2670 	C$EyeExec.c$288$3_0$161	= .
                                   2671 	.globl	C$EyeExec.c$288$3_0$161
                                   2672 ;C:\Users\sva13\OneDrive\ドキュメント\会社\課題\gbdk\Project\gb-test\source\exec\EyeExec.c:288: *eyeY = 144;
      000A87 F8 0B            [12] 2673 	ldhl	sp,	#11
      000A89 2A               [ 8] 2674 	ld	a,	(hl+)
      000A8A 66               [ 8] 2675 	ld	h, (hl)
      000A8B 6F               [ 4] 2676 	ld	l, a
      000A8C 36 90            [12] 2677 	ld	(hl), #0x90
                           000A8E  2678 	C$EyeExec.c$289$3_0$161	= .
                                   2679 	.globl	C$EyeExec.c$289$3_0$161
                                   2680 ;C:\Users\sva13\OneDrive\ドキュメント\会社\課題\gbdk\Project\gb-test\source\exec\EyeExec.c:289: *eyeMode = MOVEUP;
      000A8E F8 04            [12] 2681 	ldhl	sp,	#4
      000A90 2A               [ 8] 2682 	ld	a,	(hl+)
      000A91 66               [ 8] 2683 	ld	h, (hl)
      000A92 6F               [ 4] 2684 	ld	l, a
      000A93 36 01            [12] 2685 	ld	(hl), #0x01
                                   2686 ;C:\Users\sva13\OneDrive\ドキュメント\会社\課題\gbdk\Project\gb-test\source\exec\EyeExec.c:290: move_sprite(spriteNum+2, *eyeX, *eyeY );
      000A95 F8 0B            [12] 2687 	ldhl	sp,#11
      000A97 2A               [ 8] 2688 	ld	a, (hl+)
      000A98 5F               [ 4] 2689 	ld	e, a
      000A99 2A               [ 8] 2690 	ld	a, (hl+)
      000A9A 57               [ 4] 2691 	ld	d, a
      000A9B 1A               [ 8] 2692 	ld	a, (de)
      000A9C 47               [ 4] 2693 	ld	b, a
      000A9D 2A               [ 8] 2694 	ld	a, (hl+)
      000A9E 5F               [ 4] 2695 	ld	e, a
      000A9F 56               [ 8] 2696 	ld	d, (hl)
      000AA0 1A               [ 8] 2697 	ld	a, (de)
      000AA1 4F               [ 4] 2698 	ld	c, a
      000AA2 F8 06            [12] 2699 	ldhl	sp,	#6
                                   2700 ;C:/Users/sva13/OneDrive/ドキュメント/会社/課題/gbdk/Resources/gbdk/include/gb/gb.h:1675: OAM_item_t * itm = &shadow_OAM[nb];
      000AA4 6E               [ 8] 2701 	ld	l, (hl)
                                   2702 ;	spillPairReg hl
                                   2703 ;	spillPairReg hl
      000AA5 26 00            [ 8] 2704 	ld	h, #0x00
                                   2705 ;	spillPairReg hl
                                   2706 ;	spillPairReg hl
      000AA7 29               [ 8] 2707 	add	hl, hl
      000AA8 29               [ 8] 2708 	add	hl, hl
      000AA9 11r00r00         [12] 2709 	ld	de, #_shadow_OAM
      000AAC 19               [ 8] 2710 	add	hl, de
                                   2711 ;C:/Users/sva13/OneDrive/ドキュメント/会社/課題/gbdk/Resources/gbdk/include/gb/gb.h:1676: itm->y=y, itm->x=x;
      000AAD 78               [ 4] 2712 	ld	a, b
      000AAE 22               [ 8] 2713 	ld	(hl+), a
      000AAF 71               [ 8] 2714 	ld	(hl), c
                                   2715 ;C:\Users\sva13\OneDrive\ドキュメント\会社\課題\gbdk\Project\gb-test\source\exec\EyeExec.c:291: move_sprite(spriteNum+3, *eyeX + 8, *eyeY);
      000AB0 F8 0B            [12] 2716 	ldhl	sp,#11
      000AB2 2A               [ 8] 2717 	ld	a, (hl+)
      000AB3 5F               [ 4] 2718 	ld	e, a
      000AB4 2A               [ 8] 2719 	ld	a, (hl+)
      000AB5 57               [ 4] 2720 	ld	d, a
      000AB6 1A               [ 8] 2721 	ld	a, (de)
      000AB7 47               [ 4] 2722 	ld	b, a
      000AB8 2A               [ 8] 2723 	ld	a, (hl+)
      000AB9 5F               [ 4] 2724 	ld	e, a
      000ABA 56               [ 8] 2725 	ld	d, (hl)
      000ABB 1A               [ 8] 2726 	ld	a, (de)
      000ABC C6 08            [ 8] 2727 	add	a, #0x08
      000ABE 4F               [ 4] 2728 	ld	c, a
      000ABF F8 0A            [12] 2729 	ldhl	sp,	#10
                                   2730 ;C:/Users/sva13/OneDrive/ドキュメント/会社/課題/gbdk/Resources/gbdk/include/gb/gb.h:1675: OAM_item_t * itm = &shadow_OAM[nb];
      000AC1 6E               [ 8] 2731 	ld	l, (hl)
                                   2732 ;	spillPairReg hl
                                   2733 ;	spillPairReg hl
      000AC2 26 00            [ 8] 2734 	ld	h, #0x00
                                   2735 ;	spillPairReg hl
                                   2736 ;	spillPairReg hl
      000AC4 29               [ 8] 2737 	add	hl, hl
      000AC5 29               [ 8] 2738 	add	hl, hl
      000AC6 11r00r00         [12] 2739 	ld	de, #_shadow_OAM
      000AC9 19               [ 8] 2740 	add	hl, de
                                   2741 ;C:/Users/sva13/OneDrive/ドキュメント/会社/課題/gbdk/Resources/gbdk/include/gb/gb.h:1676: itm->y=y, itm->x=x;
      000ACA 70               [ 8] 2742 	ld	(hl), b
      000ACB 23               [ 8] 2743 	inc	hl
      000ACC 71               [ 8] 2744 	ld	(hl), c
                           000ACD  2745 	C$EyeExec.c$291$1_0$131	= .
                                   2746 	.globl	C$EyeExec.c$291$1_0$131
                                   2747 ;C:\Users\sva13\OneDrive\ドキュメント\会社\課題\gbdk\Project\gb-test\source\exec\EyeExec.c:291: move_sprite(spriteNum+3, *eyeX + 8, *eyeY);
      000ACD C3rB1r0B         [16] 2748 	jp	00222$
      000AD0                       2749 00159$:
                           000AD0  2750 	C$EyeExec.c$295$1_0$131	= .
                                   2751 	.globl	C$EyeExec.c$295$1_0$131
                                   2752 ;C:\Users\sva13\OneDrive\ドキュメント\会社\課題\gbdk\Project\gb-test\source\exec\EyeExec.c:295: else if(*bkgX >= 56 && (*bkgY >= 48 && *bkgY < 64)){
      000AD0 CB 41            [ 8] 2753 	bit	0, c
      000AD2 C2rB1r0B         [16] 2754 	jp	NZ, 00222$
      000AD5 F8 02            [12] 2755 	ldhl	sp,#2
      000AD7 2A               [ 8] 2756 	ld	a, (hl+)
      000AD8 5F               [ 4] 2757 	ld	e, a
      000AD9 56               [ 8] 2758 	ld	d, (hl)
      000ADA 1A               [ 8] 2759 	ld	a, (de)
      000ADB FE 30            [ 8] 2760 	cp	a, #0x30
      000ADD DArB1r0B         [16] 2761 	jp	C, 00222$
      000AE0 D6 40            [ 8] 2762 	sub	a, #0x40
      000AE2 D2rB1r0B         [16] 2763 	jp	NC, 00222$
                           000AE5  2764 	C$EyeExec.c$297$2_0$162	= .
                                   2765 	.globl	C$EyeExec.c$297$2_0$162
                                   2766 ;C:\Users\sva13\OneDrive\ドキュメント\会社\課題\gbdk\Project\gb-test\source\exec\EyeExec.c:297: uint8_t randNum1 = randGenetate(4);
      000AE5 3E 04            [ 8] 2767 	ld	a, #0x04
      000AE7 CDr24r00         [24] 2768 	call	_randGenetate
      000AEA 47               [ 4] 2769 	ld	b, a
                           000AEB  2770 	C$EyeExec.c$298$2_0$162	= .
                                   2771 	.globl	C$EyeExec.c$298$2_0$162
                                   2772 ;C:\Users\sva13\OneDrive\ドキュメント\会社\課題\gbdk\Project\gb-test\source\exec\EyeExec.c:298: uint8_t randNum2 = randGenetate(8);
      000AEB C5               [16] 2773 	push	bc
      000AEC 3E 08            [ 8] 2774 	ld	a, #0x08
      000AEE CDr24r00         [24] 2775 	call	_randGenetate
      000AF1 C1               [12] 2776 	pop	bc
      000AF2 4F               [ 4] 2777 	ld	c, a
                           000AF3  2778 	C$EyeExec.c$299$2_0$162	= .
                                   2779 	.globl	C$EyeExec.c$299$2_0$162
                                   2780 ;C:\Users\sva13\OneDrive\ドキュメント\会社\課題\gbdk\Project\gb-test\source\exec\EyeExec.c:299: if(randNum1 >= 0 && randNum1 <= 1){
      000AF3 3E 01            [ 8] 2781 	ld	a, #0x01
      000AF5 90               [ 4] 2782 	sub	a, b
      000AF6 38 6A            [12] 2783 	jr	C, 00151$
                           000AF8  2784 	C$EyeExec.c$300$3_0$163	= .
                                   2785 	.globl	C$EyeExec.c$300$3_0$163
                                   2786 ;C:\Users\sva13\OneDrive\ドキュメント\会社\課題\gbdk\Project\gb-test\source\exec\EyeExec.c:300: *eyeX = (16 * randNum2 + 8);
      000AF8 79               [ 4] 2787 	ld	a, c
      000AF9 CB 37            [ 8] 2788 	swap	a
      000AFB E6 F0            [ 8] 2789 	and	a, #0xf0
      000AFD C6 08            [ 8] 2790 	add	a, #0x08
      000AFF 4F               [ 4] 2791 	ld	c, a
      000B00 F8 0D            [12] 2792 	ldhl	sp,	#13
      000B02 2A               [ 8] 2793 	ld	a,	(hl+)
      000B03 66               [ 8] 2794 	ld	h, (hl)
      000B04 6F               [ 4] 2795 	ld	l, a
      000B05 71               [ 8] 2796 	ld	(hl), c
                           000B06  2797 	C$EyeExec.c$301$3_0$163	= .
                                   2798 	.globl	C$EyeExec.c$301$3_0$163
                                   2799 ;C:\Users\sva13\OneDrive\ドキュメント\会社\課題\gbdk\Project\gb-test\source\exec\EyeExec.c:301: if(randNum1 == 0){
      000B06 78               [ 4] 2800 	ld	a, b
      000B07 B7               [ 4] 2801 	or	a, a
      000B08 20 10            [12] 2802 	jr	NZ, 00148$
                           000B0A  2803 	C$EyeExec.c$303$4_0$164	= .
                                   2804 	.globl	C$EyeExec.c$303$4_0$164
                                   2805 ;C:\Users\sva13\OneDrive\ドキュメント\会社\課題\gbdk\Project\gb-test\source\exec\EyeExec.c:303: *eyeY = 0;
      000B0A F8 0B            [12] 2806 	ldhl	sp,	#11
      000B0C 2A               [ 8] 2807 	ld	a,	(hl+)
      000B0D 66               [ 8] 2808 	ld	h, (hl)
      000B0E 6F               [ 4] 2809 	ld	l, a
      000B0F 36 00            [12] 2810 	ld	(hl), #0x00
                           000B11  2811 	C$EyeExec.c$304$4_0$164	= .
                                   2812 	.globl	C$EyeExec.c$304$4_0$164
                                   2813 ;C:\Users\sva13\OneDrive\ドキュメント\会社\課題\gbdk\Project\gb-test\source\exec\EyeExec.c:304: *eyeMode = MOVEDOWN;
      000B11 F8 04            [12] 2814 	ldhl	sp,	#4
      000B13 2A               [ 8] 2815 	ld	a,	(hl+)
      000B14 66               [ 8] 2816 	ld	h, (hl)
      000B15 6F               [ 4] 2817 	ld	l, a
      000B16 36 03            [12] 2818 	ld	(hl), #0x03
      000B18 18 0E            [12] 2819 	jr	00149$
      000B1A                       2820 00148$:
                           000B1A  2821 	C$EyeExec.c$308$4_0$165	= .
                                   2822 	.globl	C$EyeExec.c$308$4_0$165
                                   2823 ;C:\Users\sva13\OneDrive\ドキュメント\会社\課題\gbdk\Project\gb-test\source\exec\EyeExec.c:308: *eyeY = 144;
      000B1A F8 0B            [12] 2824 	ldhl	sp,	#11
      000B1C 2A               [ 8] 2825 	ld	a,	(hl+)
      000B1D 66               [ 8] 2826 	ld	h, (hl)
      000B1E 6F               [ 4] 2827 	ld	l, a
      000B1F 36 90            [12] 2828 	ld	(hl), #0x90
                           000B21  2829 	C$EyeExec.c$309$4_0$165	= .
                                   2830 	.globl	C$EyeExec.c$309$4_0$165
                                   2831 ;C:\Users\sva13\OneDrive\ドキュメント\会社\課題\gbdk\Project\gb-test\source\exec\EyeExec.c:309: *eyeMode = MOVEUP;
      000B21 F8 04            [12] 2832 	ldhl	sp,	#4
      000B23 2A               [ 8] 2833 	ld	a,	(hl+)
      000B24 66               [ 8] 2834 	ld	h, (hl)
      000B25 6F               [ 4] 2835 	ld	l, a
      000B26 36 01            [12] 2836 	ld	(hl), #0x01
      000B28                       2837 00149$:
                                   2838 ;C:\Users\sva13\OneDrive\ドキュメント\会社\課題\gbdk\Project\gb-test\source\exec\EyeExec.c:311: move_sprite(spriteNum+2, *eyeX, *eyeY );
      000B28 F8 0B            [12] 2839 	ldhl	sp,#11
      000B2A 2A               [ 8] 2840 	ld	a, (hl+)
      000B2B 5F               [ 4] 2841 	ld	e, a
      000B2C 2A               [ 8] 2842 	ld	a, (hl+)
      000B2D 57               [ 4] 2843 	ld	d, a
      000B2E 1A               [ 8] 2844 	ld	a, (de)
      000B2F 47               [ 4] 2845 	ld	b, a
      000B30 2A               [ 8] 2846 	ld	a, (hl+)
      000B31 5F               [ 4] 2847 	ld	e, a
      000B32 56               [ 8] 2848 	ld	d, (hl)
      000B33 1A               [ 8] 2849 	ld	a, (de)
      000B34 4F               [ 4] 2850 	ld	c, a
      000B35 F8 06            [12] 2851 	ldhl	sp,	#6
                                   2852 ;C:/Users/sva13/OneDrive/ドキュメント/会社/課題/gbdk/Resources/gbdk/include/gb/gb.h:1675: OAM_item_t * itm = &shadow_OAM[nb];
      000B37 6E               [ 8] 2853 	ld	l, (hl)
                                   2854 ;	spillPairReg hl
                                   2855 ;	spillPairReg hl
      000B38 26 00            [ 8] 2856 	ld	h, #0x00
                                   2857 ;	spillPairReg hl
                                   2858 ;	spillPairReg hl
      000B3A 29               [ 8] 2859 	add	hl, hl
      000B3B 29               [ 8] 2860 	add	hl, hl
      000B3C 11r00r00         [12] 2861 	ld	de, #_shadow_OAM
      000B3F 19               [ 8] 2862 	add	hl, de
                                   2863 ;C:/Users/sva13/OneDrive/ドキュメント/会社/課題/gbdk/Resources/gbdk/include/gb/gb.h:1676: itm->y=y, itm->x=x;
      000B40 78               [ 4] 2864 	ld	a, b
      000B41 22               [ 8] 2865 	ld	(hl+), a
      000B42 71               [ 8] 2866 	ld	(hl), c
                                   2867 ;C:\Users\sva13\OneDrive\ドキュメント\会社\課題\gbdk\Project\gb-test\source\exec\EyeExec.c:312: move_sprite(spriteNum+3, *eyeX + 8, *eyeY);
      000B43 F8 0B            [12] 2868 	ldhl	sp,#11
      000B45 2A               [ 8] 2869 	ld	a, (hl+)
      000B46 5F               [ 4] 2870 	ld	e, a
      000B47 2A               [ 8] 2871 	ld	a, (hl+)
      000B48 57               [ 4] 2872 	ld	d, a
      000B49 1A               [ 8] 2873 	ld	a, (de)
      000B4A 47               [ 4] 2874 	ld	b, a
      000B4B 2A               [ 8] 2875 	ld	a, (hl+)
      000B4C 5F               [ 4] 2876 	ld	e, a
      000B4D 56               [ 8] 2877 	ld	d, (hl)
      000B4E 1A               [ 8] 2878 	ld	a, (de)
      000B4F C6 08            [ 8] 2879 	add	a, #0x08
      000B51 4F               [ 4] 2880 	ld	c, a
      000B52 F8 0A            [12] 2881 	ldhl	sp,	#10
                                   2882 ;C:/Users/sva13/OneDrive/ドキュメント/会社/課題/gbdk/Resources/gbdk/include/gb/gb.h:1675: OAM_item_t * itm = &shadow_OAM[nb];
      000B54 6E               [ 8] 2883 	ld	l, (hl)
                                   2884 ;	spillPairReg hl
                                   2885 ;	spillPairReg hl
      000B55 26 00            [ 8] 2886 	ld	h, #0x00
                                   2887 ;	spillPairReg hl
                                   2888 ;	spillPairReg hl
      000B57 29               [ 8] 2889 	add	hl, hl
      000B58 29               [ 8] 2890 	add	hl, hl
      000B59 11r00r00         [12] 2891 	ld	de, #_shadow_OAM
      000B5C 19               [ 8] 2892 	add	hl, de
                                   2893 ;C:/Users/sva13/OneDrive/ドキュメント/会社/課題/gbdk/Resources/gbdk/include/gb/gb.h:1676: itm->y=y, itm->x=x;
      000B5D 70               [ 8] 2894 	ld	(hl), b
      000B5E 23               [ 8] 2895 	inc	hl
      000B5F 71               [ 8] 2896 	ld	(hl), c
                           000B60  2897 	C$EyeExec.c$312$2_0$162	= .
                                   2898 	.globl	C$EyeExec.c$312$2_0$162
                                   2899 ;C:\Users\sva13\OneDrive\ドキュメント\会社\課題\gbdk\Project\gb-test\source\exec\EyeExec.c:312: move_sprite(spriteNum+3, *eyeX + 8, *eyeY);
      000B60 18 4F            [12] 2900 	jr	00222$
      000B62                       2901 00151$:
                           000B62  2902 	C$EyeExec.c$316$3_0$166	= .
                                   2903 	.globl	C$EyeExec.c$316$3_0$166
                                   2904 ;C:\Users\sva13\OneDrive\ドキュメント\会社\課題\gbdk\Project\gb-test\source\exec\EyeExec.c:316: *eyeX = 8;
      000B62 F8 0D            [12] 2905 	ldhl	sp,	#13
      000B64 2A               [ 8] 2906 	ld	a,	(hl+)
      000B65 66               [ 8] 2907 	ld	h, (hl)
      000B66 6F               [ 4] 2908 	ld	l, a
      000B67 36 08            [12] 2909 	ld	(hl), #0x08
                           000B69  2910 	C$EyeExec.c$317$3_0$166	= .
                                   2911 	.globl	C$EyeExec.c$317$3_0$166
                                   2912 ;C:\Users\sva13\OneDrive\ドキュメント\会社\課題\gbdk\Project\gb-test\source\exec\EyeExec.c:317: *eyeY = 16 * (randNum2 + 1);
      000B69 79               [ 4] 2913 	ld	a, c
      000B6A 3C               [ 4] 2914 	inc	a
      000B6B CB 37            [ 8] 2915 	swap	a
      000B6D E6 F0            [ 8] 2916 	and	a, #0xf0
      000B6F 47               [ 4] 2917 	ld	b, a
      000B70 F8 0B            [12] 2918 	ldhl	sp,	#11
      000B72 2A               [ 8] 2919 	ld	a,	(hl+)
      000B73 66               [ 8] 2920 	ld	h, (hl)
      000B74 6F               [ 4] 2921 	ld	l, a
      000B75 70               [ 8] 2922 	ld	(hl), b
                           000B76  2923 	C$EyeExec.c$318$3_0$166	= .
                                   2924 	.globl	C$EyeExec.c$318$3_0$166
                                   2925 ;C:\Users\sva13\OneDrive\ドキュメント\会社\課題\gbdk\Project\gb-test\source\exec\EyeExec.c:318: *eyeMode = MOVERIGHT;
      000B76 F8 04            [12] 2926 	ldhl	sp,	#4
      000B78 2A               [ 8] 2927 	ld	a,	(hl+)
      000B79 66               [ 8] 2928 	ld	h, (hl)
      000B7A 6F               [ 4] 2929 	ld	l, a
      000B7B 36 02            [12] 2930 	ld	(hl), #0x02
                                   2931 ;C:\Users\sva13\OneDrive\ドキュメント\会社\課題\gbdk\Project\gb-test\source\exec\EyeExec.c:319: move_sprite(spriteNum+2,*eyeX, *eyeY);
      000B7D 48               [ 4] 2932 	ld	c, b
      000B7E F8 0D            [12] 2933 	ldhl	sp,#13
      000B80 2A               [ 8] 2934 	ld	a, (hl+)
      000B81 5F               [ 4] 2935 	ld	e, a
      000B82 56               [ 8] 2936 	ld	d, (hl)
      000B83 1A               [ 8] 2937 	ld	a, (de)
      000B84 F8 09            [12] 2938 	ldhl	sp,	#9
      000B86 77               [ 8] 2939 	ld	(hl), a
      000B87 F8 06            [12] 2940 	ldhl	sp,	#6
                                   2941 ;C:/Users/sva13/OneDrive/ドキュメント/会社/課題/gbdk/Resources/gbdk/include/gb/gb.h:1675: OAM_item_t * itm = &shadow_OAM[nb];
      000B89 6E               [ 8] 2942 	ld	l, (hl)
                                   2943 ;	spillPairReg hl
                                   2944 ;	spillPairReg hl
      000B8A 26 00            [ 8] 2945 	ld	h, #0x00
                                   2946 ;	spillPairReg hl
                                   2947 ;	spillPairReg hl
      000B8C 29               [ 8] 2948 	add	hl, hl
      000B8D 29               [ 8] 2949 	add	hl, hl
      000B8E 11r00r00         [12] 2950 	ld	de, #_shadow_OAM
      000B91 19               [ 8] 2951 	add	hl, de
                                   2952 ;C:/Users/sva13/OneDrive/ドキュメント/会社/課題/gbdk/Resources/gbdk/include/gb/gb.h:1676: itm->y=y, itm->x=x;
      000B92 79               [ 4] 2953 	ld	a, c
      000B93 22               [ 8] 2954 	ld	(hl+), a
      000B94 5D               [ 4] 2955 	ld	e, l
      000B95 54               [ 4] 2956 	ld	d, h
      000B96 F8 09            [12] 2957 	ldhl	sp,	#9
      000B98 7E               [ 8] 2958 	ld	a, (hl)
      000B99 12               [ 8] 2959 	ld	(de), a
                                   2960 ;C:\Users\sva13\OneDrive\ドキュメント\会社\課題\gbdk\Project\gb-test\source\exec\EyeExec.c:320: move_sprite(spriteNum+3,*eyeX + 8, *eyeY);
      000B9A F8 0D            [12] 2961 	ldhl	sp,#13
      000B9C 2A               [ 8] 2962 	ld	a, (hl+)
      000B9D 5F               [ 4] 2963 	ld	e, a
      000B9E 56               [ 8] 2964 	ld	d, (hl)
      000B9F 1A               [ 8] 2965 	ld	a, (de)
      000BA0 C6 08            [ 8] 2966 	add	a, #0x08
      000BA2 4F               [ 4] 2967 	ld	c, a
      000BA3 F8 0A            [12] 2968 	ldhl	sp,	#10
                                   2969 ;C:/Users/sva13/OneDrive/ドキュメント/会社/課題/gbdk/Resources/gbdk/include/gb/gb.h:1675: OAM_item_t * itm = &shadow_OAM[nb];
      000BA5 6E               [ 8] 2970 	ld	l, (hl)
                                   2971 ;	spillPairReg hl
                                   2972 ;	spillPairReg hl
      000BA6 26 00            [ 8] 2973 	ld	h, #0x00
                                   2974 ;	spillPairReg hl
                                   2975 ;	spillPairReg hl
      000BA8 29               [ 8] 2976 	add	hl, hl
      000BA9 29               [ 8] 2977 	add	hl, hl
      000BAA 11r00r00         [12] 2978 	ld	de, #_shadow_OAM
      000BAD 19               [ 8] 2979 	add	hl, de
                                   2980 ;C:/Users/sva13/OneDrive/ドキュメント/会社/課題/gbdk/Resources/gbdk/include/gb/gb.h:1676: itm->y=y, itm->x=x;
      000BAE 70               [ 8] 2981 	ld	(hl), b
      000BAF 23               [ 8] 2982 	inc	hl
      000BB0 71               [ 8] 2983 	ld	(hl), c
                           000BB1  2984 	C$EyeExec.c$320$1_0$131	= .
                                   2985 	.globl	C$EyeExec.c$320$1_0$131
                                   2986 ;C:\Users\sva13\OneDrive\ドキュメント\会社\課題\gbdk\Project\gb-test\source\exec\EyeExec.c:320: move_sprite(spriteNum+3,*eyeX + 8, *eyeY);
      000BB1                       2987 00222$:
                           000BB1  2988 	C$EyeExec.c$323$1_0$131	= .
                                   2989 	.globl	C$EyeExec.c$323$1_0$131
                                   2990 ;C:\Users\sva13\OneDrive\ドキュメント\会社\課題\gbdk\Project\gb-test\source\exec\EyeExec.c:323: }
      000BB1 E8 0F            [16] 2991 	add	sp, #15
      000BB3 E1               [12] 2992 	pop	hl
      000BB4 E8 0F            [16] 2993 	add	sp, #15
      000BB6 E9               [ 4] 2994 	jp	(hl)
                           000BB7  2995 	G$ChangeDirection$0$0	= .
                                   2996 	.globl	G$ChangeDirection$0$0
                           000BB7  2997 	C$EyeExec.c$324$1_0$275	= .
                                   2998 	.globl	C$EyeExec.c$324$1_0$275
                                   2999 ;C:\Users\sva13\OneDrive\ドキュメント\会社\課題\gbdk\Project\gb-test\source\exec\EyeExec.c:324: uint8_t ChangeDirection(){
                                   3000 ;	---------------------------------
                                   3001 ; Function ChangeDirection
                                   3002 ; ---------------------------------
      000BB7                       3003 _ChangeDirection::
                           000BB7  3004 	C$EyeExec.c$326$1_0$275	= .
                                   3005 	.globl	C$EyeExec.c$326$1_0$275
                                   3006 ;C:\Users\sva13\OneDrive\ドキュメント\会社\課題\gbdk\Project\gb-test\source\exec\EyeExec.c:326: uint8_t randNum = randGenetate(4);
      000BB7 3E 04            [ 8] 3007 	ld	a, #0x04
      000BB9 CDr24r00         [24] 3008 	call	_randGenetate
                           000BBC  3009 	C$EyeExec.c$327$1_0$275	= .
                                   3010 	.globl	C$EyeExec.c$327$1_0$275
                                   3011 ;C:\Users\sva13\OneDrive\ドキュメント\会社\課題\gbdk\Project\gb-test\source\exec\EyeExec.c:327: if(randNum == 0){
      000BBC B7               [ 4] 3012 	or	a, a
      000BBD 20 03            [12] 3013 	jr	NZ, 00111$
                           000BBF  3014 	C$EyeExec.c$328$2_0$276	= .
                                   3015 	.globl	C$EyeExec.c$328$2_0$276
                                   3016 ;C:\Users\sva13\OneDrive\ドキュメント\会社\課題\gbdk\Project\gb-test\source\exec\EyeExec.c:328: return MOVEUP;
      000BBF 3E 01            [ 8] 3017 	ld	a, #0x01
      000BC1 C9               [16] 3018 	ret
      000BC2                       3019 00111$:
                           000BC2  3020 	C$EyeExec.c$330$1_0$275	= .
                                   3021 	.globl	C$EyeExec.c$330$1_0$275
                                   3022 ;C:\Users\sva13\OneDrive\ドキュメント\会社\課題\gbdk\Project\gb-test\source\exec\EyeExec.c:330: else if(randNum == 1){
      000BC2 FE 01            [ 8] 3023 	cp	a, #0x01
      000BC4 20 03            [12] 3024 	jr	NZ, 00108$
                           000BC6  3025 	C$EyeExec.c$331$2_0$277	= .
                                   3026 	.globl	C$EyeExec.c$331$2_0$277
                                   3027 ;C:\Users\sva13\OneDrive\ドキュメント\会社\課題\gbdk\Project\gb-test\source\exec\EyeExec.c:331: return MOVERIGHT;
      000BC6 3E 02            [ 8] 3028 	ld	a, #0x02
      000BC8 C9               [16] 3029 	ret
      000BC9                       3030 00108$:
                           000BC9  3031 	C$EyeExec.c$333$1_0$275	= .
                                   3032 	.globl	C$EyeExec.c$333$1_0$275
                                   3033 ;C:\Users\sva13\OneDrive\ドキュメント\会社\課題\gbdk\Project\gb-test\source\exec\EyeExec.c:333: else if(randNum == 2){
      000BC9 FE 02            [ 8] 3034 	cp	a, #0x02
      000BCB 20 03            [12] 3035 	jr	NZ, 00105$
                           000BCD  3036 	C$EyeExec.c$334$2_0$278	= .
                                   3037 	.globl	C$EyeExec.c$334$2_0$278
                                   3038 ;C:\Users\sva13\OneDrive\ドキュメント\会社\課題\gbdk\Project\gb-test\source\exec\EyeExec.c:334: return MOVEDOWN;
      000BCD 3E 03            [ 8] 3039 	ld	a, #0x03
      000BCF C9               [16] 3040 	ret
      000BD0                       3041 00105$:
                           000BD0  3042 	C$EyeExec.c$336$1_0$275	= .
                                   3043 	.globl	C$EyeExec.c$336$1_0$275
                                   3044 ;C:\Users\sva13\OneDrive\ドキュメント\会社\課題\gbdk\Project\gb-test\source\exec\EyeExec.c:336: else if(randNum == 3){
      000BD0 D6 03            [ 8] 3045 	sub	a, #0x03
                           000BD2  3046 	C$EyeExec.c$337$2_0$279	= .
                                   3047 	.globl	C$EyeExec.c$337$2_0$279
                                   3048 ;C:\Users\sva13\OneDrive\ドキュメント\会社\課題\gbdk\Project\gb-test\source\exec\EyeExec.c:337: return MOVELEFT;
                           000BD2  3049 	C$EyeExec.c$340$2_0$280	= .
                                   3050 	.globl	C$EyeExec.c$340$2_0$280
                                   3051 ;C:\Users\sva13\OneDrive\ドキュメント\会社\課題\gbdk\Project\gb-test\source\exec\EyeExec.c:340: return MOVELEFT;
      000BD2 3E 04            [ 8] 3052 	ld	a, #0x04
      000BD4 C8               [20] 3053 	ret	Z
      000BD5 3E 04            [ 8] 3054 	ld	a, #0x04
                           000BD7  3055 	C$EyeExec.c$342$1_0$275	= .
                                   3056 	.globl	C$EyeExec.c$342$1_0$275
                                   3057 ;C:\Users\sva13\OneDrive\ドキュメント\会社\課題\gbdk\Project\gb-test\source\exec\EyeExec.c:342: }
                           000BD7  3058 	C$EyeExec.c$342$1_0$275	= .
                                   3059 	.globl	C$EyeExec.c$342$1_0$275
                           000BD7  3060 	XG$ChangeDirection$0$0	= .
                                   3061 	.globl	XG$ChangeDirection$0$0
      000BD7 C9               [16] 3062 	ret
                           000BD8  3063 	G$EyeModeChange$0$0	= .
                                   3064 	.globl	G$EyeModeChange$0$0
                           000BD8  3065 	C$EyeExec.c$344$1_0$282	= .
                                   3066 	.globl	C$EyeExec.c$344$1_0$282
                                   3067 ;C:\Users\sva13\OneDrive\ドキュメント\会社\課題\gbdk\Project\gb-test\source\exec\EyeExec.c:344: void EyeModeChange(uint8_t *eyeMode){
                                   3068 ;	---------------------------------
                                   3069 ; Function EyeModeChange
                                   3070 ; ---------------------------------
      000BD8                       3071 _EyeModeChange::
      000BD8 6B               [ 4] 3072 	ld	l, e
                                   3073 ;	spillPairReg hl
                                   3074 ;	spillPairReg hl
      000BD9 62               [ 4] 3075 	ld	h, d
                                   3076 ;	spillPairReg hl
                                   3077 ;	spillPairReg hl
                           000BDA  3078 	C$EyeExec.c$347$1_0$282	= .
                                   3079 	.globl	C$EyeExec.c$347$1_0$282
                                   3080 ;C:\Users\sva13\OneDrive\ドキュメント\会社\課題\gbdk\Project\gb-test\source\exec\EyeExec.c:347: if(*eyeMode == NOACTION){
      000BDA 4E               [ 8] 3081 	ld	c, (hl)
      000BDB 79               [ 4] 3082 	ld	a, c
      000BDC B7               [ 4] 3083 	or	a, a
      000BDD C8               [20] 3084 	ret	Z
                           000BDE  3085 	C$EyeExec.c$350$1_0$282	= .
                                   3086 	.globl	C$EyeExec.c$350$1_0$282
                                   3087 ;C:\Users\sva13\OneDrive\ドキュメント\会社\課題\gbdk\Project\gb-test\source\exec\EyeExec.c:350: else if(*eyeMode >= MOVEUP && *eyeMode <= MOVELEFT){
      000BDE 79               [ 4] 3088 	ld	a, c
      000BDF D6 01            [ 8] 3089 	sub	a, #0x01
      000BE1 38 35            [12] 3090 	jr	C, 00189$
      000BE3 3E 04            [ 8] 3091 	ld	a, #0x04
      000BE5 91               [ 4] 3092 	sub	a, c
      000BE6 38 30            [12] 3093 	jr	C, 00189$
                           000BE8  3094 	C$EyeExec.c$351$2_0$284	= .
                                   3095 	.globl	C$EyeExec.c$351$2_0$284
                                   3096 ;C:\Users\sva13\OneDrive\ドキュメント\会社\課題\gbdk\Project\gb-test\source\exec\EyeExec.c:351: uint8_t randNum = randGenetate(8);
      000BE8 E5               [16] 3097 	push	hl
      000BE9 3E 08            [ 8] 3098 	ld	a, #0x08
      000BEB CDr24r00         [24] 3099 	call	_randGenetate
      000BEE E1               [12] 3100 	pop	hl
                           000BEF  3101 	C$EyeExec.c$352$2_0$284	= .
                                   3102 	.globl	C$EyeExec.c$352$2_0$284
                                   3103 ;C:\Users\sva13\OneDrive\ドキュメント\会社\課題\gbdk\Project\gb-test\source\exec\EyeExec.c:352: if(randNum == 6){
      000BEF FE 06            [ 8] 3104 	cp	a, #0x06
      000BF1 20 07            [12] 3105 	jr	NZ, 00112$
                           000BF3  3106 	C$EyeExec.c$353$3_0$285	= .
                                   3107 	.globl	C$EyeExec.c$353$3_0$285
                                   3108 ;C:\Users\sva13\OneDrive\ドキュメント\会社\課題\gbdk\Project\gb-test\source\exec\EyeExec.c:353: *eyeMode = ChangeDirection();
      000BF3 E5               [16] 3109 	push	hl
      000BF4 CDrB7r0B         [24] 3110 	call	_ChangeDirection
      000BF7 E1               [12] 3111 	pop	hl
      000BF8 77               [ 8] 3112 	ld	(hl), a
      000BF9 C9               [16] 3113 	ret
      000BFA                       3114 00112$:
                           000BFA  3115 	C$EyeExec.c$355$2_0$284	= .
                                   3116 	.globl	C$EyeExec.c$355$2_0$284
                                   3117 ;C:\Users\sva13\OneDrive\ドキュメント\会社\課題\gbdk\Project\gb-test\source\exec\EyeExec.c:355: else if(randNum == 7){
      000BFA D6 07            [ 8] 3118 	sub	a, #0x07
      000BFC C0               [20] 3119 	ret	NZ
                           000BFD  3120 	C$EyeExec.c$356$3_0$286	= .
                                   3121 	.globl	C$EyeExec.c$356$3_0$286
                                   3122 ;C:\Users\sva13\OneDrive\ドキュメント\会社\課題\gbdk\Project\gb-test\source\exec\EyeExec.c:356: if(*eyeMode == MOVEUP) *eyeMode = FLOATUP;
      000BFD 7E               [ 8] 3123 	ld	a, (hl)
      000BFE 3D               [ 4] 3124 	dec	a
      000BFF 20 02            [12] 3125 	jr	NZ, 00102$
      000C01 36 05            [12] 3126 	ld	(hl), #0x05
      000C03                       3127 00102$:
                           000C03  3128 	C$EyeExec.c$357$3_0$286	= .
                                   3129 	.globl	C$EyeExec.c$357$3_0$286
                                   3130 ;C:\Users\sva13\OneDrive\ドキュメント\会社\課題\gbdk\Project\gb-test\source\exec\EyeExec.c:357: if(*eyeMode == MOVERIGHT) *eyeMode = FLOATRIGHT;
      000C03 7E               [ 8] 3131 	ld	a, (hl)
      000C04 D6 02            [ 8] 3132 	sub	a, #0x02
      000C06 20 02            [12] 3133 	jr	NZ, 00104$
      000C08 36 06            [12] 3134 	ld	(hl), #0x06
      000C0A                       3135 00104$:
                           000C0A  3136 	C$EyeExec.c$358$3_0$286	= .
                                   3137 	.globl	C$EyeExec.c$358$3_0$286
                                   3138 ;C:\Users\sva13\OneDrive\ドキュメント\会社\課題\gbdk\Project\gb-test\source\exec\EyeExec.c:358: if(*eyeMode == MOVEDOWN) *eyeMode = FLOATDOWN;
      000C0A 7E               [ 8] 3139 	ld	a, (hl)
      000C0B D6 03            [ 8] 3140 	sub	a, #0x03
      000C0D 20 02            [12] 3141 	jr	NZ, 00106$
      000C0F 36 07            [12] 3142 	ld	(hl), #0x07
      000C11                       3143 00106$:
                           000C11  3144 	C$EyeExec.c$359$3_0$286	= .
                                   3145 	.globl	C$EyeExec.c$359$3_0$286
                                   3146 ;C:\Users\sva13\OneDrive\ドキュメント\会社\課題\gbdk\Project\gb-test\source\exec\EyeExec.c:359: if(*eyeMode == MOVELEFT) *eyeMode = FLOATLEFT; 
      000C11 7E               [ 8] 3147 	ld	a, (hl)
      000C12 D6 04            [ 8] 3148 	sub	a, #0x04
      000C14 C0               [20] 3149 	ret	NZ
      000C15 36 08            [12] 3150 	ld	(hl), #0x08
      000C17 C9               [16] 3151 	ret
      000C18                       3152 00189$:
                           000C18  3153 	C$EyeExec.c$362$1_0$282	= .
                                   3154 	.globl	C$EyeExec.c$362$1_0$282
                                   3155 ;C:\Users\sva13\OneDrive\ドキュメント\会社\課題\gbdk\Project\gb-test\source\exec\EyeExec.c:362: else if(*eyeMode >= FLOATUP && *eyeMode <= FLOATLEFT){
      000C18 79               [ 4] 3156 	ld	a, c
      000C19 D6 05            [ 8] 3157 	sub	a, #0x05
      000C1B 38 4D            [12] 3158 	jr	C, 00185$
      000C1D 3E 08            [ 8] 3159 	ld	a, #0x08
      000C1F 91               [ 4] 3160 	sub	a, c
      000C20 38 48            [12] 3161 	jr	C, 00185$
                           000C22  3162 	C$EyeExec.c$363$2_0$287	= .
                                   3163 	.globl	C$EyeExec.c$363$2_0$287
                                   3164 ;C:\Users\sva13\OneDrive\ドキュメント\会社\課題\gbdk\Project\gb-test\source\exec\EyeExec.c:363: uint8_t randNum = randGenetate(2);
      000C22 E5               [16] 3165 	push	hl
      000C23 3E 02            [ 8] 3166 	ld	a, #0x02
      000C25 CDr24r00         [24] 3167 	call	_randGenetate
      000C28 4F               [ 4] 3168 	ld	c, a
      000C29 E1               [12] 3169 	pop	hl
                           000C2A  3170 	C$EyeExec.c$347$1_0$282	= .
                                   3171 	.globl	C$EyeExec.c$347$1_0$282
                                   3172 ;C:\Users\sva13\OneDrive\ドキュメント\会社\課題\gbdk\Project\gb-test\source\exec\EyeExec.c:347: if(*eyeMode == NOACTION){
      000C2A 7E               [ 8] 3173 	ld	a, (hl)
                           000C2B  3174 	C$EyeExec.c$365$1_0$282	= .
                                   3175 	.globl	C$EyeExec.c$365$1_0$282
                                   3176 ;C:\Users\sva13\OneDrive\ドキュメント\会社\課題\gbdk\Project\gb-test\source\exec\EyeExec.c:365: if(*eyeMode == FLOATUP) *eyeMode = UP;
      000C2B D6 05            [ 8] 3177 	sub	a, #0x05
      000C2D 3E 01            [ 8] 3178 	ld	a, #0x01
      000C2F 28 01            [12] 3179 	jr	Z, 00435$
      000C31 AF               [ 4] 3180 	xor	a, a
      000C32                       3181 00435$:
                           000C32  3182 	C$EyeExec.c$364$2_0$287	= .
                                   3183 	.globl	C$EyeExec.c$364$2_0$287
                                   3184 ;C:\Users\sva13\OneDrive\ドキュメント\会社\課題\gbdk\Project\gb-test\source\exec\EyeExec.c:364: if(randNum == 0){
      000C32 0C               [ 4] 3185 	inc	c
      000C33 0D               [ 4] 3186 	dec	c
      000C34 20 1A            [12] 3187 	jr	NZ, 00131$
                           000C36  3188 	C$EyeExec.c$365$3_0$288	= .
                                   3189 	.globl	C$EyeExec.c$365$3_0$288
                                   3190 ;C:\Users\sva13\OneDrive\ドキュメント\会社\課題\gbdk\Project\gb-test\source\exec\EyeExec.c:365: if(*eyeMode == FLOATUP) *eyeMode = UP;
      000C36 B7               [ 4] 3191 	or	a, a
      000C37 28 02            [12] 3192 	jr	Z, 00115$
      000C39 36 09            [12] 3193 	ld	(hl), #0x09
      000C3B                       3194 00115$:
                           000C3B  3195 	C$EyeExec.c$366$3_0$288	= .
                                   3196 	.globl	C$EyeExec.c$366$3_0$288
                                   3197 ;C:\Users\sva13\OneDrive\ドキュメント\会社\課題\gbdk\Project\gb-test\source\exec\EyeExec.c:366: if(*eyeMode == FLOATRIGHT) *eyeMode = RIGHT;
      000C3B 7E               [ 8] 3198 	ld	a, (hl)
      000C3C D6 06            [ 8] 3199 	sub	a, #0x06
      000C3E 20 02            [12] 3200 	jr	NZ, 00117$
      000C40 36 0A            [12] 3201 	ld	(hl), #0x0a
      000C42                       3202 00117$:
                           000C42  3203 	C$EyeExec.c$367$3_0$288	= .
                                   3204 	.globl	C$EyeExec.c$367$3_0$288
                                   3205 ;C:\Users\sva13\OneDrive\ドキュメント\会社\課題\gbdk\Project\gb-test\source\exec\EyeExec.c:367: if(*eyeMode == FLOATDOWN) *eyeMode = DOWN;
      000C42 7E               [ 8] 3206 	ld	a, (hl)
      000C43 D6 07            [ 8] 3207 	sub	a, #0x07
      000C45 20 02            [12] 3208 	jr	NZ, 00119$
      000C47 36 0B            [12] 3209 	ld	(hl), #0x0b
      000C49                       3210 00119$:
                           000C49  3211 	C$EyeExec.c$368$3_0$288	= .
                                   3212 	.globl	C$EyeExec.c$368$3_0$288
                                   3213 ;C:\Users\sva13\OneDrive\ドキュメント\会社\課題\gbdk\Project\gb-test\source\exec\EyeExec.c:368: if(*eyeMode == FLOATLEFT) *eyeMode = LEFT;            
      000C49 7E               [ 8] 3214 	ld	a, (hl)
      000C4A D6 08            [ 8] 3215 	sub	a, #0x08
      000C4C C0               [20] 3216 	ret	NZ
      000C4D 36 0C            [12] 3217 	ld	(hl), #0x0c
      000C4F C9               [16] 3218 	ret
      000C50                       3219 00131$:
                           000C50  3220 	C$EyeExec.c$371$3_0$289	= .
                                   3221 	.globl	C$EyeExec.c$371$3_0$289
                                   3222 ;C:\Users\sva13\OneDrive\ドキュメント\会社\課題\gbdk\Project\gb-test\source\exec\EyeExec.c:371: if(*eyeMode == FLOATUP) *eyeMode = SHOTUP;
      000C50 B7               [ 4] 3223 	or	a, a
      000C51 28 02            [12] 3224 	jr	Z, 00123$
      000C53 36 11            [12] 3225 	ld	(hl), #0x11
      000C55                       3226 00123$:
                           000C55  3227 	C$EyeExec.c$372$3_0$289	= .
                                   3228 	.globl	C$EyeExec.c$372$3_0$289
                                   3229 ;C:\Users\sva13\OneDrive\ドキュメント\会社\課題\gbdk\Project\gb-test\source\exec\EyeExec.c:372: if(*eyeMode == FLOATRIGHT) *eyeMode = SHOTRIGHT;
      000C55 7E               [ 8] 3230 	ld	a, (hl)
      000C56 D6 06            [ 8] 3231 	sub	a, #0x06
      000C58 20 02            [12] 3232 	jr	NZ, 00125$
      000C5A 36 12            [12] 3233 	ld	(hl), #0x12
      000C5C                       3234 00125$:
                           000C5C  3235 	C$EyeExec.c$373$3_0$289	= .
                                   3236 	.globl	C$EyeExec.c$373$3_0$289
                                   3237 ;C:\Users\sva13\OneDrive\ドキュメント\会社\課題\gbdk\Project\gb-test\source\exec\EyeExec.c:373: if(*eyeMode == FLOATDOWN) *eyeMode = SHOTDOWN;
      000C5C 7E               [ 8] 3238 	ld	a, (hl)
      000C5D D6 07            [ 8] 3239 	sub	a, #0x07
      000C5F 20 02            [12] 3240 	jr	NZ, 00127$
      000C61 36 13            [12] 3241 	ld	(hl), #0x13
      000C63                       3242 00127$:
                           000C63  3243 	C$EyeExec.c$374$3_0$289	= .
                                   3244 	.globl	C$EyeExec.c$374$3_0$289
                                   3245 ;C:\Users\sva13\OneDrive\ドキュメント\会社\課題\gbdk\Project\gb-test\source\exec\EyeExec.c:374: if(*eyeMode == FLOATLEFT) *eyeMode = SHOTLEFT;    
      000C63 7E               [ 8] 3246 	ld	a, (hl)
      000C64 D6 08            [ 8] 3247 	sub	a, #0x08
      000C66 C0               [20] 3248 	ret	NZ
      000C67 36 14            [12] 3249 	ld	(hl), #0x14
      000C69 C9               [16] 3250 	ret
      000C6A                       3251 00185$:
                           000C6A  3252 	C$EyeExec.c$377$1_0$282	= .
                                   3253 	.globl	C$EyeExec.c$377$1_0$282
                                   3254 ;C:\Users\sva13\OneDrive\ドキュメント\会社\課題\gbdk\Project\gb-test\source\exec\EyeExec.c:377: else if(*eyeMode >= UP && *eyeMode <= LEFT){
      000C6A 79               [ 4] 3255 	ld	a, c
      000C6B D6 09            [ 8] 3256 	sub	a, #0x09
      000C6D 38 4D            [12] 3257 	jr	C, 00181$
      000C6F 3E 0C            [ 8] 3258 	ld	a, #0x0c
      000C71 91               [ 4] 3259 	sub	a, c
      000C72 38 48            [12] 3260 	jr	C, 00181$
                           000C74  3261 	C$EyeExec.c$378$2_0$290	= .
                                   3262 	.globl	C$EyeExec.c$378$2_0$290
                                   3263 ;C:\Users\sva13\OneDrive\ドキュメント\会社\課題\gbdk\Project\gb-test\source\exec\EyeExec.c:378: uint8_t randNum = randGenetate(2);
      000C74 E5               [16] 3264 	push	hl
      000C75 3E 02            [ 8] 3265 	ld	a, #0x02
      000C77 CDr24r00         [24] 3266 	call	_randGenetate
      000C7A 4F               [ 4] 3267 	ld	c, a
      000C7B E1               [12] 3268 	pop	hl
                           000C7C  3269 	C$EyeExec.c$347$1_0$282	= .
                                   3270 	.globl	C$EyeExec.c$347$1_0$282
                                   3271 ;C:\Users\sva13\OneDrive\ドキュメント\会社\課題\gbdk\Project\gb-test\source\exec\EyeExec.c:347: if(*eyeMode == NOACTION){
      000C7C 7E               [ 8] 3272 	ld	a, (hl)
                           000C7D  3273 	C$EyeExec.c$380$1_0$282	= .
                                   3274 	.globl	C$EyeExec.c$380$1_0$282
                                   3275 ;C:\Users\sva13\OneDrive\ドキュメント\会社\課題\gbdk\Project\gb-test\source\exec\EyeExec.c:380: if(*eyeMode == UP) *eyeMode = SINKUP;
      000C7D D6 09            [ 8] 3276 	sub	a, #0x09
      000C7F 3E 01            [ 8] 3277 	ld	a, #0x01
      000C81 28 01            [12] 3278 	jr	Z, 00449$
      000C83 AF               [ 4] 3279 	xor	a, a
      000C84                       3280 00449$:
                           000C84  3281 	C$EyeExec.c$379$2_0$290	= .
                                   3282 	.globl	C$EyeExec.c$379$2_0$290
                                   3283 ;C:\Users\sva13\OneDrive\ドキュメント\会社\課題\gbdk\Project\gb-test\source\exec\EyeExec.c:379: if(randNum == 0){
      000C84 0C               [ 4] 3284 	inc	c
      000C85 0D               [ 4] 3285 	dec	c
      000C86 20 1A            [12] 3286 	jr	NZ, 00150$
                           000C88  3287 	C$EyeExec.c$380$3_0$291	= .
                                   3288 	.globl	C$EyeExec.c$380$3_0$291
                                   3289 ;C:\Users\sva13\OneDrive\ドキュメント\会社\課題\gbdk\Project\gb-test\source\exec\EyeExec.c:380: if(*eyeMode == UP) *eyeMode = SINKUP;
      000C88 B7               [ 4] 3290 	or	a, a
      000C89 28 02            [12] 3291 	jr	Z, 00134$
      000C8B 36 0D            [12] 3292 	ld	(hl), #0x0d
      000C8D                       3293 00134$:
                           000C8D  3294 	C$EyeExec.c$381$3_0$291	= .
                                   3295 	.globl	C$EyeExec.c$381$3_0$291
                                   3296 ;C:\Users\sva13\OneDrive\ドキュメント\会社\課題\gbdk\Project\gb-test\source\exec\EyeExec.c:381: if(*eyeMode == RIGHT) *eyeMode = SINKRIGHT;
      000C8D 7E               [ 8] 3297 	ld	a, (hl)
      000C8E D6 0A            [ 8] 3298 	sub	a, #0x0a
      000C90 20 02            [12] 3299 	jr	NZ, 00136$
      000C92 36 0E            [12] 3300 	ld	(hl), #0x0e
      000C94                       3301 00136$:
                           000C94  3302 	C$EyeExec.c$382$3_0$291	= .
                                   3303 	.globl	C$EyeExec.c$382$3_0$291
                                   3304 ;C:\Users\sva13\OneDrive\ドキュメント\会社\課題\gbdk\Project\gb-test\source\exec\EyeExec.c:382: if(*eyeMode == DOWN) *eyeMode = SINKDOWN;
      000C94 7E               [ 8] 3305 	ld	a, (hl)
      000C95 D6 0B            [ 8] 3306 	sub	a, #0x0b
      000C97 20 02            [12] 3307 	jr	NZ, 00138$
      000C99 36 0F            [12] 3308 	ld	(hl), #0x0f
      000C9B                       3309 00138$:
                           000C9B  3310 	C$EyeExec.c$383$3_0$291	= .
                                   3311 	.globl	C$EyeExec.c$383$3_0$291
                                   3312 ;C:\Users\sva13\OneDrive\ドキュメント\会社\課題\gbdk\Project\gb-test\source\exec\EyeExec.c:383: if(*eyeMode == LEFT) *eyeMode = SINKLEFT;            
      000C9B 7E               [ 8] 3313 	ld	a, (hl)
      000C9C D6 0C            [ 8] 3314 	sub	a, #0x0c
      000C9E C0               [20] 3315 	ret	NZ
      000C9F 36 10            [12] 3316 	ld	(hl), #0x10
      000CA1 C9               [16] 3317 	ret
      000CA2                       3318 00150$:
                           000CA2  3319 	C$EyeExec.c$386$3_0$292	= .
                                   3320 	.globl	C$EyeExec.c$386$3_0$292
                                   3321 ;C:\Users\sva13\OneDrive\ドキュメント\会社\課題\gbdk\Project\gb-test\source\exec\EyeExec.c:386: if(*eyeMode == UP) *eyeMode = SHOTUP;
      000CA2 B7               [ 4] 3322 	or	a, a
      000CA3 28 02            [12] 3323 	jr	Z, 00142$
      000CA5 36 11            [12] 3324 	ld	(hl), #0x11
      000CA7                       3325 00142$:
                           000CA7  3326 	C$EyeExec.c$387$3_0$292	= .
                                   3327 	.globl	C$EyeExec.c$387$3_0$292
                                   3328 ;C:\Users\sva13\OneDrive\ドキュメント\会社\課題\gbdk\Project\gb-test\source\exec\EyeExec.c:387: if(*eyeMode == RIGHT) *eyeMode = SHOTRIGHT;
      000CA7 7E               [ 8] 3329 	ld	a, (hl)
      000CA8 D6 0A            [ 8] 3330 	sub	a, #0x0a
      000CAA 20 02            [12] 3331 	jr	NZ, 00144$
      000CAC 36 12            [12] 3332 	ld	(hl), #0x12
      000CAE                       3333 00144$:
                           000CAE  3334 	C$EyeExec.c$388$3_0$292	= .
                                   3335 	.globl	C$EyeExec.c$388$3_0$292
                                   3336 ;C:\Users\sva13\OneDrive\ドキュメント\会社\課題\gbdk\Project\gb-test\source\exec\EyeExec.c:388: if(*eyeMode == DOWN) *eyeMode = SHOTDOWN;
      000CAE 7E               [ 8] 3337 	ld	a, (hl)
      000CAF D6 0B            [ 8] 3338 	sub	a, #0x0b
      000CB1 20 02            [12] 3339 	jr	NZ, 00146$
      000CB3 36 13            [12] 3340 	ld	(hl), #0x13
      000CB5                       3341 00146$:
                           000CB5  3342 	C$EyeExec.c$389$3_0$292	= .
                                   3343 	.globl	C$EyeExec.c$389$3_0$292
                                   3344 ;C:\Users\sva13\OneDrive\ドキュメント\会社\課題\gbdk\Project\gb-test\source\exec\EyeExec.c:389: if(*eyeMode == LEFT) *eyeMode = SHOTLEFT;    
      000CB5 7E               [ 8] 3345 	ld	a, (hl)
      000CB6 D6 0C            [ 8] 3346 	sub	a, #0x0c
      000CB8 C0               [20] 3347 	ret	NZ
      000CB9 36 14            [12] 3348 	ld	(hl), #0x14
      000CBB C9               [16] 3349 	ret
      000CBC                       3350 00181$:
                           000CBC  3351 	C$EyeExec.c$392$1_0$282	= .
                                   3352 	.globl	C$EyeExec.c$392$1_0$282
                                   3353 ;C:\Users\sva13\OneDrive\ドキュメント\会社\課題\gbdk\Project\gb-test\source\exec\EyeExec.c:392: else if(*eyeMode >= SINKUP && *eyeMode <= SINKLEFT){
      000CBC 79               [ 4] 3354 	ld	a, c
      000CBD D6 0D            [ 8] 3355 	sub	a, #0x0d
      000CBF 38 33            [12] 3356 	jr	C, 00177$
      000CC1 3E 10            [ 8] 3357 	ld	a, #0x10
      000CC3 91               [ 4] 3358 	sub	a, c
      000CC4 38 2E            [12] 3359 	jr	C, 00177$
                           000CC6  3360 	C$EyeExec.c$393$2_0$293	= .
                                   3361 	.globl	C$EyeExec.c$393$2_0$293
                                   3362 ;C:\Users\sva13\OneDrive\ドキュメント\会社\課題\gbdk\Project\gb-test\source\exec\EyeExec.c:393: uint8_t randNum = randGenetate(8);
      000CC6 E5               [16] 3363 	push	hl
      000CC7 3E 08            [ 8] 3364 	ld	a, #0x08
      000CC9 CDr24r00         [24] 3365 	call	_randGenetate
      000CCC E1               [12] 3366 	pop	hl
                           000CCD  3367 	C$EyeExec.c$394$2_0$293	= .
                                   3368 	.globl	C$EyeExec.c$394$2_0$293
                                   3369 ;C:\Users\sva13\OneDrive\ドキュメント\会社\課題\gbdk\Project\gb-test\source\exec\EyeExec.c:394: if(randNum >= 4){
      000CCD D6 04            [ 8] 3370 	sub	a, #0x04
      000CCF 38 07            [12] 3371 	jr	C, 00161$
                           000CD1  3372 	C$EyeExec.c$395$3_0$294	= .
                                   3373 	.globl	C$EyeExec.c$395$3_0$294
                                   3374 ;C:\Users\sva13\OneDrive\ドキュメント\会社\課題\gbdk\Project\gb-test\source\exec\EyeExec.c:395: *eyeMode = ChangeDirection();
      000CD1 E5               [16] 3375 	push	hl
      000CD2 CDrB7r0B         [24] 3376 	call	_ChangeDirection
      000CD5 E1               [12] 3377 	pop	hl
      000CD6 77               [ 8] 3378 	ld	(hl), a
      000CD7 C9               [16] 3379 	ret
      000CD8                       3380 00161$:
                           000CD8  3381 	C$EyeExec.c$398$3_0$295	= .
                                   3382 	.globl	C$EyeExec.c$398$3_0$295
                                   3383 ;C:\Users\sva13\OneDrive\ドキュメント\会社\課題\gbdk\Project\gb-test\source\exec\EyeExec.c:398: if(*eyeMode == SINKUP) *eyeMode = FLOATUP;
      000CD8 7E               [ 8] 3384 	ld	a, (hl)
      000CD9 D6 0D            [ 8] 3385 	sub	a, #0x0d
      000CDB 20 02            [12] 3386 	jr	NZ, 00153$
      000CDD 36 05            [12] 3387 	ld	(hl), #0x05
      000CDF                       3388 00153$:
                           000CDF  3389 	C$EyeExec.c$399$3_0$295	= .
                                   3390 	.globl	C$EyeExec.c$399$3_0$295
                                   3391 ;C:\Users\sva13\OneDrive\ドキュメント\会社\課題\gbdk\Project\gb-test\source\exec\EyeExec.c:399: if(*eyeMode == SINKRIGHT) *eyeMode = FLOATRIGHT;
      000CDF 7E               [ 8] 3392 	ld	a, (hl)
      000CE0 D6 0E            [ 8] 3393 	sub	a, #0x0e
      000CE2 20 02            [12] 3394 	jr	NZ, 00155$
      000CE4 36 06            [12] 3395 	ld	(hl), #0x06
      000CE6                       3396 00155$:
                           000CE6  3397 	C$EyeExec.c$400$3_0$295	= .
                                   3398 	.globl	C$EyeExec.c$400$3_0$295
                                   3399 ;C:\Users\sva13\OneDrive\ドキュメント\会社\課題\gbdk\Project\gb-test\source\exec\EyeExec.c:400: if(*eyeMode == SINKDOWN) *eyeMode = FLOATDOWN;
      000CE6 7E               [ 8] 3400 	ld	a, (hl)
      000CE7 D6 0F            [ 8] 3401 	sub	a, #0x0f
      000CE9 20 02            [12] 3402 	jr	NZ, 00157$
      000CEB 36 07            [12] 3403 	ld	(hl), #0x07
      000CED                       3404 00157$:
                           000CED  3405 	C$EyeExec.c$401$3_0$295	= .
                                   3406 	.globl	C$EyeExec.c$401$3_0$295
                                   3407 ;C:\Users\sva13\OneDrive\ドキュメント\会社\課題\gbdk\Project\gb-test\source\exec\EyeExec.c:401: if(*eyeMode == SINKLEFT) *eyeMode = FLOATLEFT;  
      000CED 7E               [ 8] 3408 	ld	a, (hl)
      000CEE D6 10            [ 8] 3409 	sub	a, #0x10
      000CF0 C0               [20] 3410 	ret	NZ
      000CF1 36 08            [12] 3411 	ld	(hl), #0x08
      000CF3 C9               [16] 3412 	ret
      000CF4                       3413 00177$:
                           000CF4  3414 	C$EyeExec.c$404$1_0$282	= .
                                   3415 	.globl	C$EyeExec.c$404$1_0$282
                                   3416 ;C:\Users\sva13\OneDrive\ドキュメント\会社\課題\gbdk\Project\gb-test\source\exec\EyeExec.c:404: else if(*eyeMode >= SHOTUP && *eyeMode <= SHOTLEFT){
      000CF4 79               [ 4] 3417 	ld	a, c
      000CF5 D6 11            [ 8] 3418 	sub	a, #0x11
      000CF7 D8               [20] 3419 	ret	C
      000CF8 3E 14            [ 8] 3420 	ld	a, #0x14
      000CFA 91               [ 4] 3421 	sub	a, c
      000CFB D8               [20] 3422 	ret	C
                           000CFC  3423 	C$EyeExec.c$405$2_0$296	= .
                                   3424 	.globl	C$EyeExec.c$405$2_0$296
                                   3425 ;C:\Users\sva13\OneDrive\ドキュメント\会社\課題\gbdk\Project\gb-test\source\exec\EyeExec.c:405: uint8_t randNum = randGenetate(8);
      000CFC E5               [16] 3426 	push	hl
      000CFD 3E 08            [ 8] 3427 	ld	a, #0x08
      000CFF CDr24r00         [24] 3428 	call	_randGenetate
      000D02 E1               [12] 3429 	pop	hl
                           000D03  3430 	C$EyeExec.c$406$2_0$296	= .
                                   3431 	.globl	C$EyeExec.c$406$2_0$296
                                   3432 ;C:\Users\sva13\OneDrive\ドキュメント\会社\課題\gbdk\Project\gb-test\source\exec\EyeExec.c:406: if(randNum >= 4){
      000D03 D6 04            [ 8] 3433 	sub	a, #0x04
      000D05 D8               [20] 3434 	ret	C
                           000D06  3435 	C$EyeExec.c$407$3_0$297	= .
                                   3436 	.globl	C$EyeExec.c$407$3_0$297
                                   3437 ;C:\Users\sva13\OneDrive\ドキュメント\会社\課題\gbdk\Project\gb-test\source\exec\EyeExec.c:407: if(*eyeMode == SHOTUP) *eyeMode = SINKUP;
      000D06 7E               [ 8] 3438 	ld	a, (hl)
      000D07 D6 11            [ 8] 3439 	sub	a, #0x11
      000D09 20 02            [12] 3440 	jr	NZ, 00164$
      000D0B 36 0D            [12] 3441 	ld	(hl), #0x0d
      000D0D                       3442 00164$:
                           000D0D  3443 	C$EyeExec.c$408$3_0$297	= .
                                   3444 	.globl	C$EyeExec.c$408$3_0$297
                                   3445 ;C:\Users\sva13\OneDrive\ドキュメント\会社\課題\gbdk\Project\gb-test\source\exec\EyeExec.c:408: if(*eyeMode == SHOTRIGHT) *eyeMode = SINKRIGHT;
      000D0D 7E               [ 8] 3446 	ld	a, (hl)
      000D0E D6 12            [ 8] 3447 	sub	a, #0x12
      000D10 20 02            [12] 3448 	jr	NZ, 00166$
      000D12 36 0E            [12] 3449 	ld	(hl), #0x0e
      000D14                       3450 00166$:
                           000D14  3451 	C$EyeExec.c$409$3_0$297	= .
                                   3452 	.globl	C$EyeExec.c$409$3_0$297
                                   3453 ;C:\Users\sva13\OneDrive\ドキュメント\会社\課題\gbdk\Project\gb-test\source\exec\EyeExec.c:409: if(*eyeMode == SHOTDOWN) *eyeMode = SINKDOWN;
      000D14 7E               [ 8] 3454 	ld	a, (hl)
      000D15 D6 13            [ 8] 3455 	sub	a, #0x13
      000D17 20 02            [12] 3456 	jr	NZ, 00168$
      000D19 36 0F            [12] 3457 	ld	(hl), #0x0f
      000D1B                       3458 00168$:
                           000D1B  3459 	C$EyeExec.c$410$3_0$297	= .
                                   3460 	.globl	C$EyeExec.c$410$3_0$297
                                   3461 ;C:\Users\sva13\OneDrive\ドキュメント\会社\課題\gbdk\Project\gb-test\source\exec\EyeExec.c:410: if(*eyeMode == SHOTLEFT) *eyeMode = SINKLEFT; 
      000D1B 7E               [ 8] 3462 	ld	a, (hl)
      000D1C D6 14            [ 8] 3463 	sub	a, #0x14
      000D1E C0               [20] 3464 	ret	NZ
      000D1F 36 10            [12] 3465 	ld	(hl), #0x10
                           000D21  3466 	C$EyeExec.c$413$1_0$282	= .
                                   3467 	.globl	C$EyeExec.c$413$1_0$282
                                   3468 ;C:\Users\sva13\OneDrive\ドキュメント\会社\課題\gbdk\Project\gb-test\source\exec\EyeExec.c:413: }
                           000D21  3469 	C$EyeExec.c$413$1_0$282	= .
                                   3470 	.globl	C$EyeExec.c$413$1_0$282
                           000D21  3471 	XG$EyeModeChange$0$0	= .
                                   3472 	.globl	XG$EyeModeChange$0$0
      000D21 C9               [16] 3473 	ret
                           000D22  3474 	G$EyeExecMain$0$0	= .
                                   3475 	.globl	G$EyeExecMain$0$0
                           000D22  3476 	C$EyeExec.c$415$1_0$299	= .
                                   3477 	.globl	C$EyeExec.c$415$1_0$299
                                   3478 ;C:\Users\sva13\OneDrive\ドキュメント\会社\課題\gbdk\Project\gb-test\source\exec\EyeExec.c:415: void EyeExecMain(uint8_t *eyeX, uint8_t *eyeY, 
                                   3479 ;	---------------------------------
                                   3480 ; Function EyeExecMain
                                   3481 ; ---------------------------------
      000D22                       3482 _EyeExecMain::
      000D22 E8 F5            [16] 3483 	add	sp, #-11
      000D24 F8 09            [12] 3484 	ldhl	sp,	#9
      000D26 7B               [ 4] 3485 	ld	a, e
      000D27 22               [ 8] 3486 	ld	(hl+), a
      000D28 72               [ 8] 3487 	ld	(hl), d
      000D29 F8 07            [12] 3488 	ldhl	sp,	#7
      000D2B 79               [ 4] 3489 	ld	a, c
      000D2C 22               [ 8] 3490 	ld	(hl+), a
      000D2D 70               [ 8] 3491 	ld	(hl), b
                           000D2E  3492 	C$EyeExec.c$419$1_0$299	= .
                                   3493 	.globl	C$EyeExec.c$419$1_0$299
                                   3494 ;C:\Users\sva13\OneDrive\ドキュメント\会社\課題\gbdk\Project\gb-test\source\exec\EyeExec.c:419: *eyeCnt = *eyeCnt + 1;
      000D2E F8 16            [12] 3495 	ldhl	sp,	#22
      000D30 7E               [ 8] 3496 	ld	a, (hl)
      000D31 F8 00            [12] 3497 	ldhl	sp,	#0
      000D33 77               [ 8] 3498 	ld	(hl), a
      000D34 F8 17            [12] 3499 	ldhl	sp,	#23
      000D36 7E               [ 8] 3500 	ld	a, (hl)
      000D37 F8 01            [12] 3501 	ldhl	sp,	#1
      000D39 77               [ 8] 3502 	ld	(hl), a
      000D3A D1               [12] 3503 	pop	de
      000D3B D5               [16] 3504 	push	de
      000D3C 1A               [ 8] 3505 	ld	a, (de)
      000D3D 4F               [ 4] 3506 	ld	c, a
      000D3E 0C               [ 4] 3507 	inc	c
      000D3F E1               [12] 3508 	pop	hl
      000D40 E5               [16] 3509 	push	hl
      000D41 71               [ 8] 3510 	ld	(hl), c
                           000D42  3511 	C$EyeExec.c$420$1_0$299	= .
                                   3512 	.globl	C$EyeExec.c$420$1_0$299
                                   3513 ;C:\Users\sva13\OneDrive\ドキュメント\会社\課題\gbdk\Project\gb-test\source\exec\EyeExec.c:420: if(*eyeMode >= MOVEUP && *eyeMode <= MOVELEFT){
      000D42 F8 14            [12] 3514 	ldhl	sp,	#20
      000D44 7E               [ 8] 3515 	ld	a, (hl)
      000D45 F8 02            [12] 3516 	ldhl	sp,	#2
      000D47 77               [ 8] 3517 	ld	(hl), a
      000D48 F8 15            [12] 3518 	ldhl	sp,	#21
      000D4A 7E               [ 8] 3519 	ld	a, (hl)
      000D4B F8 03            [12] 3520 	ldhl	sp,	#3
      000D4D 32               [ 8] 3521 	ld	(hl-), a
      000D4E 2A               [ 8] 3522 	ld	a, (hl+)
      000D4F 5F               [ 4] 3523 	ld	e, a
      000D50 56               [ 8] 3524 	ld	d, (hl)
      000D51 1A               [ 8] 3525 	ld	a, (de)
      000D52 4F               [ 4] 3526 	ld	c, a
                           000D53  3527 	C$EyeExec.c$425$1_0$299	= .
                                   3528 	.globl	C$EyeExec.c$425$1_0$299
                                   3529 ;C:\Users\sva13\OneDrive\ドキュメント\会社\課題\gbdk\Project\gb-test\source\exec\EyeExec.c:425: move_sprite(spriteNum+2,*eyeX, *eyeY);
      000D53 F8 12            [12] 3530 	ldhl	sp,	#18
      000D55 7E               [ 8] 3531 	ld	a, (hl)
      000D56 F8 04            [12] 3532 	ldhl	sp,	#4
      000D58 77               [ 8] 3533 	ld	(hl), a
      000D59 2A               [ 8] 3534 	ld	a, (hl+)
      000D5A C6 02            [ 8] 3535 	add	a, #0x02
      000D5C 77               [ 8] 3536 	ld	(hl), a
                           000D5D  3537 	C$EyeExec.c$420$1_0$299	= .
                                   3538 	.globl	C$EyeExec.c$420$1_0$299
                                   3539 ;C:\Users\sva13\OneDrive\ドキュメント\会社\課題\gbdk\Project\gb-test\source\exec\EyeExec.c:420: if(*eyeMode >= MOVEUP && *eyeMode <= MOVELEFT){
      000D5D 79               [ 4] 3540 	ld	a, c
      000D5E D6 01            [ 8] 3541 	sub	a, #0x01
      000D60 DAr16r0E         [16] 3542 	jp	C, 00180$
      000D63 3E 04            [ 8] 3543 	ld	a, #0x04
      000D65 91               [ 4] 3544 	sub	a, c
      000D66 DAr16r0E         [16] 3545 	jp	C, 00180$
                           000D69  3546 	C$EyeExec.c$421$2_0$300	= .
                                   3547 	.globl	C$EyeExec.c$421$2_0$300
                                   3548 ;C:\Users\sva13\OneDrive\ドキュメント\会社\課題\gbdk\Project\gb-test\source\exec\EyeExec.c:421: if(*eyeMode == MOVEUP) *eyeY = *eyeY - 1;
      000D69 0D               [ 4] 3549 	dec	c
      000D6A 20 10            [12] 3550 	jr	NZ, 00102$
      000D6C F8 07            [12] 3551 	ldhl	sp,#7
      000D6E 2A               [ 8] 3552 	ld	a, (hl+)
      000D6F 5F               [ 4] 3553 	ld	e, a
      000D70 3A               [ 8] 3554 	ld	a, (hl-)
      000D71 2B               [ 8] 3555 	dec	hl
      000D72 57               [ 4] 3556 	ld	d, a
      000D73 1A               [ 8] 3557 	ld	a, (de)
      000D74 77               [ 8] 3558 	ld	(hl), a
      000D75 2A               [ 8] 3559 	ld	a, (hl+)
      000D76 4F               [ 4] 3560 	ld	c, a
      000D77 0D               [ 4] 3561 	dec	c
      000D78 2A               [ 8] 3562 	ld	a,	(hl+)
      000D79 66               [ 8] 3563 	ld	h, (hl)
      000D7A 6F               [ 4] 3564 	ld	l, a
      000D7B 71               [ 8] 3565 	ld	(hl), c
      000D7C                       3566 00102$:
                           000D7C  3567 	C$EyeExec.c$422$2_0$300	= .
                                   3568 	.globl	C$EyeExec.c$422$2_0$300
                                   3569 ;C:\Users\sva13\OneDrive\ドキュメント\会社\課題\gbdk\Project\gb-test\source\exec\EyeExec.c:422: if(*eyeMode == MOVERIGHT) *eyeX = *eyeX + 1;
      000D7C F8 02            [12] 3570 	ldhl	sp,#2
      000D7E 2A               [ 8] 3571 	ld	a, (hl+)
      000D7F 5F               [ 4] 3572 	ld	e, a
      000D80 56               [ 8] 3573 	ld	d, (hl)
      000D81 1A               [ 8] 3574 	ld	a, (de)
      000D82 D6 02            [ 8] 3575 	sub	a, #0x02
      000D84 20 11            [12] 3576 	jr	NZ, 00104$
      000D86 F8 09            [12] 3577 	ldhl	sp,#9
      000D88 2A               [ 8] 3578 	ld	a, (hl+)
      000D89 5F               [ 4] 3579 	ld	e, a
      000D8A 56               [ 8] 3580 	ld	d, (hl)
      000D8B 1A               [ 8] 3581 	ld	a, (de)
      000D8C F8 06            [12] 3582 	ldhl	sp,	#6
      000D8E 77               [ 8] 3583 	ld	(hl), a
      000D8F 4E               [ 8] 3584 	ld	c, (hl)
      000D90 0C               [ 4] 3585 	inc	c
      000D91 F8 09            [12] 3586 	ldhl	sp,	#9
      000D93 2A               [ 8] 3587 	ld	a,	(hl+)
      000D94 66               [ 8] 3588 	ld	h, (hl)
      000D95 6F               [ 4] 3589 	ld	l, a
      000D96 71               [ 8] 3590 	ld	(hl), c
      000D97                       3591 00104$:
                           000D97  3592 	C$EyeExec.c$423$2_0$300	= .
                                   3593 	.globl	C$EyeExec.c$423$2_0$300
                                   3594 ;C:\Users\sva13\OneDrive\ドキュメント\会社\課題\gbdk\Project\gb-test\source\exec\EyeExec.c:423: if(*eyeMode == MOVEDOWN) *eyeY = *eyeY + 1;
      000D97 F8 02            [12] 3595 	ldhl	sp,#2
      000D99 2A               [ 8] 3596 	ld	a, (hl+)
      000D9A 5F               [ 4] 3597 	ld	e, a
      000D9B 56               [ 8] 3598 	ld	d, (hl)
      000D9C 1A               [ 8] 3599 	ld	a, (de)
      000D9D D6 03            [ 8] 3600 	sub	a, #0x03
      000D9F 20 0C            [12] 3601 	jr	NZ, 00106$
      000DA1 F8 07            [12] 3602 	ldhl	sp,#7
      000DA3 2A               [ 8] 3603 	ld	a, (hl+)
      000DA4 5F               [ 4] 3604 	ld	e, a
      000DA5 56               [ 8] 3605 	ld	d, (hl)
      000DA6 1A               [ 8] 3606 	ld	a, (de)
      000DA7 4F               [ 4] 3607 	ld	c, a
      000DA8 0C               [ 4] 3608 	inc	c
      000DA9 3A               [ 8] 3609 	ld	a, (hl-)
      000DAA 6E               [ 8] 3610 	ld	l, (hl)
      000DAB 67               [ 4] 3611 	ld	h, a
      000DAC 71               [ 8] 3612 	ld	(hl), c
      000DAD                       3613 00106$:
                           000DAD  3614 	C$EyeExec.c$424$2_0$300	= .
                                   3615 	.globl	C$EyeExec.c$424$2_0$300
                                   3616 ;C:\Users\sva13\OneDrive\ドキュメント\会社\課題\gbdk\Project\gb-test\source\exec\EyeExec.c:424: if(*eyeMode == MOVELEFT) *eyeX = *eyeX - 1;
      000DAD F8 02            [12] 3617 	ldhl	sp,#2
      000DAF 2A               [ 8] 3618 	ld	a, (hl+)
      000DB0 5F               [ 4] 3619 	ld	e, a
      000DB1 56               [ 8] 3620 	ld	d, (hl)
      000DB2 1A               [ 8] 3621 	ld	a, (de)
      000DB3 D6 04            [ 8] 3622 	sub	a, #0x04
      000DB5 20 0C            [12] 3623 	jr	NZ, 00108$
      000DB7 F8 09            [12] 3624 	ldhl	sp,#9
      000DB9 2A               [ 8] 3625 	ld	a, (hl+)
      000DBA 5F               [ 4] 3626 	ld	e, a
      000DBB 56               [ 8] 3627 	ld	d, (hl)
      000DBC 1A               [ 8] 3628 	ld	a, (de)
      000DBD 4F               [ 4] 3629 	ld	c, a
      000DBE 0D               [ 4] 3630 	dec	c
      000DBF 3A               [ 8] 3631 	ld	a, (hl-)
      000DC0 6E               [ 8] 3632 	ld	l, (hl)
      000DC1 67               [ 4] 3633 	ld	h, a
      000DC2 71               [ 8] 3634 	ld	(hl), c
      000DC3                       3635 00108$:
                                   3636 ;C:\Users\sva13\OneDrive\ドキュメント\会社\課題\gbdk\Project\gb-test\source\exec\EyeExec.c:425: move_sprite(spriteNum+2,*eyeX, *eyeY);
      000DC3 F8 07            [12] 3637 	ldhl	sp,#7
      000DC5 2A               [ 8] 3638 	ld	a, (hl+)
      000DC6 5F               [ 4] 3639 	ld	e, a
      000DC7 2A               [ 8] 3640 	ld	a, (hl+)
      000DC8 57               [ 4] 3641 	ld	d, a
      000DC9 1A               [ 8] 3642 	ld	a, (de)
      000DCA 47               [ 4] 3643 	ld	b, a
      000DCB 2A               [ 8] 3644 	ld	a, (hl+)
      000DCC 5F               [ 4] 3645 	ld	e, a
      000DCD 56               [ 8] 3646 	ld	d, (hl)
      000DCE 1A               [ 8] 3647 	ld	a, (de)
      000DCF 4F               [ 4] 3648 	ld	c, a
      000DD0 F8 05            [12] 3649 	ldhl	sp,	#5
                                   3650 ;C:/Users/sva13/OneDrive/ドキュメント/会社/課題/gbdk/Resources/gbdk/include/gb/gb.h:1675: OAM_item_t * itm = &shadow_OAM[nb];
      000DD2 6E               [ 8] 3651 	ld	l, (hl)
                                   3652 ;	spillPairReg hl
                                   3653 ;	spillPairReg hl
      000DD3 26 00            [ 8] 3654 	ld	h, #0x00
                                   3655 ;	spillPairReg hl
                                   3656 ;	spillPairReg hl
      000DD5 29               [ 8] 3657 	add	hl, hl
      000DD6 29               [ 8] 3658 	add	hl, hl
      000DD7 11r00r00         [12] 3659 	ld	de, #_shadow_OAM
      000DDA 19               [ 8] 3660 	add	hl, de
                                   3661 ;C:/Users/sva13/OneDrive/ドキュメント/会社/課題/gbdk/Resources/gbdk/include/gb/gb.h:1676: itm->y=y, itm->x=x;
      000DDB 78               [ 4] 3662 	ld	a, b
      000DDC 22               [ 8] 3663 	ld	(hl+), a
      000DDD 71               [ 8] 3664 	ld	(hl), c
                                   3665 ;C:\Users\sva13\OneDrive\ドキュメント\会社\課題\gbdk\Project\gb-test\source\exec\EyeExec.c:426: move_sprite(spriteNum+3,*eyeX + 8, *eyeY);
      000DDE F8 07            [12] 3666 	ldhl	sp,#7
      000DE0 2A               [ 8] 3667 	ld	a, (hl+)
      000DE1 5F               [ 4] 3668 	ld	e, a
      000DE2 2A               [ 8] 3669 	ld	a, (hl+)
      000DE3 57               [ 4] 3670 	ld	d, a
      000DE4 1A               [ 8] 3671 	ld	a, (de)
      000DE5 47               [ 4] 3672 	ld	b, a
      000DE6 2A               [ 8] 3673 	ld	a, (hl+)
      000DE7 5F               [ 4] 3674 	ld	e, a
      000DE8 56               [ 8] 3675 	ld	d, (hl)
      000DE9 1A               [ 8] 3676 	ld	a, (de)
      000DEA C6 08            [ 8] 3677 	add	a, #0x08
      000DEC 4F               [ 4] 3678 	ld	c, a
      000DED F8 04            [12] 3679 	ldhl	sp,	#4
      000DEF 5E               [ 8] 3680 	ld	e, (hl)
      000DF0 1C               [ 4] 3681 	inc	e
      000DF1 1C               [ 4] 3682 	inc	e
      000DF2 1C               [ 4] 3683 	inc	e
                                   3684 ;C:/Users/sva13/OneDrive/ドキュメント/会社/課題/gbdk/Resources/gbdk/include/gb/gb.h:1675: OAM_item_t * itm = &shadow_OAM[nb];
      000DF3 6B               [ 4] 3685 	ld	l, e
                                   3686 ;	spillPairReg hl
                                   3687 ;	spillPairReg hl
      000DF4 26 00            [ 8] 3688 	ld	h, #0x00
                                   3689 ;	spillPairReg hl
                                   3690 ;	spillPairReg hl
      000DF6 29               [ 8] 3691 	add	hl, hl
      000DF7 29               [ 8] 3692 	add	hl, hl
      000DF8 11r00r00         [12] 3693 	ld	de, #_shadow_OAM
      000DFB 19               [ 8] 3694 	add	hl, de
                                   3695 ;C:/Users/sva13/OneDrive/ドキュメント/会社/課題/gbdk/Resources/gbdk/include/gb/gb.h:1676: itm->y=y, itm->x=x;
      000DFC 78               [ 4] 3696 	ld	a, b
      000DFD 22               [ 8] 3697 	ld	(hl+), a
      000DFE 71               [ 8] 3698 	ld	(hl), c
                           000DFF  3699 	C$EyeExec.c$427$2_0$300	= .
                                   3700 	.globl	C$EyeExec.c$427$2_0$300
                                   3701 ;C:\Users\sva13\OneDrive\ドキュメント\会社\課題\gbdk\Project\gb-test\source\exec\EyeExec.c:427: if(*eyeCnt == 8){
      000DFF D1               [12] 3702 	pop	de
      000E00 D5               [16] 3703 	push	de
      000E01 1A               [ 8] 3704 	ld	a, (de)
      000E02 D6 08            [ 8] 3705 	sub	a, #0x08
      000E04 C2rA4r10         [16] 3706 	jp	NZ,00181$
                           000E07  3707 	C$EyeExec.c$428$3_0$301	= .
                                   3708 	.globl	C$EyeExec.c$428$3_0$301
                                   3709 ;C:\Users\sva13\OneDrive\ドキュメント\会社\課題\gbdk\Project\gb-test\source\exec\EyeExec.c:428: EyeModeChange(eyeMode);
      000E07 F8 02            [12] 3710 	ldhl	sp,	#2
      000E09 2A               [ 8] 3711 	ld	a, (hl+)
      000E0A 5F               [ 4] 3712 	ld	e, a
      000E0B 56               [ 8] 3713 	ld	d, (hl)
      000E0C CDrD8r0B         [24] 3714 	call	_EyeModeChange
                           000E0F  3715 	C$EyeExec.c$429$3_0$301	= .
                                   3716 	.globl	C$EyeExec.c$429$3_0$301
                                   3717 ;C:\Users\sva13\OneDrive\ドキュメント\会社\課題\gbdk\Project\gb-test\source\exec\EyeExec.c:429: *eyeCnt = 0;
      000E0F E1               [12] 3718 	pop	hl
      000E10 36 00            [12] 3719 	ld	(hl), #0x00
      000E12 E5               [16] 3720 	push	hl
      000E13 C3rA4r10         [16] 3721 	jp	00181$
      000E16                       3722 00180$:
                           000E16  3723 	C$EyeExec.c$435$1_0$299	= .
                                   3724 	.globl	C$EyeExec.c$435$1_0$299
                                   3725 ;C:\Users\sva13\OneDrive\ドキュメント\会社\課題\gbdk\Project\gb-test\source\exec\EyeExec.c:435: set_sprite_data(tile+4,4,EyeUpFloatTile);
      000E16 F8 11            [12] 3726 	ldhl	sp,	#17
      000E18 7E               [ 8] 3727 	ld	a, (hl)
      000E19 C6 04            [ 8] 3728 	add	a, #0x04
      000E1B 47               [ 4] 3729 	ld	b, a
                           000E1C  3730 	C$EyeExec.c$432$1_0$299	= .
                                   3731 	.globl	C$EyeExec.c$432$1_0$299
                                   3732 ;C:\Users\sva13\OneDrive\ドキュメント\会社\課題\gbdk\Project\gb-test\source\exec\EyeExec.c:432: else if(*eyeMode >= FLOATUP && *eyeMode <= FLOATLEFT){
      000E1C 79               [ 4] 3733 	ld	a, c
      000E1D D6 05            [ 8] 3734 	sub	a, #0x05
      000E1F DAr23r0F         [16] 3735 	jp	C, 00176$
      000E22 3E 08            [ 8] 3736 	ld	a, #0x08
      000E24 91               [ 4] 3737 	sub	a, c
      000E25 DAr23r0F         [16] 3738 	jp	C, 00176$
                           000E28  3739 	C$EyeExec.c$419$1_0$299	= .
                                   3740 	.globl	C$EyeExec.c$419$1_0$299
                                   3741 ;C:\Users\sva13\OneDrive\ドキュメント\会社\課題\gbdk\Project\gb-test\source\exec\EyeExec.c:419: *eyeCnt = *eyeCnt + 1;
      000E28 D1               [12] 3742 	pop	de
      000E29 D5               [16] 3743 	push	de
      000E2A 1A               [ 8] 3744 	ld	a, (de)
      000E2B 6F               [ 4] 3745 	ld	l, a
                                   3746 ;	spillPairReg hl
                                   3747 ;	spillPairReg hl
                           000E2C  3748 	C$EyeExec.c$434$1_0$299	= .
                                   3749 	.globl	C$EyeExec.c$434$1_0$299
                                   3750 ;C:\Users\sva13\OneDrive\ドキュメント\会社\課題\gbdk\Project\gb-test\source\exec\EyeExec.c:434: if(*eyeMode == FLOATUP){
      000E2C 79               [ 4] 3751 	ld	a, c
      000E2D D6 05            [ 8] 3752 	sub	a, #0x05
      000E2F 3E 01            [ 8] 3753 	ld	a, #0x01
      000E31 28 01            [12] 3754 	jr	Z, 00472$
      000E33 AF               [ 4] 3755 	xor	a, a
      000E34                       3756 00472$:
      000E34 5F               [ 4] 3757 	ld	e, a
                           000E35  3758 	C$EyeExec.c$437$1_0$299	= .
                                   3759 	.globl	C$EyeExec.c$437$1_0$299
                                   3760 ;C:\Users\sva13\OneDrive\ドキュメント\会社\課題\gbdk\Project\gb-test\source\exec\EyeExec.c:437: else if(*eyeMode == FLOATRIGHT){
      000E35 79               [ 4] 3761 	ld	a, c
      000E36 D6 06            [ 8] 3762 	sub	a, #0x06
      000E38 3E 01            [ 8] 3763 	ld	a, #0x01
      000E3A 28 01            [12] 3764 	jr	Z, 00474$
      000E3C AF               [ 4] 3765 	xor	a, a
      000E3D                       3766 00474$:
      000E3D E5               [16] 3767 	push	hl
      000E3E F8 07            [12] 3768 	ldhl	sp,	#7
      000E40 77               [ 8] 3769 	ld	(hl), a
      000E41 E1               [12] 3770 	pop	hl
                           000E42  3771 	C$EyeExec.c$440$1_0$299	= .
                                   3772 	.globl	C$EyeExec.c$440$1_0$299
                                   3773 ;C:\Users\sva13\OneDrive\ドキュメント\会社\課題\gbdk\Project\gb-test\source\exec\EyeExec.c:440: else if(*eyeMode == FLOATDOWN){
      000E42 79               [ 4] 3774 	ld	a, c
      000E43 D6 07            [ 8] 3775 	sub	a, #0x07
      000E45 3E 01            [ 8] 3776 	ld	a, #0x01
      000E47 28 01            [12] 3777 	jr	Z, 00476$
      000E49 AF               [ 4] 3778 	xor	a, a
      000E4A                       3779 00476$:
      000E4A E5               [16] 3780 	push	hl
      000E4B F8 08            [12] 3781 	ldhl	sp,	#8
      000E4D 77               [ 8] 3782 	ld	(hl), a
      000E4E E1               [12] 3783 	pop	hl
                           000E4F  3784 	C$EyeExec.c$443$1_0$299	= .
                                   3785 	.globl	C$EyeExec.c$443$1_0$299
                                   3786 ;C:\Users\sva13\OneDrive\ドキュメント\会社\課題\gbdk\Project\gb-test\source\exec\EyeExec.c:443: else if(*eyeMode == FLOATLEFT){
      000E4F 79               [ 4] 3787 	ld	a, c
      000E50 D6 08            [ 8] 3788 	sub	a, #0x08
      000E52 3E 01            [ 8] 3789 	ld	a, #0x01
      000E54 28 01            [12] 3790 	jr	Z, 00478$
      000E56 AF               [ 4] 3791 	xor	a, a
      000E57                       3792 00478$:
      000E57 4F               [ 4] 3793 	ld	c, a
                           000E58  3794 	C$EyeExec.c$433$2_0$302	= .
                                   3795 	.globl	C$EyeExec.c$433$2_0$302
                                   3796 ;C:\Users\sva13\OneDrive\ドキュメント\会社\課題\gbdk\Project\gb-test\source\exec\EyeExec.c:433: if(*eyeCnt == 5){
      000E58 7D               [ 4] 3797 	ld	a, l
                           000E59  3798 	C$EyeExec.c$434$3_0$303	= .
                                   3799 	.globl	C$EyeExec.c$434$3_0$303
                                   3800 ;C:\Users\sva13\OneDrive\ドキュメント\会社\課題\gbdk\Project\gb-test\source\exec\EyeExec.c:434: if(*eyeMode == FLOATUP){
      000E59 D6 05            [ 8] 3801 	sub	a,#0x05
      000E5B 20 5C            [12] 3802 	jr	NZ, 00136$
      000E5D B3               [ 4] 3803 	or	a,e
      000E5E 28 12            [12] 3804 	jr	Z, 00120$
                           000E60  3805 	C$EyeExec.c$435$4_0$304	= .
                                   3806 	.globl	C$EyeExec.c$435$4_0$304
                                   3807 ;C:\Users\sva13\OneDrive\ドキュメント\会社\課題\gbdk\Project\gb-test\source\exec\EyeExec.c:435: set_sprite_data(tile+4,4,EyeUpFloatTile);
      000E60 11r00r00         [12] 3808 	ld	de, #_EyeUpFloatTile
      000E63 D5               [16] 3809 	push	de
      000E64 3E 04            [ 8] 3810 	ld	a, #0x04
      000E66 F5               [16] 3811 	push	af
      000E67 33               [ 8] 3812 	inc	sp
      000E68 C5               [16] 3813 	push	bc
      000E69 33               [ 8] 3814 	inc	sp
      000E6A CDr00r00         [24] 3815 	call	_set_sprite_data
      000E6D E8 04            [16] 3816 	add	sp, #4
      000E6F C3rA4r10         [16] 3817 	jp	00181$
      000E72                       3818 00120$:
                           000E72  3819 	C$EyeExec.c$437$3_0$303	= .
                                   3820 	.globl	C$EyeExec.c$437$3_0$303
                                   3821 ;C:\Users\sva13\OneDrive\ドキュメント\会社\課題\gbdk\Project\gb-test\source\exec\EyeExec.c:437: else if(*eyeMode == FLOATRIGHT){
      000E72 F8 05            [12] 3822 	ldhl	sp,	#5
      000E74 7E               [ 8] 3823 	ld	a, (hl)
      000E75 B7               [ 4] 3824 	or	a, a
      000E76 28 12            [12] 3825 	jr	Z, 00117$
                           000E78  3826 	C$EyeExec.c$438$4_0$305	= .
                                   3827 	.globl	C$EyeExec.c$438$4_0$305
                                   3828 ;C:\Users\sva13\OneDrive\ドキュメント\会社\課題\gbdk\Project\gb-test\source\exec\EyeExec.c:438: set_sprite_data(tile+4,4,EyeRightFloatTile);
      000E78 11r00r00         [12] 3829 	ld	de, #_EyeRightFloatTile
      000E7B D5               [16] 3830 	push	de
      000E7C 3E 04            [ 8] 3831 	ld	a, #0x04
      000E7E F5               [16] 3832 	push	af
      000E7F 33               [ 8] 3833 	inc	sp
      000E80 C5               [16] 3834 	push	bc
      000E81 33               [ 8] 3835 	inc	sp
      000E82 CDr00r00         [24] 3836 	call	_set_sprite_data
      000E85 E8 04            [16] 3837 	add	sp, #4
      000E87 C3rA4r10         [16] 3838 	jp	00181$
      000E8A                       3839 00117$:
                           000E8A  3840 	C$EyeExec.c$440$3_0$303	= .
                                   3841 	.globl	C$EyeExec.c$440$3_0$303
                                   3842 ;C:\Users\sva13\OneDrive\ドキュメント\会社\課題\gbdk\Project\gb-test\source\exec\EyeExec.c:440: else if(*eyeMode == FLOATDOWN){
      000E8A F8 06            [12] 3843 	ldhl	sp,	#6
      000E8C 7E               [ 8] 3844 	ld	a, (hl)
      000E8D B7               [ 4] 3845 	or	a, a
      000E8E 28 12            [12] 3846 	jr	Z, 00114$
                           000E90  3847 	C$EyeExec.c$441$4_0$306	= .
                                   3848 	.globl	C$EyeExec.c$441$4_0$306
                                   3849 ;C:\Users\sva13\OneDrive\ドキュメント\会社\課題\gbdk\Project\gb-test\source\exec\EyeExec.c:441: set_sprite_data(tile+4,4,EyeDownFloatTile);
      000E90 11r00r00         [12] 3850 	ld	de, #_EyeDownFloatTile
      000E93 D5               [16] 3851 	push	de
      000E94 3E 04            [ 8] 3852 	ld	a, #0x04
      000E96 F5               [16] 3853 	push	af
      000E97 33               [ 8] 3854 	inc	sp
      000E98 C5               [16] 3855 	push	bc
      000E99 33               [ 8] 3856 	inc	sp
      000E9A CDr00r00         [24] 3857 	call	_set_sprite_data
      000E9D E8 04            [16] 3858 	add	sp, #4
      000E9F C3rA4r10         [16] 3859 	jp	00181$
      000EA2                       3860 00114$:
                           000EA2  3861 	C$EyeExec.c$443$3_0$303	= .
                                   3862 	.globl	C$EyeExec.c$443$3_0$303
                                   3863 ;C:\Users\sva13\OneDrive\ドキュメント\会社\課題\gbdk\Project\gb-test\source\exec\EyeExec.c:443: else if(*eyeMode == FLOATLEFT){
      000EA2 79               [ 4] 3864 	ld	a, c
      000EA3 B7               [ 4] 3865 	or	a, a
      000EA4 CArA4r10         [16] 3866 	jp	Z, 00181$
                           000EA7  3867 	C$EyeExec.c$444$4_0$307	= .
                                   3868 	.globl	C$EyeExec.c$444$4_0$307
                                   3869 ;C:\Users\sva13\OneDrive\ドキュメント\会社\課題\gbdk\Project\gb-test\source\exec\EyeExec.c:444: set_sprite_data(tile+4,4,EyeLeftFloatTile);
      000EA7 11r00r00         [12] 3870 	ld	de, #_EyeLeftFloatTile
      000EAA D5               [16] 3871 	push	de
      000EAB 3E 04            [ 8] 3872 	ld	a, #0x04
      000EAD F5               [16] 3873 	push	af
      000EAE 33               [ 8] 3874 	inc	sp
      000EAF C5               [16] 3875 	push	bc
      000EB0 33               [ 8] 3876 	inc	sp
      000EB1 CDr00r00         [24] 3877 	call	_set_sprite_data
      000EB4 E8 04            [16] 3878 	add	sp, #4
      000EB6 C3rA4r10         [16] 3879 	jp	00181$
      000EB9                       3880 00136$:
                           000EB9  3881 	C$EyeExec.c$447$2_0$302	= .
                                   3882 	.globl	C$EyeExec.c$447$2_0$302
                                   3883 ;C:\Users\sva13\OneDrive\ドキュメント\会社\課題\gbdk\Project\gb-test\source\exec\EyeExec.c:447: else if(*eyeCnt == 10){
      000EB9 7D               [ 4] 3884 	ld	a, l
                           000EBA  3885 	C$EyeExec.c$448$3_0$308	= .
                                   3886 	.globl	C$EyeExec.c$448$3_0$308
                                   3887 ;C:\Users\sva13\OneDrive\ドキュメント\会社\課題\gbdk\Project\gb-test\source\exec\EyeExec.c:448: if(*eyeMode == FLOATUP){
      000EBA D6 0A            [ 8] 3888 	sub	a,#0x0a
      000EBC C2rA4r10         [16] 3889 	jp	NZ,00181$
      000EBF B3               [ 4] 3890 	or	a,e
      000EC0 28 11            [12] 3891 	jr	Z, 00131$
                           000EC2  3892 	C$EyeExec.c$449$4_0$309	= .
                                   3893 	.globl	C$EyeExec.c$449$4_0$309
                                   3894 ;C:\Users\sva13\OneDrive\ドキュメント\会社\課題\gbdk\Project\gb-test\source\exec\EyeExec.c:449: set_sprite_data(tile+4,4,EyeUpTile);
      000EC2 11r00r00         [12] 3895 	ld	de, #_EyeUpTile
      000EC5 D5               [16] 3896 	push	de
      000EC6 3E 04            [ 8] 3897 	ld	a, #0x04
      000EC8 F5               [16] 3898 	push	af
      000EC9 33               [ 8] 3899 	inc	sp
      000ECA C5               [16] 3900 	push	bc
      000ECB 33               [ 8] 3901 	inc	sp
      000ECC CDr00r00         [24] 3902 	call	_set_sprite_data
      000ECF E8 04            [16] 3903 	add	sp, #4
      000ED1 18 41            [12] 3904 	jr	00132$
      000ED3                       3905 00131$:
                           000ED3  3906 	C$EyeExec.c$451$3_0$308	= .
                                   3907 	.globl	C$EyeExec.c$451$3_0$308
                                   3908 ;C:\Users\sva13\OneDrive\ドキュメント\会社\課題\gbdk\Project\gb-test\source\exec\EyeExec.c:451: else if(*eyeMode == FLOATRIGHT){
      000ED3 F8 05            [12] 3909 	ldhl	sp,	#5
      000ED5 7E               [ 8] 3910 	ld	a, (hl)
      000ED6 B7               [ 4] 3911 	or	a, a
      000ED7 28 11            [12] 3912 	jr	Z, 00128$
                           000ED9  3913 	C$EyeExec.c$452$4_0$310	= .
                                   3914 	.globl	C$EyeExec.c$452$4_0$310
                                   3915 ;C:\Users\sva13\OneDrive\ドキュメント\会社\課題\gbdk\Project\gb-test\source\exec\EyeExec.c:452: set_sprite_data(tile+4,4,EyeRightTile);
      000ED9 11r00r00         [12] 3916 	ld	de, #_EyeRightTile
      000EDC D5               [16] 3917 	push	de
      000EDD 3E 04            [ 8] 3918 	ld	a, #0x04
      000EDF F5               [16] 3919 	push	af
      000EE0 33               [ 8] 3920 	inc	sp
      000EE1 C5               [16] 3921 	push	bc
      000EE2 33               [ 8] 3922 	inc	sp
      000EE3 CDr00r00         [24] 3923 	call	_set_sprite_data
      000EE6 E8 04            [16] 3924 	add	sp, #4
      000EE8 18 2A            [12] 3925 	jr	00132$
      000EEA                       3926 00128$:
                           000EEA  3927 	C$EyeExec.c$454$3_0$308	= .
                                   3928 	.globl	C$EyeExec.c$454$3_0$308
                                   3929 ;C:\Users\sva13\OneDrive\ドキュメント\会社\課題\gbdk\Project\gb-test\source\exec\EyeExec.c:454: else if(*eyeMode == FLOATDOWN){
      000EEA F8 06            [12] 3930 	ldhl	sp,	#6
      000EEC 7E               [ 8] 3931 	ld	a, (hl)
      000EED B7               [ 4] 3932 	or	a, a
      000EEE 28 11            [12] 3933 	jr	Z, 00125$
                           000EF0  3934 	C$EyeExec.c$455$4_0$311	= .
                                   3935 	.globl	C$EyeExec.c$455$4_0$311
                                   3936 ;C:\Users\sva13\OneDrive\ドキュメント\会社\課題\gbdk\Project\gb-test\source\exec\EyeExec.c:455: set_sprite_data(tile+4,4,EyeDownTile);
      000EF0 11r00r00         [12] 3937 	ld	de, #_EyeDownTile
      000EF3 D5               [16] 3938 	push	de
      000EF4 3E 04            [ 8] 3939 	ld	a, #0x04
      000EF6 F5               [16] 3940 	push	af
      000EF7 33               [ 8] 3941 	inc	sp
      000EF8 C5               [16] 3942 	push	bc
      000EF9 33               [ 8] 3943 	inc	sp
      000EFA CDr00r00         [24] 3944 	call	_set_sprite_data
      000EFD E8 04            [16] 3945 	add	sp, #4
      000EFF 18 13            [12] 3946 	jr	00132$
      000F01                       3947 00125$:
                           000F01  3948 	C$EyeExec.c$457$3_0$308	= .
                                   3949 	.globl	C$EyeExec.c$457$3_0$308
                                   3950 ;C:\Users\sva13\OneDrive\ドキュメント\会社\課題\gbdk\Project\gb-test\source\exec\EyeExec.c:457: else if(*eyeMode == FLOATLEFT){
      000F01 79               [ 4] 3951 	ld	a, c
      000F02 B7               [ 4] 3952 	or	a, a
      000F03 28 0F            [12] 3953 	jr	Z, 00132$
                           000F05  3954 	C$EyeExec.c$458$4_0$312	= .
                                   3955 	.globl	C$EyeExec.c$458$4_0$312
                                   3956 ;C:\Users\sva13\OneDrive\ドキュメント\会社\課題\gbdk\Project\gb-test\source\exec\EyeExec.c:458: set_sprite_data(tile+4,4,EyeLeftTile);
      000F05 11r00r00         [12] 3957 	ld	de, #_EyeLeftTile
      000F08 D5               [16] 3958 	push	de
      000F09 3E 04            [ 8] 3959 	ld	a, #0x04
      000F0B F5               [16] 3960 	push	af
      000F0C 33               [ 8] 3961 	inc	sp
      000F0D C5               [16] 3962 	push	bc
      000F0E 33               [ 8] 3963 	inc	sp
      000F0F CDr00r00         [24] 3964 	call	_set_sprite_data
      000F12 E8 04            [16] 3965 	add	sp, #4
      000F14                       3966 00132$:
                           000F14  3967 	C$EyeExec.c$460$3_0$308	= .
                                   3968 	.globl	C$EyeExec.c$460$3_0$308
                                   3969 ;C:\Users\sva13\OneDrive\ドキュメント\会社\課題\gbdk\Project\gb-test\source\exec\EyeExec.c:460: EyeModeChange(eyeMode);
      000F14 F8 02            [12] 3970 	ldhl	sp,	#2
      000F16 2A               [ 8] 3971 	ld	a, (hl+)
      000F17 5F               [ 4] 3972 	ld	e, a
      000F18 56               [ 8] 3973 	ld	d, (hl)
      000F19 CDrD8r0B         [24] 3974 	call	_EyeModeChange
                           000F1C  3975 	C$EyeExec.c$461$3_0$308	= .
                                   3976 	.globl	C$EyeExec.c$461$3_0$308
                                   3977 ;C:\Users\sva13\OneDrive\ドキュメント\会社\課題\gbdk\Project\gb-test\source\exec\EyeExec.c:461: *eyeCnt = 0;
      000F1C E1               [12] 3978 	pop	hl
      000F1D 36 00            [12] 3979 	ld	(hl), #0x00
      000F1F E5               [16] 3980 	push	hl
      000F20 C3rA4r10         [16] 3981 	jp	00181$
      000F23                       3982 00176$:
                           000F23  3983 	C$EyeExec.c$464$1_0$299	= .
                                   3984 	.globl	C$EyeExec.c$464$1_0$299
                                   3985 ;C:\Users\sva13\OneDrive\ドキュメント\会社\課題\gbdk\Project\gb-test\source\exec\EyeExec.c:464: else if(*eyeMode >= UP && *eyeMode <= LEFT){
      000F23 79               [ 4] 3986 	ld	a, c
      000F24 D6 09            [ 8] 3987 	sub	a, #0x09
      000F26 38 1C            [12] 3988 	jr	C, 00172$
      000F28 3E 0C            [ 8] 3989 	ld	a, #0x0c
      000F2A 91               [ 4] 3990 	sub	a, c
      000F2B 38 17            [12] 3991 	jr	C, 00172$
                           000F2D  3992 	C$EyeExec.c$465$2_0$313	= .
                                   3993 	.globl	C$EyeExec.c$465$2_0$313
                                   3994 ;C:\Users\sva13\OneDrive\ドキュメント\会社\課題\gbdk\Project\gb-test\source\exec\EyeExec.c:465: if(*eyeCnt == 59){
      000F2D D1               [12] 3995 	pop	de
      000F2E D5               [16] 3996 	push	de
      000F2F 1A               [ 8] 3997 	ld	a, (de)
      000F30 D6 3B            [ 8] 3998 	sub	a, #0x3b
      000F32 C2rA4r10         [16] 3999 	jp	NZ,00181$
                           000F35  4000 	C$EyeExec.c$466$3_0$314	= .
                                   4001 	.globl	C$EyeExec.c$466$3_0$314
                                   4002 ;C:\Users\sva13\OneDrive\ドキュメント\会社\課題\gbdk\Project\gb-test\source\exec\EyeExec.c:466: EyeModeChange(eyeMode);
      000F35 F8 02            [12] 4003 	ldhl	sp,	#2
      000F37 2A               [ 8] 4004 	ld	a, (hl+)
      000F38 5F               [ 4] 4005 	ld	e, a
      000F39 56               [ 8] 4006 	ld	d, (hl)
      000F3A CDrD8r0B         [24] 4007 	call	_EyeModeChange
                           000F3D  4008 	C$EyeExec.c$467$3_0$314	= .
                                   4009 	.globl	C$EyeExec.c$467$3_0$314
                                   4010 ;C:\Users\sva13\OneDrive\ドキュメント\会社\課題\gbdk\Project\gb-test\source\exec\EyeExec.c:467: *eyeCnt = 0;
      000F3D E1               [12] 4011 	pop	hl
      000F3E 36 00            [12] 4012 	ld	(hl), #0x00
      000F40 E5               [16] 4013 	push	hl
      000F41 C3rA4r10         [16] 4014 	jp	00181$
      000F44                       4015 00172$:
                           000F44  4016 	C$EyeExec.c$470$1_0$299	= .
                                   4017 	.globl	C$EyeExec.c$470$1_0$299
                                   4018 ;C:\Users\sva13\OneDrive\ドキュメント\会社\課題\gbdk\Project\gb-test\source\exec\EyeExec.c:470: else if(*eyeMode >= SINKUP && *eyeMode <= SINKLEFT){
      000F44 79               [ 4] 4019 	ld	a, c
      000F45 D6 0D            [ 8] 4020 	sub	a, #0x0d
      000F47 DArD7r0F         [16] 4021 	jp	C, 00168$
      000F4A 3E 10            [ 8] 4022 	ld	a, #0x10
      000F4C 91               [ 4] 4023 	sub	a, c
      000F4D DArD7r0F         [16] 4024 	jp	C, 00168$
                           000F50  4025 	C$EyeExec.c$419$1_0$299	= .
                                   4026 	.globl	C$EyeExec.c$419$1_0$299
                                   4027 ;C:\Users\sva13\OneDrive\ドキュメント\会社\課題\gbdk\Project\gb-test\source\exec\EyeExec.c:419: *eyeCnt = *eyeCnt + 1;
      000F50 D1               [12] 4028 	pop	de
      000F51 D5               [16] 4029 	push	de
      000F52 1A               [ 8] 4030 	ld	a, (de)
                           000F53  4031 	C$EyeExec.c$471$2_0$315	= .
                                   4032 	.globl	C$EyeExec.c$471$2_0$315
                                   4033 ;C:\Users\sva13\OneDrive\ドキュメント\会社\課題\gbdk\Project\gb-test\source\exec\EyeExec.c:471: if(*eyeCnt == 5){
      000F53 FE 05            [ 8] 4034 	cp	a, #0x05
      000F55 20 5D            [12] 4035 	jr	NZ, 00154$
                           000F57  4036 	C$EyeExec.c$472$3_0$316	= .
                                   4037 	.globl	C$EyeExec.c$472$3_0$316
                                   4038 ;C:\Users\sva13\OneDrive\ドキュメント\会社\課題\gbdk\Project\gb-test\source\exec\EyeExec.c:472: if(*eyeMode == SINKUP){
      000F57 79               [ 4] 4039 	ld	a, c
      000F58 D6 0D            [ 8] 4040 	sub	a, #0x0d
      000F5A 20 12            [12] 4041 	jr	NZ, 00149$
                           000F5C  4042 	C$EyeExec.c$473$4_0$317	= .
                                   4043 	.globl	C$EyeExec.c$473$4_0$317
                                   4044 ;C:\Users\sva13\OneDrive\ドキュメント\会社\課題\gbdk\Project\gb-test\source\exec\EyeExec.c:473: set_sprite_data(tile+4,4,EyeUpFloatTile);
      000F5C 11r00r00         [12] 4045 	ld	de, #_EyeUpFloatTile
      000F5F D5               [16] 4046 	push	de
      000F60 3E 04            [ 8] 4047 	ld	a, #0x04
      000F62 F5               [16] 4048 	push	af
      000F63 33               [ 8] 4049 	inc	sp
      000F64 C5               [16] 4050 	push	bc
      000F65 33               [ 8] 4051 	inc	sp
      000F66 CDr00r00         [24] 4052 	call	_set_sprite_data
      000F69 E8 04            [16] 4053 	add	sp, #4
      000F6B C3rA4r10         [16] 4054 	jp	00181$
      000F6E                       4055 00149$:
                           000F6E  4056 	C$EyeExec.c$475$3_0$316	= .
                                   4057 	.globl	C$EyeExec.c$475$3_0$316
                                   4058 ;C:\Users\sva13\OneDrive\ドキュメント\会社\課題\gbdk\Project\gb-test\source\exec\EyeExec.c:475: else if(*eyeMode == SINKRIGHT){
      000F6E 79               [ 4] 4059 	ld	a, c
      000F6F D6 0E            [ 8] 4060 	sub	a, #0x0e
      000F71 20 12            [12] 4061 	jr	NZ, 00146$
                           000F73  4062 	C$EyeExec.c$476$4_0$318	= .
                                   4063 	.globl	C$EyeExec.c$476$4_0$318
                                   4064 ;C:\Users\sva13\OneDrive\ドキュメント\会社\課題\gbdk\Project\gb-test\source\exec\EyeExec.c:476: set_sprite_data(tile+4,4,EyeRightFloatTile);
      000F73 11r00r00         [12] 4065 	ld	de, #_EyeRightFloatTile
      000F76 D5               [16] 4066 	push	de
      000F77 3E 04            [ 8] 4067 	ld	a, #0x04
      000F79 F5               [16] 4068 	push	af
      000F7A 33               [ 8] 4069 	inc	sp
      000F7B C5               [16] 4070 	push	bc
      000F7C 33               [ 8] 4071 	inc	sp
      000F7D CDr00r00         [24] 4072 	call	_set_sprite_data
      000F80 E8 04            [16] 4073 	add	sp, #4
      000F82 C3rA4r10         [16] 4074 	jp	00181$
      000F85                       4075 00146$:
                           000F85  4076 	C$EyeExec.c$478$3_0$316	= .
                                   4077 	.globl	C$EyeExec.c$478$3_0$316
                                   4078 ;C:\Users\sva13\OneDrive\ドキュメント\会社\課題\gbdk\Project\gb-test\source\exec\EyeExec.c:478: else if(*eyeMode == SINKDOWN){
      000F85 79               [ 4] 4079 	ld	a, c
      000F86 D6 0F            [ 8] 4080 	sub	a, #0x0f
      000F88 20 12            [12] 4081 	jr	NZ, 00143$
                           000F8A  4082 	C$EyeExec.c$479$4_0$319	= .
                                   4083 	.globl	C$EyeExec.c$479$4_0$319
                                   4084 ;C:\Users\sva13\OneDrive\ドキュメント\会社\課題\gbdk\Project\gb-test\source\exec\EyeExec.c:479: set_sprite_data(tile+4,4,EyeDownFloatTile);
      000F8A 11r00r00         [12] 4085 	ld	de, #_EyeDownFloatTile
      000F8D D5               [16] 4086 	push	de
      000F8E 3E 04            [ 8] 4087 	ld	a, #0x04
      000F90 F5               [16] 4088 	push	af
      000F91 33               [ 8] 4089 	inc	sp
      000F92 C5               [16] 4090 	push	bc
      000F93 33               [ 8] 4091 	inc	sp
      000F94 CDr00r00         [24] 4092 	call	_set_sprite_data
      000F97 E8 04            [16] 4093 	add	sp, #4
      000F99 C3rA4r10         [16] 4094 	jp	00181$
      000F9C                       4095 00143$:
                           000F9C  4096 	C$EyeExec.c$481$3_0$316	= .
                                   4097 	.globl	C$EyeExec.c$481$3_0$316
                                   4098 ;C:\Users\sva13\OneDrive\ドキュメント\会社\課題\gbdk\Project\gb-test\source\exec\EyeExec.c:481: else if(*eyeMode == SINKLEFT){
      000F9C 79               [ 4] 4099 	ld	a, c
      000F9D D6 10            [ 8] 4100 	sub	a, #0x10
      000F9F C2rA4r10         [16] 4101 	jp	NZ,00181$
                           000FA2  4102 	C$EyeExec.c$482$4_0$320	= .
                                   4103 	.globl	C$EyeExec.c$482$4_0$320
                                   4104 ;C:\Users\sva13\OneDrive\ドキュメント\会社\課題\gbdk\Project\gb-test\source\exec\EyeExec.c:482: set_sprite_data(tile+4,4,EyeLeftFloatTile);
      000FA2 11r00r00         [12] 4105 	ld	de, #_EyeLeftFloatTile
      000FA5 D5               [16] 4106 	push	de
      000FA6 3E 04            [ 8] 4107 	ld	a, #0x04
      000FA8 F5               [16] 4108 	push	af
      000FA9 33               [ 8] 4109 	inc	sp
      000FAA C5               [16] 4110 	push	bc
      000FAB 33               [ 8] 4111 	inc	sp
      000FAC CDr00r00         [24] 4112 	call	_set_sprite_data
      000FAF E8 04            [16] 4113 	add	sp, #4
      000FB1 C3rA4r10         [16] 4114 	jp	00181$
      000FB4                       4115 00154$:
                           000FB4  4116 	C$EyeExec.c$485$2_0$315	= .
                                   4117 	.globl	C$EyeExec.c$485$2_0$315
                                   4118 ;C:\Users\sva13\OneDrive\ドキュメント\会社\課題\gbdk\Project\gb-test\source\exec\EyeExec.c:485: else if(*eyeCnt == 10){
      000FB4 D6 0A            [ 8] 4119 	sub	a, #0x0a
      000FB6 C2rA4r10         [16] 4120 	jp	NZ,00181$
                           000FB9  4121 	C$EyeExec.c$486$3_0$321	= .
                                   4122 	.globl	C$EyeExec.c$486$3_0$321
                                   4123 ;C:\Users\sva13\OneDrive\ドキュメント\会社\課題\gbdk\Project\gb-test\source\exec\EyeExec.c:486: set_sprite_data(tile+4,4,EyeShadowTile);
      000FB9 11r00r00         [12] 4124 	ld	de, #_EyeShadowTile
      000FBC D5               [16] 4125 	push	de
      000FBD 3E 04            [ 8] 4126 	ld	a, #0x04
      000FBF F5               [16] 4127 	push	af
      000FC0 33               [ 8] 4128 	inc	sp
      000FC1 C5               [16] 4129 	push	bc
      000FC2 33               [ 8] 4130 	inc	sp
      000FC3 CDr00r00         [24] 4131 	call	_set_sprite_data
      000FC6 E8 04            [16] 4132 	add	sp, #4
                           000FC8  4133 	C$EyeExec.c$487$3_0$321	= .
                                   4134 	.globl	C$EyeExec.c$487$3_0$321
                                   4135 ;C:\Users\sva13\OneDrive\ドキュメント\会社\課題\gbdk\Project\gb-test\source\exec\EyeExec.c:487: EyeModeChange(eyeMode);
      000FC8 F8 02            [12] 4136 	ldhl	sp,	#2
      000FCA 2A               [ 8] 4137 	ld	a, (hl+)
      000FCB 5F               [ 4] 4138 	ld	e, a
      000FCC 56               [ 8] 4139 	ld	d, (hl)
      000FCD CDrD8r0B         [24] 4140 	call	_EyeModeChange
                           000FD0  4141 	C$EyeExec.c$488$3_0$321	= .
                                   4142 	.globl	C$EyeExec.c$488$3_0$321
                                   4143 ;C:\Users\sva13\OneDrive\ドキュメント\会社\課題\gbdk\Project\gb-test\source\exec\EyeExec.c:488: *eyeCnt = 0;
      000FD0 E1               [12] 4144 	pop	hl
      000FD1 36 00            [12] 4145 	ld	(hl), #0x00
      000FD3 E5               [16] 4146 	push	hl
      000FD4 C3rA4r10         [16] 4147 	jp	00181$
      000FD7                       4148 00168$:
                           000FD7  4149 	C$EyeExec.c$491$1_0$299	= .
                                   4150 	.globl	C$EyeExec.c$491$1_0$299
                                   4151 ;C:\Users\sva13\OneDrive\ドキュメント\会社\課題\gbdk\Project\gb-test\source\exec\EyeExec.c:491: else if(*eyeMode >= SHOTUP && *eyeMode <= SHOTLEFT){
      000FD7 79               [ 4] 4152 	ld	a, c
      000FD8 D6 11            [ 8] 4153 	sub	a, #0x11
      000FDA 38 1C            [12] 4154 	jr	C, 00164$
      000FDC 3E 14            [ 8] 4155 	ld	a, #0x14
      000FDE 91               [ 4] 4156 	sub	a, c
      000FDF 38 17            [12] 4157 	jr	C, 00164$
                           000FE1  4158 	C$EyeExec.c$492$2_0$322	= .
                                   4159 	.globl	C$EyeExec.c$492$2_0$322
                                   4160 ;C:\Users\sva13\OneDrive\ドキュメント\会社\課題\gbdk\Project\gb-test\source\exec\EyeExec.c:492: if(*eyeCnt == 59){
      000FE1 D1               [12] 4161 	pop	de
      000FE2 D5               [16] 4162 	push	de
      000FE3 1A               [ 8] 4163 	ld	a, (de)
      000FE4 D6 3B            [ 8] 4164 	sub	a, #0x3b
      000FE6 C2rA4r10         [16] 4165 	jp	NZ,00181$
                           000FE9  4166 	C$EyeExec.c$493$3_0$323	= .
                                   4167 	.globl	C$EyeExec.c$493$3_0$323
                                   4168 ;C:\Users\sva13\OneDrive\ドキュメント\会社\課題\gbdk\Project\gb-test\source\exec\EyeExec.c:493: EyeModeChange(eyeMode);
      000FE9 F8 02            [12] 4169 	ldhl	sp,	#2
      000FEB 2A               [ 8] 4170 	ld	a, (hl+)
      000FEC 5F               [ 4] 4171 	ld	e, a
      000FED 56               [ 8] 4172 	ld	d, (hl)
      000FEE CDrD8r0B         [24] 4173 	call	_EyeModeChange
                           000FF1  4174 	C$EyeExec.c$494$3_0$323	= .
                                   4175 	.globl	C$EyeExec.c$494$3_0$323
                                   4176 ;C:\Users\sva13\OneDrive\ドキュメント\会社\課題\gbdk\Project\gb-test\source\exec\EyeExec.c:494: *eyeCnt = 0;
      000FF1 E1               [12] 4177 	pop	hl
      000FF2 36 00            [12] 4178 	ld	(hl), #0x00
      000FF4 E5               [16] 4179 	push	hl
      000FF5 C3rA4r10         [16] 4180 	jp	00181$
      000FF8                       4181 00164$:
                           000FF8  4182 	C$EyeExec.c$497$1_0$299	= .
                                   4183 	.globl	C$EyeExec.c$497$1_0$299
                                   4184 ;C:\Users\sva13\OneDrive\ドキュメント\会社\課題\gbdk\Project\gb-test\source\exec\EyeExec.c:497: else if(*eyeMode == SLASH){
      000FF8 79               [ 4] 4185 	ld	a, c
      000FF9 D6 15            [ 8] 4186 	sub	a, #0x15
      000FFB C2rA4r10         [16] 4187 	jp	NZ,00181$
                           000FFE  4188 	C$EyeExec.c$419$1_0$299	= .
                                   4189 	.globl	C$EyeExec.c$419$1_0$299
                                   4190 ;C:\Users\sva13\OneDrive\ドキュメント\会社\課題\gbdk\Project\gb-test\source\exec\EyeExec.c:419: *eyeCnt = *eyeCnt + 1;
      000FFE D1               [12] 4191 	pop	de
      000FFF D5               [16] 4192 	push	de
      001000 1A               [ 8] 4193 	ld	a, (de)
                           001001  4194 	C$EyeExec.c$498$2_0$324	= .
                                   4195 	.globl	C$EyeExec.c$498$2_0$324
                                   4196 ;C:\Users\sva13\OneDrive\ドキュメント\会社\課題\gbdk\Project\gb-test\source\exec\EyeExec.c:498: if(*eyeCnt < 9){
      001001 4F               [ 4] 4197 	ld	c, a
      001002 D6 09            [ 8] 4198 	sub	a, #0x09
      001004 30 49            [12] 4199 	jr	NC, 00159$
                                   4200 ;C:\Users\sva13\OneDrive\ドキュメント\会社\課題\gbdk\Project\gb-test\source\exec\EyeExec.c:499: move_sprite(spriteNum+2,*eyeX, *eyeY - *eyeCnt);
      001006 F8 07            [12] 4201 	ldhl	sp,#7
      001008 2A               [ 8] 4202 	ld	a, (hl+)
      001009 5F               [ 4] 4203 	ld	e, a
      00100A 2A               [ 8] 4204 	ld	a, (hl+)
      00100B 57               [ 4] 4205 	ld	d, a
      00100C 1A               [ 8] 4206 	ld	a, (de)
      00100D 91               [ 4] 4207 	sub	a, c
      00100E 4F               [ 4] 4208 	ld	c, a
      00100F 2A               [ 8] 4209 	ld	a, (hl+)
      001010 5F               [ 4] 4210 	ld	e, a
      001011 56               [ 8] 4211 	ld	d, (hl)
      001012 1A               [ 8] 4212 	ld	a, (de)
      001013 F8 06            [12] 4213 	ldhl	sp,	#6
      001015 32               [ 8] 4214 	ld	(hl-), a
                                   4215 ;C:/Users/sva13/OneDrive/ドキュメント/会社/課題/gbdk/Resources/gbdk/include/gb/gb.h:1675: OAM_item_t * itm = &shadow_OAM[nb];
      001016 6E               [ 8] 4216 	ld	l, (hl)
                                   4217 ;	spillPairReg hl
                                   4218 ;	spillPairReg hl
      001017 26 00            [ 8] 4219 	ld	h, #0x00
                                   4220 ;	spillPairReg hl
                                   4221 ;	spillPairReg hl
      001019 29               [ 8] 4222 	add	hl, hl
      00101A 29               [ 8] 4223 	add	hl, hl
      00101B 11r00r00         [12] 4224 	ld	de, #_shadow_OAM
      00101E 19               [ 8] 4225 	add	hl, de
                                   4226 ;C:/Users/sva13/OneDrive/ドキュメント/会社/課題/gbdk/Resources/gbdk/include/gb/gb.h:1676: itm->y=y, itm->x=x;
      00101F 79               [ 4] 4227 	ld	a, c
      001020 22               [ 8] 4228 	ld	(hl+), a
      001021 4D               [ 4] 4229 	ld	c, l
      001022 44               [ 4] 4230 	ld	b, h
      001023 F8 06            [12] 4231 	ldhl	sp,	#6
                                   4232 ;C:\Users\sva13\OneDrive\ドキュメント\会社\課題\gbdk\Project\gb-test\source\exec\EyeExec.c:500: move_sprite(spriteNum+3,*eyeX + 8, *eyeY + *eyeCnt);
      001025 2A               [ 8] 4233 	ld	a, (hl+)
      001026 02               [ 8] 4234 	ld	(bc), a
      001027 2A               [ 8] 4235 	ld	a, (hl+)
      001028 5F               [ 4] 4236 	ld	e, a
      001029 2A               [ 8] 4237 	ld	a, (hl+)
      00102A 57               [ 4] 4238 	ld	d, a
      00102B 1A               [ 8] 4239 	ld	a, (de)
      00102C 4F               [ 4] 4240 	ld	c, a
      00102D D1               [12] 4241 	pop	de
      00102E D5               [16] 4242 	push	de
      00102F 1A               [ 8] 4243 	ld	a, (de)
      001030 81               [ 4] 4244 	add	a, c
      001031 4F               [ 4] 4245 	ld	c, a
      001032 2A               [ 8] 4246 	ld	a, (hl+)
      001033 5F               [ 4] 4247 	ld	e, a
      001034 56               [ 8] 4248 	ld	d, (hl)
      001035 1A               [ 8] 4249 	ld	a, (de)
      001036 C6 08            [ 8] 4250 	add	a, #0x08
      001038 5F               [ 4] 4251 	ld	e, a
      001039 F8 04            [12] 4252 	ldhl	sp,	#4
      00103B 46               [ 8] 4253 	ld	b, (hl)
      00103C 04               [ 4] 4254 	inc	b
      00103D 04               [ 4] 4255 	inc	b
      00103E 04               [ 4] 4256 	inc	b
                                   4257 ;C:/Users/sva13/OneDrive/ドキュメント/会社/課題/gbdk/Resources/gbdk/include/gb/gb.h:1675: OAM_item_t * itm = &shadow_OAM[nb];
      00103F 68               [ 4] 4258 	ld	l, b
                                   4259 ;	spillPairReg hl
                                   4260 ;	spillPairReg hl
      001040 26 00            [ 8] 4261 	ld	h, #0x00
                                   4262 ;	spillPairReg hl
                                   4263 ;	spillPairReg hl
      001042 29               [ 8] 4264 	add	hl, hl
      001043 29               [ 8] 4265 	add	hl, hl
      001044 D5               [16] 4266 	push	de
      001045 11r00r00         [12] 4267 	ld	de, #_shadow_OAM
      001048 19               [ 8] 4268 	add	hl, de
      001049 D1               [12] 4269 	pop	de
                                   4270 ;C:/Users/sva13/OneDrive/ドキュメント/会社/課題/gbdk/Resources/gbdk/include/gb/gb.h:1676: itm->y=y, itm->x=x;
      00104A 79               [ 4] 4271 	ld	a, c
      00104B 22               [ 8] 4272 	ld	(hl+), a
      00104C 73               [ 8] 4273 	ld	(hl), e
                           00104D  4274 	C$EyeExec.c$500$2_0$324	= .
                                   4275 	.globl	C$EyeExec.c$500$2_0$324
                                   4276 ;C:\Users\sva13\OneDrive\ドキュメント\会社\課題\gbdk\Project\gb-test\source\exec\EyeExec.c:500: move_sprite(spriteNum+3,*eyeX + 8, *eyeY + *eyeCnt);
      00104D 18 55            [12] 4277 	jr	00181$
      00104F                       4278 00159$:
                           00104F  4279 	C$EyeExec.c$503$3_0$326	= .
                                   4280 	.globl	C$EyeExec.c$503$3_0$326
                                   4281 ;C:\Users\sva13\OneDrive\ドキュメント\会社\課題\gbdk\Project\gb-test\source\exec\EyeExec.c:503: *eyeX = 255;
      00104F F8 09            [12] 4282 	ldhl	sp,	#9
      001051 2A               [ 8] 4283 	ld	a,	(hl+)
      001052 66               [ 8] 4284 	ld	h, (hl)
      001053 6F               [ 4] 4285 	ld	l, a
      001054 36 FF            [12] 4286 	ld	(hl), #0xff
                           001056  4287 	C$EyeExec.c$504$3_0$326	= .
                                   4288 	.globl	C$EyeExec.c$504$3_0$326
                                   4289 ;C:\Users\sva13\OneDrive\ドキュメント\会社\課題\gbdk\Project\gb-test\source\exec\EyeExec.c:504: *eyeY = 255;
      001056 F8 07            [12] 4290 	ldhl	sp,	#7
      001058 2A               [ 8] 4291 	ld	a,	(hl+)
      001059 66               [ 8] 4292 	ld	h, (hl)
      00105A 6F               [ 4] 4293 	ld	l, a
      00105B 36 FF            [12] 4294 	ld	(hl), #0xff
                                   4295 ;C:\Users\sva13\OneDrive\ドキュメント\会社\課題\gbdk\Project\gb-test\source\exec\EyeExec.c:505: move_sprite(spriteNum+2,*eyeX, *eyeY);
      00105D F8 07            [12] 4296 	ldhl	sp,#7
      00105F 2A               [ 8] 4297 	ld	a, (hl+)
      001060 5F               [ 4] 4298 	ld	e, a
      001061 2A               [ 8] 4299 	ld	a, (hl+)
      001062 57               [ 4] 4300 	ld	d, a
      001063 1A               [ 8] 4301 	ld	a, (de)
      001064 4F               [ 4] 4302 	ld	c, a
      001065 2A               [ 8] 4303 	ld	a, (hl+)
      001066 5F               [ 4] 4304 	ld	e, a
      001067 56               [ 8] 4305 	ld	d, (hl)
      001068 1A               [ 8] 4306 	ld	a, (de)
      001069 F8 06            [12] 4307 	ldhl	sp,	#6
      00106B 32               [ 8] 4308 	ld	(hl-), a
                                   4309 ;C:/Users/sva13/OneDrive/ドキュメント/会社/課題/gbdk/Resources/gbdk/include/gb/gb.h:1675: OAM_item_t * itm = &shadow_OAM[nb];
      00106C 6E               [ 8] 4310 	ld	l, (hl)
                                   4311 ;	spillPairReg hl
                                   4312 ;	spillPairReg hl
      00106D 26 00            [ 8] 4313 	ld	h, #0x00
                                   4314 ;	spillPairReg hl
                                   4315 ;	spillPairReg hl
      00106F 29               [ 8] 4316 	add	hl, hl
      001070 29               [ 8] 4317 	add	hl, hl
      001071 11r00r00         [12] 4318 	ld	de, #_shadow_OAM
      001074 19               [ 8] 4319 	add	hl, de
                                   4320 ;C:/Users/sva13/OneDrive/ドキュメント/会社/課題/gbdk/Resources/gbdk/include/gb/gb.h:1676: itm->y=y, itm->x=x;
      001075 79               [ 4] 4321 	ld	a, c
      001076 22               [ 8] 4322 	ld	(hl+), a
      001077 4D               [ 4] 4323 	ld	c, l
      001078 44               [ 4] 4324 	ld	b, h
      001079 F8 06            [12] 4325 	ldhl	sp,	#6
                                   4326 ;C:\Users\sva13\OneDrive\ドキュメント\会社\課題\gbdk\Project\gb-test\source\exec\EyeExec.c:506: move_sprite(spriteNum+3,*eyeX, *eyeY);
      00107B 2A               [ 8] 4327 	ld	a, (hl+)
      00107C 02               [ 8] 4328 	ld	(bc), a
      00107D 2A               [ 8] 4329 	ld	a, (hl+)
      00107E 5F               [ 4] 4330 	ld	e, a
      00107F 2A               [ 8] 4331 	ld	a, (hl+)
      001080 57               [ 4] 4332 	ld	d, a
      001081 1A               [ 8] 4333 	ld	a, (de)
      001082 4F               [ 4] 4334 	ld	c, a
      001083 2A               [ 8] 4335 	ld	a, (hl+)
      001084 5F               [ 4] 4336 	ld	e, a
      001085 56               [ 8] 4337 	ld	d, (hl)
      001086 1A               [ 8] 4338 	ld	a, (de)
      001087 F8 06            [12] 4339 	ldhl	sp,	#6
      001089 32               [ 8] 4340 	ld	(hl-), a
      00108A 2B               [ 8] 4341 	dec	hl
      00108B 46               [ 8] 4342 	ld	b, (hl)
      00108C 04               [ 4] 4343 	inc	b
      00108D 04               [ 4] 4344 	inc	b
      00108E 04               [ 4] 4345 	inc	b
                                   4346 ;C:/Users/sva13/OneDrive/ドキュメント/会社/課題/gbdk/Resources/gbdk/include/gb/gb.h:1675: OAM_item_t * itm = &shadow_OAM[nb];
      00108F 68               [ 4] 4347 	ld	l, b
                                   4348 ;	spillPairReg hl
                                   4349 ;	spillPairReg hl
      001090 26 00            [ 8] 4350 	ld	h, #0x00
                                   4351 ;	spillPairReg hl
                                   4352 ;	spillPairReg hl
      001092 29               [ 8] 4353 	add	hl, hl
      001093 29               [ 8] 4354 	add	hl, hl
      001094 11r00r00         [12] 4355 	ld	de, #_shadow_OAM
      001097 19               [ 8] 4356 	add	hl, de
                                   4357 ;C:/Users/sva13/OneDrive/ドキュメント/会社/課題/gbdk/Resources/gbdk/include/gb/gb.h:1676: itm->y=y, itm->x=x;
      001098 79               [ 4] 4358 	ld	a, c
      001099 22               [ 8] 4359 	ld	(hl+), a
      00109A 4D               [ 4] 4360 	ld	c, l
      00109B 44               [ 4] 4361 	ld	b, h
      00109C F8 06            [12] 4362 	ldhl	sp,	#6
      00109E 7E               [ 8] 4363 	ld	a, (hl)
      00109F 02               [ 8] 4364 	ld	(bc), a
                           0010A0  4365 	C$EyeExec.c$507$3_0$326	= .
                                   4366 	.globl	C$EyeExec.c$507$3_0$326
                                   4367 ;C:\Users\sva13\OneDrive\ドキュメント\会社\課題\gbdk\Project\gb-test\source\exec\EyeExec.c:507: *eyeCnt = 0;
      0010A0 E1               [12] 4368 	pop	hl
      0010A1 36 00            [12] 4369 	ld	(hl), #0x00
      0010A3 E5               [16] 4370 	push	hl
      0010A4                       4371 00181$:
                           0010A4  4372 	C$EyeExec.c$510$1_0$299	= .
                                   4373 	.globl	C$EyeExec.c$510$1_0$299
                                   4374 ;C:\Users\sva13\OneDrive\ドキュメント\会社\課題\gbdk\Project\gb-test\source\exec\EyeExec.c:510: if(*eyeMode == MOVEUP){
      0010A4 F8 14            [12] 4375 	ldhl	sp,	#20
      0010A6 7E               [ 8] 4376 	ld	a, (hl)
      0010A7 F8 03            [12] 4377 	ldhl	sp,	#3
      0010A9 77               [ 8] 4378 	ld	(hl), a
      0010AA F8 15            [12] 4379 	ldhl	sp,	#21
      0010AC 7E               [ 8] 4380 	ld	a, (hl)
      0010AD F8 04            [12] 4381 	ldhl	sp,	#4
      0010AF 32               [ 8] 4382 	ld	(hl-), a
      0010B0 2A               [ 8] 4383 	ld	a, (hl+)
      0010B1 5F               [ 4] 4384 	ld	e, a
      0010B2 56               [ 8] 4385 	ld	d, (hl)
      0010B3 1A               [ 8] 4386 	ld	a, (de)
      0010B4 4F               [ 4] 4387 	ld	c, a
                           0010B5  4388 	C$EyeExec.c$511$1_0$299	= .
                                   4389 	.globl	C$EyeExec.c$511$1_0$299
                                   4390 ;C:\Users\sva13\OneDrive\ドキュメント\会社\課題\gbdk\Project\gb-test\source\exec\EyeExec.c:511: if(*bkgY < 40){
      0010B5 F8 0F            [12] 4391 	ldhl	sp,	#15
      0010B7 7E               [ 8] 4392 	ld	a, (hl)
      0010B8 F8 05            [12] 4393 	ldhl	sp,	#5
      0010BA 77               [ 8] 4394 	ld	(hl), a
      0010BB F8 10            [12] 4395 	ldhl	sp,	#16
      0010BD 7E               [ 8] 4396 	ld	a, (hl)
      0010BE F8 06            [12] 4397 	ldhl	sp,	#6
      0010C0 77               [ 8] 4398 	ld	(hl), a
                           0010C1  4399 	C$EyeExec.c$510$1_0$299	= .
                                   4400 	.globl	C$EyeExec.c$510$1_0$299
                                   4401 ;C:\Users\sva13\OneDrive\ドキュメント\会社\課題\gbdk\Project\gb-test\source\exec\EyeExec.c:510: if(*eyeMode == MOVEUP){
      0010C1 79               [ 4] 4402 	ld	a, c
      0010C2 3D               [ 4] 4403 	dec	a
      0010C3 20 30            [12] 4404 	jr	NZ, 00208$
                           0010C5  4405 	C$EyeExec.c$511$2_0$327	= .
                                   4406 	.globl	C$EyeExec.c$511$2_0$327
                                   4407 ;C:\Users\sva13\OneDrive\ドキュメント\会社\課題\gbdk\Project\gb-test\source\exec\EyeExec.c:511: if(*bkgY < 40){
      0010C5 2B               [ 8] 4408 	dec	hl
      0010C6 2A               [ 8] 4409 	ld	a, (hl+)
      0010C7 5F               [ 4] 4410 	ld	e, a
      0010C8 56               [ 8] 4411 	ld	d, (hl)
      0010C9 1A               [ 8] 4412 	ld	a, (de)
      0010CA FE 28            [ 8] 4413 	cp	a, #0x28
      0010CC D2r76r11         [16] 4414 	jp	NC, 00209$
                           0010CF  4415 	C$EyeExec.c$512$3_0$328	= .
                                   4416 	.globl	C$EyeExec.c$512$3_0$328
                                   4417 ;C:\Users\sva13\OneDrive\ドキュメント\会社\課題\gbdk\Project\gb-test\source\exec\EyeExec.c:512: if((40 - *bkgY) == *eyeY){
      0010CF 23               [ 8] 4418 	inc	hl
      0010D0 4F               [ 4] 4419 	ld	c, a
      0010D1 06 00            [ 8] 4420 	ld	b, #0x00
      0010D3 3E 28            [ 8] 4421 	ld	a, #0x28
      0010D5 91               [ 4] 4422 	sub	a, c
      0010D6 4F               [ 4] 4423 	ld	c, a
      0010D7 9F               [ 4] 4424 	sbc	a, a
      0010D8 90               [ 4] 4425 	sub	a, b
      0010D9 47               [ 4] 4426 	ld	b, a
      0010DA 2A               [ 8] 4427 	ld	a, (hl+)
      0010DB 5F               [ 4] 4428 	ld	e, a
      0010DC 56               [ 8] 4429 	ld	d, (hl)
      0010DD 1A               [ 8] 4430 	ld	a, (de)
      0010DE 5F               [ 4] 4431 	ld	e, a
      0010DF 16 00            [ 8] 4432 	ld	d, #0x00
      0010E1 7B               [ 4] 4433 	ld	a, e
      0010E2 91               [ 4] 4434 	sub	a, c
      0010E3 C2r76r11         [16] 4435 	jp	NZ,00209$
      0010E6 7A               [ 4] 4436 	ld	a, d
      0010E7 90               [ 4] 4437 	sub	a, b
      0010E8 C2r76r11         [16] 4438 	jp	NZ,00209$
                           0010EB  4439 	C$EyeExec.c$513$4_0$329	= .
                                   4440 	.globl	C$EyeExec.c$513$4_0$329
                                   4441 ;C:\Users\sva13\OneDrive\ドキュメント\会社\課題\gbdk\Project\gb-test\source\exec\EyeExec.c:513: *eyeMode = MOVEDOWN;
      0010EB F8 03            [12] 4442 	ldhl	sp,	#3
      0010ED 2A               [ 8] 4443 	ld	a,	(hl+)
      0010EE 66               [ 8] 4444 	ld	h, (hl)
      0010EF 6F               [ 4] 4445 	ld	l, a
      0010F0 36 03            [12] 4446 	ld	(hl), #0x03
      0010F2 C3r76r11         [16] 4447 	jp	00209$
      0010F5                       4448 00208$:
                           0010F5  4449 	C$EyeExec.c$518$1_0$299	= .
                                   4450 	.globl	C$EyeExec.c$518$1_0$299
                                   4451 ;C:\Users\sva13\OneDrive\ドキュメント\会社\課題\gbdk\Project\gb-test\source\exec\EyeExec.c:518: if(*bkgX >= 72){
      0010F5 F8 0D            [12] 4452 	ldhl	sp,	#13
      0010F7 2A               [ 8] 4453 	ld	a, (hl+)
      0010F8 5F               [ 4] 4454 	ld	e, a
      0010F9 56               [ 8] 4455 	ld	d, (hl)
                           0010FA  4456 	C$EyeExec.c$517$1_0$299	= .
                                   4457 	.globl	C$EyeExec.c$517$1_0$299
                                   4458 ;C:\Users\sva13\OneDrive\ドキュメント\会社\課題\gbdk\Project\gb-test\source\exec\EyeExec.c:517: else if(*eyeMode == MOVERIGHT){
      0010FA 79               [ 4] 4459 	ld	a, c
      0010FB D6 02            [ 8] 4460 	sub	a, #0x02
      0010FD 20 21            [12] 4461 	jr	NZ, 00205$
                           0010FF  4462 	C$EyeExec.c$518$2_0$330	= .
                                   4463 	.globl	C$EyeExec.c$518$2_0$330
                                   4464 ;C:\Users\sva13\OneDrive\ドキュメント\会社\課題\gbdk\Project\gb-test\source\exec\EyeExec.c:518: if(*bkgX >= 72){
      0010FF 1A               [ 8] 4465 	ld	a, (de)
      001100 FE 48            [ 8] 4466 	cp	a, #0x48
      001102 38 72            [12] 4467 	jr	C, 00209$
                           001104  4468 	C$EyeExec.c$519$3_0$331	= .
                                   4469 	.globl	C$EyeExec.c$519$3_0$331
                                   4470 ;C:\Users\sva13\OneDrive\ドキュメント\会社\課題\gbdk\Project\gb-test\source\exec\EyeExec.c:519: if((*bkgX + *eyeX) == 216){
      001104 4F               [ 4] 4471 	ld	c, a
      001105 06 00            [ 8] 4472 	ld	b, #0x00
      001107 F8 09            [12] 4473 	ldhl	sp,#9
      001109 2A               [ 8] 4474 	ld	a, (hl+)
      00110A 5F               [ 4] 4475 	ld	e, a
      00110B 56               [ 8] 4476 	ld	d, (hl)
      00110C 1A               [ 8] 4477 	ld	a, (de)
      00110D 26 00            [ 8] 4478 	ld	h, #0x00
                                   4479 ;	spillPairReg hl
                                   4480 ;	spillPairReg hl
      00110F 6F               [ 4] 4481 	ld	l, a
      001110 09               [ 8] 4482 	add	hl, bc
      001111 7D               [ 4] 4483 	ld	a, l
      001112 D6 D8            [ 8] 4484 	sub	a, #0xd8
      001114 B4               [ 4] 4485 	or	a, h
      001115 20 5F            [12] 4486 	jr	NZ, 00209$
                           001117  4487 	C$EyeExec.c$520$4_0$332	= .
                                   4488 	.globl	C$EyeExec.c$520$4_0$332
                                   4489 ;C:\Users\sva13\OneDrive\ドキュメント\会社\課題\gbdk\Project\gb-test\source\exec\EyeExec.c:520: *eyeMode = MOVELEFT;
      001117 F8 03            [12] 4490 	ldhl	sp,	#3
      001119 2A               [ 8] 4491 	ld	a,	(hl+)
      00111A 66               [ 8] 4492 	ld	h, (hl)
      00111B 6F               [ 4] 4493 	ld	l, a
      00111C 36 04            [12] 4494 	ld	(hl), #0x04
      00111E 18 56            [12] 4495 	jr	00209$
      001120                       4496 00205$:
                           001120  4497 	C$EyeExec.c$524$1_0$299	= .
                                   4498 	.globl	C$EyeExec.c$524$1_0$299
                                   4499 ;C:\Users\sva13\OneDrive\ドキュメント\会社\課題\gbdk\Project\gb-test\source\exec\EyeExec.c:524: else if(*eyeMode == MOVEDOWN){
      001120 79               [ 4] 4500 	ld	a, c
      001121 D6 03            [ 8] 4501 	sub	a, #0x03
      001123 20 25            [12] 4502 	jr	NZ, 00202$
                           001125  4503 	C$EyeExec.c$525$2_0$333	= .
                                   4504 	.globl	C$EyeExec.c$525$2_0$333
                                   4505 ;C:\Users\sva13\OneDrive\ドキュメント\会社\課題\gbdk\Project\gb-test\source\exec\EyeExec.c:525: if(*bkgY >= 88){
      001125 F8 05            [12] 4506 	ldhl	sp,#5
      001127 2A               [ 8] 4507 	ld	a, (hl+)
      001128 5F               [ 4] 4508 	ld	e, a
      001129 56               [ 8] 4509 	ld	d, (hl)
      00112A 1A               [ 8] 4510 	ld	a, (de)
      00112B FE 58            [ 8] 4511 	cp	a, #0x58
      00112D 38 47            [12] 4512 	jr	C, 00209$
                           00112F  4513 	C$EyeExec.c$526$3_0$334	= .
                                   4514 	.globl	C$EyeExec.c$526$3_0$334
                                   4515 ;C:\Users\sva13\OneDrive\ドキュメント\会社\課題\gbdk\Project\gb-test\source\exec\EyeExec.c:526: if((*bkgY + *eyeY) == 224){
      00112F 23               [ 8] 4516 	inc	hl
      001130 4F               [ 4] 4517 	ld	c, a
      001131 06 00            [ 8] 4518 	ld	b, #0x00
      001133 2A               [ 8] 4519 	ld	a, (hl+)
      001134 5F               [ 4] 4520 	ld	e, a
      001135 56               [ 8] 4521 	ld	d, (hl)
      001136 1A               [ 8] 4522 	ld	a, (de)
      001137 26 00            [ 8] 4523 	ld	h, #0x00
                                   4524 ;	spillPairReg hl
                                   4525 ;	spillPairReg hl
      001139 6F               [ 4] 4526 	ld	l, a
      00113A 09               [ 8] 4527 	add	hl, bc
      00113B 7D               [ 4] 4528 	ld	a, l
      00113C D6 E0            [ 8] 4529 	sub	a, #0xe0
      00113E B4               [ 4] 4530 	or	a, h
      00113F 20 35            [12] 4531 	jr	NZ, 00209$
                           001141  4532 	C$EyeExec.c$527$4_0$335	= .
                                   4533 	.globl	C$EyeExec.c$527$4_0$335
                                   4534 ;C:\Users\sva13\OneDrive\ドキュメント\会社\課題\gbdk\Project\gb-test\source\exec\EyeExec.c:527: *eyeMode = MOVEUP;
      001141 F8 03            [12] 4535 	ldhl	sp,	#3
      001143 2A               [ 8] 4536 	ld	a,	(hl+)
      001144 66               [ 8] 4537 	ld	h, (hl)
      001145 6F               [ 4] 4538 	ld	l, a
      001146 36 01            [12] 4539 	ld	(hl), #0x01
      001148 18 2C            [12] 4540 	jr	00209$
      00114A                       4541 00202$:
                           00114A  4542 	C$EyeExec.c$531$1_0$299	= .
                                   4543 	.globl	C$EyeExec.c$531$1_0$299
                                   4544 ;C:\Users\sva13\OneDrive\ドキュメント\会社\課題\gbdk\Project\gb-test\source\exec\EyeExec.c:531: else if(*eyeMode == MOVELEFT){
      00114A 79               [ 4] 4545 	ld	a, c
      00114B D6 04            [ 8] 4546 	sub	a, #0x04
      00114D 20 27            [12] 4547 	jr	NZ, 00209$
                           00114F  4548 	C$EyeExec.c$532$2_0$336	= .
                                   4549 	.globl	C$EyeExec.c$532$2_0$336
                                   4550 ;C:\Users\sva13\OneDrive\ドキュメント\会社\課題\gbdk\Project\gb-test\source\exec\EyeExec.c:532: if(*bkgX < 40){
      00114F 1A               [ 8] 4551 	ld	a, (de)
      001150 FE 28            [ 8] 4552 	cp	a, #0x28
      001152 30 22            [12] 4553 	jr	NC, 00209$
                           001154  4554 	C$EyeExec.c$533$3_0$337	= .
                                   4555 	.globl	C$EyeExec.c$533$3_0$337
                                   4556 ;C:\Users\sva13\OneDrive\ドキュメント\会社\課題\gbdk\Project\gb-test\source\exec\EyeExec.c:533: if((40 - *bkgX) == *eyeX){
      001154 4F               [ 4] 4557 	ld	c, a
      001155 06 00            [ 8] 4558 	ld	b, #0x00
      001157 3E 28            [ 8] 4559 	ld	a, #0x28
      001159 91               [ 4] 4560 	sub	a, c
      00115A 4F               [ 4] 4561 	ld	c, a
      00115B 9F               [ 4] 4562 	sbc	a, a
      00115C 90               [ 4] 4563 	sub	a, b
      00115D 47               [ 4] 4564 	ld	b, a
      00115E F8 09            [12] 4565 	ldhl	sp,#9
      001160 2A               [ 8] 4566 	ld	a, (hl+)
      001161 5F               [ 4] 4567 	ld	e, a
      001162 56               [ 8] 4568 	ld	d, (hl)
      001163 1A               [ 8] 4569 	ld	a, (de)
      001164 5F               [ 4] 4570 	ld	e, a
      001165 16 00            [ 8] 4571 	ld	d, #0x00
      001167 7B               [ 4] 4572 	ld	a, e
      001168 91               [ 4] 4573 	sub	a, c
      001169 20 0B            [12] 4574 	jr	NZ, 00209$
      00116B 7A               [ 4] 4575 	ld	a, d
      00116C 90               [ 4] 4576 	sub	a, b
      00116D 20 07            [12] 4577 	jr	NZ, 00209$
                           00116F  4578 	C$EyeExec.c$534$4_0$338	= .
                                   4579 	.globl	C$EyeExec.c$534$4_0$338
                                   4580 ;C:\Users\sva13\OneDrive\ドキュメント\会社\課題\gbdk\Project\gb-test\source\exec\EyeExec.c:534: *eyeMode = MOVERIGHT;
      00116F F8 03            [12] 4581 	ldhl	sp,	#3
      001171 2A               [ 8] 4582 	ld	a,	(hl+)
      001172 66               [ 8] 4583 	ld	h, (hl)
      001173 6F               [ 4] 4584 	ld	l, a
      001174 36 02            [12] 4585 	ld	(hl), #0x02
      001176                       4586 00209$:
                           001176  4587 	C$EyeExec.c$538$1_0$299	= .
                                   4588 	.globl	C$EyeExec.c$538$1_0$299
                                   4589 ;C:\Users\sva13\OneDrive\ドキュメント\会社\課題\gbdk\Project\gb-test\source\exec\EyeExec.c:538: if((*eyeX > 168) || *eyeY > 152){
      001176 F8 09            [12] 4590 	ldhl	sp,#9
      001178 2A               [ 8] 4591 	ld	a, (hl+)
      001179 5F               [ 4] 4592 	ld	e, a
      00117A 56               [ 8] 4593 	ld	d, (hl)
      00117B 1A               [ 8] 4594 	ld	a, (de)
      00117C 4F               [ 4] 4595 	ld	c, a
      00117D 3E A8            [ 8] 4596 	ld	a, #0xa8
      00117F 91               [ 4] 4597 	sub	a, c
      001180 38 0D            [12] 4598 	jr	C, 00210$
      001182 2B               [ 8] 4599 	dec	hl
      001183 2B               [ 8] 4600 	dec	hl
      001184 2B               [ 8] 4601 	dec	hl
      001185 2A               [ 8] 4602 	ld	a, (hl+)
      001186 5F               [ 4] 4603 	ld	e, a
      001187 56               [ 8] 4604 	ld	d, (hl)
      001188 1A               [ 8] 4605 	ld	a, (de)
      001189 4F               [ 4] 4606 	ld	c, a
      00118A 3E 98            [ 8] 4607 	ld	a, #0x98
      00118C 91               [ 4] 4608 	sub	a, c
      00118D 30 0E            [12] 4609 	jr	NC, 00219$
      00118F                       4610 00210$:
                           00118F  4611 	C$EyeExec.c$539$2_0$339	= .
                                   4612 	.globl	C$EyeExec.c$539$2_0$339
                                   4613 ;C:\Users\sva13\OneDrive\ドキュメント\会社\課題\gbdk\Project\gb-test\source\exec\EyeExec.c:539: *eyeX = 255;
      00118F F8 09            [12] 4614 	ldhl	sp,	#9
      001191 2A               [ 8] 4615 	ld	a,	(hl+)
      001192 66               [ 8] 4616 	ld	h, (hl)
      001193 6F               [ 4] 4617 	ld	l, a
      001194 36 FF            [12] 4618 	ld	(hl), #0xff
                           001196  4619 	C$EyeExec.c$540$2_0$339	= .
                                   4620 	.globl	C$EyeExec.c$540$2_0$339
                                   4621 ;C:\Users\sva13\OneDrive\ドキュメント\会社\課題\gbdk\Project\gb-test\source\exec\EyeExec.c:540: *eyeY = 255;
      001196 F8 07            [12] 4622 	ldhl	sp,	#7
      001198 2A               [ 8] 4623 	ld	a,	(hl+)
      001199 66               [ 8] 4624 	ld	h, (hl)
      00119A 6F               [ 4] 4625 	ld	l, a
      00119B 36 FF            [12] 4626 	ld	(hl), #0xff
      00119D                       4627 00219$:
                           00119D  4628 	C$EyeExec.c$542$1_0$299	= .
                                   4629 	.globl	C$EyeExec.c$542$1_0$299
                                   4630 ;C:\Users\sva13\OneDrive\ドキュメント\会社\課題\gbdk\Project\gb-test\source\exec\EyeExec.c:542: }
      00119D E8 0B            [16] 4631 	add	sp, #11
      00119F E1               [12] 4632 	pop	hl
      0011A0 E8 0B            [16] 4633 	add	sp, #11
      0011A2 E9               [ 4] 4634 	jp	(hl)
                           0011A3  4635 	G$EyeExec$0$0	= .
                                   4636 	.globl	G$EyeExec$0$0
                           0011A3  4637 	C$EyeExec.c$544$1_0$359	= .
                                   4638 	.globl	C$EyeExec.c$544$1_0$359
                                   4639 ;C:\Users\sva13\OneDrive\ドキュメント\会社\課題\gbdk\Project\gb-test\source\exec\EyeExec.c:544: void EyeExec(uint8_t *heroX, uint8_t *heroY, uint8_t *bkgX, uint8_t *bkgY){
                                   4640 ;	---------------------------------
                                   4641 ; Function EyeExec
                                   4642 ; ---------------------------------
      0011A3                       4643 _EyeExec::
                           0011A3  4644 	C$EyeExec.c$545$1_0$359	= .
                                   4645 	.globl	C$EyeExec.c$545$1_0$359
                                   4646 ;C:\Users\sva13\OneDrive\ドキュメント\会社\課題\gbdk\Project\gb-test\source\exec\EyeExec.c:545: if(eye1X == 255){
      0011A3 FAr00r00         [16] 4647 	ld	a, (#_eye1X)
      0011A6 3C               [ 4] 4648 	inc	a
      0011A7 20 29            [12] 4649 	jr	NZ, 00102$
                           0011A9  4650 	C$EyeExec.c$546$2_0$360	= .
                                   4651 	.globl	C$EyeExec.c$546$2_0$360
                                   4652 ;C:\Users\sva13\OneDrive\ドキュメント\会社\課題\gbdk\Project\gb-test\source\exec\EyeExec.c:546: EyeInit(&eye1X, &eye1Y, heroX, heroY, bkgX, bkgY, 8, 4, 8, &eye1Mode, &eye1Cnt);
      0011A9 21r08r00         [12] 4653 	ld	hl, #_eye1Cnt
      0011AC E5               [16] 4654 	push	hl
      0011AD 21r04r00         [12] 4655 	ld	hl, #_eye1Mode
      0011B0 E5               [16] 4656 	push	hl
      0011B1 21 04 08         [12] 4657 	ld	hl, #0x804
      0011B4 E5               [16] 4658 	push	hl
      0011B5 3E 08            [ 8] 4659 	ld	a, #0x08
      0011B7 F5               [16] 4660 	push	af
      0011B8 33               [ 8] 4661 	inc	sp
      0011B9 F8 0B            [12] 4662 	ldhl	sp,	#11
      0011BB 2A               [ 8] 4663 	ld	a, (hl+)
      0011BC 66               [ 8] 4664 	ld	h, (hl)
                                   4665 ;	spillPairReg hl
                                   4666 ;	spillPairReg hl
      0011BD 6F               [ 4] 4667 	ld	l, a
                                   4668 ;	spillPairReg hl
                                   4669 ;	spillPairReg hl
      0011BE E5               [16] 4670 	push	hl
      0011BF F8 0B            [12] 4671 	ldhl	sp,	#11
      0011C1 2A               [ 8] 4672 	ld	a, (hl+)
      0011C2 66               [ 8] 4673 	ld	h, (hl)
                                   4674 ;	spillPairReg hl
                                   4675 ;	spillPairReg hl
      0011C3 6F               [ 4] 4676 	ld	l, a
                                   4677 ;	spillPairReg hl
                                   4678 ;	spillPairReg hl
      0011C4 E5               [16] 4679 	push	hl
      0011C5 C5               [16] 4680 	push	bc
      0011C6 D5               [16] 4681 	push	de
      0011C7 01r01r00         [12] 4682 	ld	bc, #_eye1Y
      0011CA 11r00r00         [12] 4683 	ld	de, #_eye1X
      0011CD CDr3Fr01         [24] 4684 	call	_EyeInit
      0011D0 18 25            [12] 4685 	jr	00103$
      0011D2                       4686 00102$:
                           0011D2  4687 	C$EyeExec.c$549$2_0$361	= .
                                   4688 	.globl	C$EyeExec.c$549$2_0$361
                                   4689 ;C:\Users\sva13\OneDrive\ドキュメント\会社\課題\gbdk\Project\gb-test\source\exec\EyeExec.c:549: EyeExecMain(&eye1X, &eye1Y, bkgX, bkgY, 8, 4, 8, &eye1Mode, &eye1Cnt);
      0011D2 11r08r00         [12] 4690 	ld	de, #_eye1Cnt
      0011D5 D5               [16] 4691 	push	de
      0011D6 11r04r00         [12] 4692 	ld	de, #_eye1Mode
      0011D9 D5               [16] 4693 	push	de
      0011DA 21 04 08         [12] 4694 	ld	hl, #0x804
      0011DD E5               [16] 4695 	push	hl
      0011DE 3E 08            [ 8] 4696 	ld	a, #0x08
      0011E0 F5               [16] 4697 	push	af
      0011E1 33               [ 8] 4698 	inc	sp
      0011E2 F8 0B            [12] 4699 	ldhl	sp,	#11
      0011E4 2A               [ 8] 4700 	ld	a, (hl+)
      0011E5 5F               [ 4] 4701 	ld	e, a
      0011E6 56               [ 8] 4702 	ld	d, (hl)
      0011E7 D5               [16] 4703 	push	de
      0011E8 F8 0B            [12] 4704 	ldhl	sp,	#11
      0011EA 2A               [ 8] 4705 	ld	a, (hl+)
      0011EB 5F               [ 4] 4706 	ld	e, a
      0011EC 56               [ 8] 4707 	ld	d, (hl)
      0011ED D5               [16] 4708 	push	de
      0011EE 01r01r00         [12] 4709 	ld	bc, #_eye1Y
      0011F1 11r00r00         [12] 4710 	ld	de, #_eye1X
      0011F4 CDr22r0D         [24] 4711 	call	_EyeExecMain
      0011F7                       4712 00103$:
                           0011F7  4713 	C$EyeExec.c$553$1_0$359	= .
                                   4714 	.globl	C$EyeExec.c$553$1_0$359
                                   4715 ;C:\Users\sva13\OneDrive\ドキュメント\会社\課題\gbdk\Project\gb-test\source\exec\EyeExec.c:553: adjustCnt = adjustCnt + 1;
      0011F7 21r0Ar00         [12] 4716 	ld	hl, #_adjustCnt
      0011FA 34               [12] 4717 	inc	(hl)
      0011FB 7E               [ 8] 4718 	ld	a, (hl)
                           0011FC  4719 	C$EyeExec.c$554$1_0$359	= .
                                   4720 	.globl	C$EyeExec.c$554$1_0$359
                                   4721 ;C:\Users\sva13\OneDrive\ドキュメント\会社\課題\gbdk\Project\gb-test\source\exec\EyeExec.c:554: }
      0011FC E1               [12] 4722 	pop	hl
      0011FD E8 04            [16] 4723 	add	sp, #4
      0011FF E9               [ 4] 4724 	jp	(hl)
                           001200  4725 	G$EyePosAdjust$0$0	= .
                                   4726 	.globl	G$EyePosAdjust$0$0
                           001200  4727 	C$EyeExec.c$556$1_0$364	= .
                                   4728 	.globl	C$EyeExec.c$556$1_0$364
                                   4729 ;C:\Users\sva13\OneDrive\ドキュメント\会社\課題\gbdk\Project\gb-test\source\exec\EyeExec.c:556: void EyePosAdjust(int8_t adjustX, int8_t adjustY){
                                   4730 ;	---------------------------------
                                   4731 ; Function EyePosAdjust
                                   4732 ; ---------------------------------
      001200                       4733 _EyePosAdjust::
      001200 4F               [ 4] 4734 	ld	c, a
                           001201  4735 	C$EyeExec.c$557$1_0$364	= .
                                   4736 	.globl	C$EyeExec.c$557$1_0$364
                                   4737 ;C:\Users\sva13\OneDrive\ドキュメント\会社\課題\gbdk\Project\gb-test\source\exec\EyeExec.c:557: if(eye1X != 255){
      001201 FAr00r00         [16] 4738 	ld	a, (#_eye1X)
      001204 3C               [ 4] 4739 	inc	a
      001205 C8               [20] 4740 	ret	Z
                           001206  4741 	C$EyeExec.c$558$2_0$365	= .
                                   4742 	.globl	C$EyeExec.c$558$2_0$365
                                   4743 ;C:\Users\sva13\OneDrive\ドキュメント\会社\課題\gbdk\Project\gb-test\source\exec\EyeExec.c:558: eye1X = eye1X + adjustX;
      001206 21r00r00         [12] 4744 	ld	hl, #_eye1X
      001209 7E               [ 8] 4745 	ld	a, (hl)
      00120A 81               [ 4] 4746 	add	a, c
      00120B 77               [ 8] 4747 	ld	(hl), a
                           00120C  4748 	C$EyeExec.c$559$2_0$365	= .
                                   4749 	.globl	C$EyeExec.c$559$2_0$365
                                   4750 ;C:\Users\sva13\OneDrive\ドキュメント\会社\課題\gbdk\Project\gb-test\source\exec\EyeExec.c:559: eye1Y = eye1Y + adjustY;
      00120C 21r01r00         [12] 4751 	ld	hl, #_eye1Y
      00120F 7E               [ 8] 4752 	ld	a, (hl)
      001210 83               [ 4] 4753 	add	a, e
      001211 77               [ 8] 4754 	ld	(hl), a
                                   4755 ;C:\Users\sva13\OneDrive\ドキュメント\会社\課題\gbdk\Project\gb-test\source\exec\EyeExec.c:560: move_sprite(6,eye1X, eye1Y);
      001212 5E               [ 8] 4756 	ld	e, (hl)
      001213 21r00r00         [12] 4757 	ld	hl, #_eye1X
      001216 4E               [ 8] 4758 	ld	c, (hl)
                                   4759 ;C:/Users/sva13/OneDrive/ドキュメント/会社/課題/gbdk/Resources/gbdk/include/gb/gb.h:1675: OAM_item_t * itm = &shadow_OAM[nb];
      001217 21r18r00         [12] 4760 	ld	hl, #(_shadow_OAM + 24)
                                   4761 ;C:/Users/sva13/OneDrive/ドキュメント/会社/課題/gbdk/Resources/gbdk/include/gb/gb.h:1676: itm->y=y, itm->x=x;
      00121A 7B               [ 4] 4762 	ld	a, e
      00121B 22               [ 8] 4763 	ld	(hl+), a
      00121C 71               [ 8] 4764 	ld	(hl), c
                                   4765 ;C:\Users\sva13\OneDrive\ドキュメント\会社\課題\gbdk\Project\gb-test\source\exec\EyeExec.c:561: move_sprite(7,eye1X + 8, eye1Y);
      00121D 21r01r00         [12] 4766 	ld	hl, #_eye1Y
      001220 5E               [ 8] 4767 	ld	e, (hl)
      001221 FAr00r00         [16] 4768 	ld	a, (#_eye1X)
      001224 C6 08            [ 8] 4769 	add	a, #0x08
      001226 4F               [ 4] 4770 	ld	c, a
                                   4771 ;C:/Users/sva13/OneDrive/ドキュメント/会社/課題/gbdk/Resources/gbdk/include/gb/gb.h:1675: OAM_item_t * itm = &shadow_OAM[nb];
      001227 21r1Cr00         [12] 4772 	ld	hl, #(_shadow_OAM + 28)
                                   4773 ;C:/Users/sva13/OneDrive/ドキュメント/会社/課題/gbdk/Resources/gbdk/include/gb/gb.h:1676: itm->y=y, itm->x=x;
      00122A 7B               [ 4] 4774 	ld	a, e
      00122B 22               [ 8] 4775 	ld	(hl+), a
      00122C 71               [ 8] 4776 	ld	(hl), c
                           00122D  4777 	C$EyeExec.c$561$1_0$364	= .
                                   4778 	.globl	C$EyeExec.c$561$1_0$364
                                   4779 ;C:\Users\sva13\OneDrive\ドキュメント\会社\課題\gbdk\Project\gb-test\source\exec\EyeExec.c:561: move_sprite(7,eye1X + 8, eye1Y);
                           00122D  4780 	C$EyeExec.c$563$1_0$364	= .
                                   4781 	.globl	C$EyeExec.c$563$1_0$364
                                   4782 ;C:\Users\sva13\OneDrive\ドキュメント\会社\課題\gbdk\Project\gb-test\source\exec\EyeExec.c:563: }
                           00122D  4783 	C$EyeExec.c$563$1_0$364	= .
                                   4784 	.globl	C$EyeExec.c$563$1_0$364
                           00122D  4785 	XG$EyePosAdjust$0$0	= .
                                   4786 	.globl	XG$EyePosAdjust$0$0
      00122D C9               [16] 4787 	ret
                           00122E  4788 	G$DamageCheck$0$0	= .
                                   4789 	.globl	G$DamageCheck$0$0
                           00122E  4790 	C$EyeExec.c$565$1_0$373	= .
                                   4791 	.globl	C$EyeExec.c$565$1_0$373
                                   4792 ;C:\Users\sva13\OneDrive\ドキュメント\会社\課題\gbdk\Project\gb-test\source\exec\EyeExec.c:565: BOOLEAN DamageCheck(uint8_t *heroX, uint8_t *heroY){
                                   4793 ;	---------------------------------
                                   4794 ; Function DamageCheck
                                   4795 ; ---------------------------------
      00122E                       4796 _DamageCheck::
      00122E E8 FA            [16] 4797 	add	sp, #-6
      001230 F8 04            [12] 4798 	ldhl	sp,	#4
      001232 79               [ 4] 4799 	ld	a, c
      001233 22               [ 8] 4800 	ld	(hl+), a
      001234 70               [ 8] 4801 	ld	(hl), b
                           001235  4802 	C$EyeExec.c$566$1_0$373	= .
                                   4803 	.globl	C$EyeExec.c$566$1_0$373
                                   4804 ;C:\Users\sva13\OneDrive\ドキュメント\会社\課題\gbdk\Project\gb-test\source\exec\EyeExec.c:566: if(eye1X != 255){
      001235 FAr00r00         [16] 4805 	ld	a, (#_eye1X)
      001238 3C               [ 4] 4806 	inc	a
      001239 CArF0r12         [16] 4807 	jp	Z,00107$
                           00123C  4808 	C$EyeExec.c$567$2_0$374	= .
                                   4809 	.globl	C$EyeExec.c$567$2_0$374
                                   4810 ;C:\Users\sva13\OneDrive\ドキュメント\会社\課題\gbdk\Project\gb-test\source\exec\EyeExec.c:567: if(((*heroX+8 >= eye1X) && (*heroX-8 <= eye1X)) && ((*heroY+8 >= eye1Y) && (*heroY-8 <= eye1Y))){
      00123C 1A               [ 8] 4811 	ld	a, (de)
      00123D 4F               [ 4] 4812 	ld	c, a
      00123E 06 00            [ 8] 4813 	ld	b, #0x00
      001240 21 08 00         [12] 4814 	ld	hl, #0x0008
      001243 09               [ 8] 4815 	add	hl, bc
      001244 33               [ 8] 4816 	inc	sp
      001245 33               [ 8] 4817 	inc	sp
      001246 E5               [16] 4818 	push	hl
      001247 FAr00r00         [16] 4819 	ld	a, (#_eye1X)
      00124A F8 02            [12] 4820 	ldhl	sp,	#2
      00124C 22               [ 8] 4821 	ld	(hl+), a
      00124D 36 00            [12] 4822 	ld	(hl), #0x00
      00124F F8 00            [12] 4823 	ldhl	sp,	#0
      001251 5D               [ 4] 4824 	ld	e, l
      001252 54               [ 4] 4825 	ld	d, h
      001253 F8 02            [12] 4826 	ldhl	sp,	#2
      001255 1A               [ 8] 4827 	ld	a, (de)
      001256 13               [ 8] 4828 	inc	de
      001257 96               [ 8] 4829 	sub	a, (hl)
      001258 23               [ 8] 4830 	inc	hl
      001259 1A               [ 8] 4831 	ld	a, (de)
      00125A 9E               [ 8] 4832 	sbc	a, (hl)
      00125B 1A               [ 8] 4833 	ld	a, (de)
      00125C 57               [ 4] 4834 	ld	d, a
      00125D CB 7E            [12] 4835 	bit	7, (hl)
      00125F 28 07            [12] 4836 	jr	Z, 00136$
      001261 CB 7A            [ 8] 4837 	bit	7, d
      001263 20 08            [12] 4838 	jr	NZ, 00137$
      001265 BF               [ 4] 4839 	cp	a, a
      001266 18 05            [12] 4840 	jr	00137$
      001268                       4841 00136$:
      001268 CB 7A            [ 8] 4842 	bit	7, d
      00126A 28 01            [12] 4843 	jr	Z, 00137$
      00126C 37               [ 4] 4844 	scf
      00126D                       4845 00137$:
      00126D DArF0r12         [16] 4846 	jp	C, 00107$
      001270 79               [ 4] 4847 	ld	a, c
      001271 C6 F8            [ 8] 4848 	add	a, #0xf8
      001273 4F               [ 4] 4849 	ld	c, a
      001274 78               [ 4] 4850 	ld	a, b
      001275 CE FF            [ 8] 4851 	adc	a, #0xff
      001277 47               [ 4] 4852 	ld	b, a
      001278 F8 02            [12] 4853 	ldhl	sp,	#2
      00127A 2A               [ 8] 4854 	ld	a, (hl+)
      00127B 91               [ 4] 4855 	sub	a, c
      00127C 7E               [ 8] 4856 	ld	a, (hl)
      00127D 98               [ 4] 4857 	sbc	a, b
      00127E 56               [ 8] 4858 	ld	d, (hl)
      00127F 78               [ 4] 4859 	ld	a, b
      001280 CB 7F            [ 8] 4860 	bit	7,a
      001282 28 07            [12] 4861 	jr	Z, 00138$
      001284 CB 7A            [ 8] 4862 	bit	7, d
      001286 20 08            [12] 4863 	jr	NZ, 00139$
      001288 BF               [ 4] 4864 	cp	a, a
      001289 18 05            [12] 4865 	jr	00139$
      00128B                       4866 00138$:
      00128B CB 7A            [ 8] 4867 	bit	7, d
      00128D 28 01            [12] 4868 	jr	Z, 00139$
      00128F 37               [ 4] 4869 	scf
      001290                       4870 00139$:
      001290 38 5E            [12] 4871 	jr	C, 00107$
      001292 F8 04            [12] 4872 	ldhl	sp,#4
      001294 2A               [ 8] 4873 	ld	a, (hl+)
      001295 5F               [ 4] 4874 	ld	e, a
      001296 56               [ 8] 4875 	ld	d, (hl)
      001297 1A               [ 8] 4876 	ld	a, (de)
      001298 4F               [ 4] 4877 	ld	c, a
      001299 06 00            [ 8] 4878 	ld	b, #0x00
      00129B 21 08 00         [12] 4879 	ld	hl, #0x0008
      00129E 09               [ 8] 4880 	add	hl, bc
      00129F 33               [ 8] 4881 	inc	sp
      0012A0 33               [ 8] 4882 	inc	sp
      0012A1 E5               [16] 4883 	push	hl
      0012A2 FAr01r00         [16] 4884 	ld	a, (#_eye1Y)
      0012A5 F8 02            [12] 4885 	ldhl	sp,	#2
      0012A7 22               [ 8] 4886 	ld	(hl+), a
      0012A8 36 00            [12] 4887 	ld	(hl), #0x00
      0012AA F8 00            [12] 4888 	ldhl	sp,	#0
      0012AC 5D               [ 4] 4889 	ld	e, l
      0012AD 54               [ 4] 4890 	ld	d, h
      0012AE F8 02            [12] 4891 	ldhl	sp,	#2
      0012B0 1A               [ 8] 4892 	ld	a, (de)
      0012B1 13               [ 8] 4893 	inc	de
      0012B2 96               [ 8] 4894 	sub	a, (hl)
      0012B3 23               [ 8] 4895 	inc	hl
      0012B4 1A               [ 8] 4896 	ld	a, (de)
      0012B5 9E               [ 8] 4897 	sbc	a, (hl)
      0012B6 1A               [ 8] 4898 	ld	a, (de)
      0012B7 57               [ 4] 4899 	ld	d, a
      0012B8 CB 7E            [12] 4900 	bit	7, (hl)
      0012BA 28 07            [12] 4901 	jr	Z, 00140$
      0012BC CB 7A            [ 8] 4902 	bit	7, d
      0012BE 20 08            [12] 4903 	jr	NZ, 00141$
      0012C0 BF               [ 4] 4904 	cp	a, a
      0012C1 18 05            [12] 4905 	jr	00141$
      0012C3                       4906 00140$:
      0012C3 CB 7A            [ 8] 4907 	bit	7, d
      0012C5 28 01            [12] 4908 	jr	Z, 00141$
      0012C7 37               [ 4] 4909 	scf
      0012C8                       4910 00141$:
      0012C8 38 26            [12] 4911 	jr	C, 00107$
      0012CA 79               [ 4] 4912 	ld	a, c
      0012CB C6 F8            [ 8] 4913 	add	a, #0xf8
      0012CD 4F               [ 4] 4914 	ld	c, a
      0012CE 78               [ 4] 4915 	ld	a, b
      0012CF CE FF            [ 8] 4916 	adc	a, #0xff
      0012D1 47               [ 4] 4917 	ld	b, a
      0012D2 F8 02            [12] 4918 	ldhl	sp,	#2
      0012D4 2A               [ 8] 4919 	ld	a, (hl+)
      0012D5 91               [ 4] 4920 	sub	a, c
      0012D6 7E               [ 8] 4921 	ld	a, (hl)
      0012D7 98               [ 4] 4922 	sbc	a, b
      0012D8 56               [ 8] 4923 	ld	d, (hl)
      0012D9 78               [ 4] 4924 	ld	a, b
      0012DA CB 7F            [ 8] 4925 	bit	7,a
      0012DC 28 07            [12] 4926 	jr	Z, 00142$
      0012DE CB 7A            [ 8] 4927 	bit	7, d
      0012E0 20 08            [12] 4928 	jr	NZ, 00143$
      0012E2 BF               [ 4] 4929 	cp	a, a
      0012E3 18 05            [12] 4930 	jr	00143$
      0012E5                       4931 00142$:
      0012E5 CB 7A            [ 8] 4932 	bit	7, d
      0012E7 28 01            [12] 4933 	jr	Z, 00143$
      0012E9 37               [ 4] 4934 	scf
      0012EA                       4935 00143$:
      0012EA 38 04            [12] 4936 	jr	C, 00107$
                           0012EC  4937 	C$EyeExec.c$568$3_0$375	= .
                                   4938 	.globl	C$EyeExec.c$568$3_0$375
                                   4939 ;C:\Users\sva13\OneDrive\ドキュメント\会社\課題\gbdk\Project\gb-test\source\exec\EyeExec.c:568: return TRUE;
      0012EC 3E 01            [ 8] 4940 	ld	a, #0x01
      0012EE 18 01            [12] 4941 	jr	00108$
      0012F0                       4942 00107$:
                           0012F0  4943 	C$EyeExec.c$571$1_0$373	= .
                                   4944 	.globl	C$EyeExec.c$571$1_0$373
                                   4945 ;C:\Users\sva13\OneDrive\ドキュメント\会社\課題\gbdk\Project\gb-test\source\exec\EyeExec.c:571: return FALSE;
      0012F0 AF               [ 4] 4946 	xor	a, a
      0012F1                       4947 00108$:
                           0012F1  4948 	C$EyeExec.c$572$1_0$373	= .
                                   4949 	.globl	C$EyeExec.c$572$1_0$373
                                   4950 ;C:\Users\sva13\OneDrive\ドキュメント\会社\課題\gbdk\Project\gb-test\source\exec\EyeExec.c:572: }
      0012F1 E8 06            [16] 4951 	add	sp, #6
                           0012F3  4952 	C$EyeExec.c$572$1_0$373	= .
                                   4953 	.globl	C$EyeExec.c$572$1_0$373
                           0012F3  4954 	XG$DamageCheck$0$0	= .
                                   4955 	.globl	XG$DamageCheck$0$0
      0012F3 C9               [16] 4956 	ret
                           0012F4  4957 	G$HitCheck$0$0	= .
                                   4958 	.globl	G$HitCheck$0$0
                           0012F4  4959 	C$EyeExec.c$574$1_0$377	= .
                                   4960 	.globl	C$EyeExec.c$574$1_0$377
                                   4961 ;C:\Users\sva13\OneDrive\ドキュメント\会社\課題\gbdk\Project\gb-test\source\exec\EyeExec.c:574: void HitCheck(uint8_t hitArea1X, uint8_t hitArea1Y,uint8_t hitArea2X, uint8_t hitArea2Y){
                                   4962 ;	---------------------------------
                                   4963 ; Function HitCheck
                                   4964 ; ---------------------------------
      0012F4                       4965 _HitCheck::
      0012F4 4F               [ 4] 4966 	ld	c, a
                           0012F5  4967 	C$EyeExec.c$575$1_0$377	= .
                                   4968 	.globl	C$EyeExec.c$575$1_0$377
                                   4969 ;C:\Users\sva13\OneDrive\ドキュメント\会社\課題\gbdk\Project\gb-test\source\exec\EyeExec.c:575: if((eye1X >= hitArea1X && eye1X <= hitArea2X) && (eye1Y >= hitArea1Y && eye1Y <= hitArea2Y)){
      0012F5 FAr00r00         [16] 4970 	ld	a, (#_eye1X)
      0012F8 91               [ 4] 4971 	sub	a, c
      0012F9 38 64            [12] 4972 	jr	C, 00122$
      0012FB F8 02            [12] 4973 	ldhl	sp,	#2
      0012FD 7E               [ 8] 4974 	ld	a, (hl)
      0012FE 21r00r00         [12] 4975 	ld	hl, #_eye1X
      001301 96               [ 8] 4976 	sub	a, (hl)
      001302 38 5B            [12] 4977 	jr	C, 00122$
      001304 FAr01r00         [16] 4978 	ld	a, (#_eye1Y)
      001307 93               [ 4] 4979 	sub	a, e
      001308 38 55            [12] 4980 	jr	C, 00122$
      00130A F8 03            [12] 4981 	ldhl	sp,	#3
      00130C 7E               [ 8] 4982 	ld	a, (hl)
      00130D 21r01r00         [12] 4983 	ld	hl, #_eye1Y
      001310 96               [ 8] 4984 	sub	a, (hl)
      001311 38 4C            [12] 4985 	jr	C, 00122$
                           001313  4986 	C$EyeExec.c$576$2_0$378	= .
                                   4987 	.globl	C$EyeExec.c$576$2_0$378
                                   4988 ;C:\Users\sva13\OneDrive\ドキュメント\会社\課題\gbdk\Project\gb-test\source\exec\EyeExec.c:576: if((eye1Mode >= FLOATUP && eye1Mode <= FLOATLEFT) && eye1Cnt >= 5){
      001313 21r04r00         [12] 4989 	ld	hl, #_eye1Mode
      001316 7E               [ 8] 4990 	ld	a, (hl)
      001317 D6 05            [ 8] 4991 	sub	a, #0x05
      001319 38 0C            [12] 4992 	jr	C, 00113$
      00131B 3E 08            [ 8] 4993 	ld	a, #0x08
      00131D 96               [ 8] 4994 	sub	a, (hl)
      00131E 38 07            [12] 4995 	jr	C, 00113$
      001320 FAr08r00         [16] 4996 	ld	a, (#_eye1Cnt)
      001323 D6 05            [ 8] 4997 	sub	a, #0x05
      001325 30 2E            [12] 4998 	jr	NC, 00114$
      001327                       4999 00113$:
                           001327  5000 	C$EyeExec.c$579$2_0$378	= .
                                   5001 	.globl	C$EyeExec.c$579$2_0$378
                                   5002 ;C:\Users\sva13\OneDrive\ドキュメント\会社\課題\gbdk\Project\gb-test\source\exec\EyeExec.c:579: else if((eye1Mode >= SINKUP && eye1Mode <= SINKLEFT) && eye1Cnt < 10){
      001327 21r04r00         [12] 5003 	ld	hl, #_eye1Mode
      00132A 7E               [ 8] 5004 	ld	a, (hl)
      00132B D6 0D            [ 8] 5005 	sub	a, #0x0d
      00132D 38 0C            [12] 5006 	jr	C, 00108$
      00132F 3E 10            [ 8] 5007 	ld	a, #0x10
      001331 96               [ 8] 5008 	sub	a, (hl)
      001332 38 07            [12] 5009 	jr	C, 00108$
      001334 FAr08r00         [16] 5010 	ld	a, (#_eye1Cnt)
      001337 D6 0A            [ 8] 5011 	sub	a, #0x0a
      001339 38 1A            [12] 5012 	jr	C, 00114$
      00133B                       5013 00108$:
                           00133B  5014 	C$EyeExec.c$582$2_0$378	= .
                                   5015 	.globl	C$EyeExec.c$582$2_0$378
                                   5016 ;C:\Users\sva13\OneDrive\ドキュメント\会社\課題\gbdk\Project\gb-test\source\exec\EyeExec.c:582: else if((eye1Mode >= UP && eye1Mode <= LEFT) || (eye1Mode >= SHOTUP && eye1Mode <= SHOTLEFT)){
      00133B 21r04r00         [12] 5017 	ld	hl, #_eye1Mode
      00133E 7E               [ 8] 5018 	ld	a, (hl)
      00133F D6 09            [ 8] 5019 	sub	a, #0x09
      001341 38 05            [12] 5020 	jr	C, 00106$
      001343 3E 0C            [ 8] 5021 	ld	a, #0x0c
      001345 96               [ 8] 5022 	sub	a, (hl)
      001346 30 0D            [12] 5023 	jr	NC, 00114$
      001348                       5024 00106$:
      001348 21r04r00         [12] 5025 	ld	hl, #_eye1Mode
      00134B 7E               [ 8] 5026 	ld	a, (hl)
      00134C D6 11            [ 8] 5027 	sub	a, #0x11
      00134E 38 0F            [12] 5028 	jr	C, 00122$
      001350 3E 14            [ 8] 5029 	ld	a, #0x14
      001352 96               [ 8] 5030 	sub	a, (hl)
                           001353  5031 	C$EyeExec.c$586$3_0$382	= .
                                   5032 	.globl	C$EyeExec.c$586$3_0$382
                                   5033 ;C:\Users\sva13\OneDrive\ドキュメント\会社\課題\gbdk\Project\gb-test\source\exec\EyeExec.c:586: return;
      001353 38 0A            [12] 5034 	jr	C, 00122$
      001355                       5035 00114$:
                           001355  5036 	C$EyeExec.c$588$2_0$378	= .
                                   5037 	.globl	C$EyeExec.c$588$2_0$378
                                   5038 ;C:\Users\sva13\OneDrive\ドキュメント\会社\課題\gbdk\Project\gb-test\source\exec\EyeExec.c:588: eye1Mode = SLASH;
      001355 21r04r00         [12] 5039 	ld	hl, #_eye1Mode
      001358 36 15            [12] 5040 	ld	(hl), #0x15
                           00135A  5041 	C$EyeExec.c$589$2_0$378	= .
                                   5042 	.globl	C$EyeExec.c$589$2_0$378
                                   5043 ;C:\Users\sva13\OneDrive\ドキュメント\会社\課題\gbdk\Project\gb-test\source\exec\EyeExec.c:589: eye1Cnt = 0;
      00135A 21r08r00         [12] 5044 	ld	hl, #_eye1Cnt
      00135D 36 00            [12] 5045 	ld	(hl), #0x00
      00135F                       5046 00122$:
                           00135F  5047 	C$EyeExec.c$591$1_0$377	= .
                                   5048 	.globl	C$EyeExec.c$591$1_0$377
                                   5049 ;C:\Users\sva13\OneDrive\ドキュメント\会社\課題\gbdk\Project\gb-test\source\exec\EyeExec.c:591: }
      00135F E1               [12] 5050 	pop	hl
      001360 F1               [12] 5051 	pop	af
      001361 E9               [ 4] 5052 	jp	(hl)
                                   5053 	.area _CODE
                                   5054 	.area _INITIALIZER
                                   5055 	.area _CABS (ABS)
