                                      1 ;--------------------------------------------------------
                                      2 ; File Created by SDCC : free open source ISO C Compiler 
                                      3 ; Version 4.2.2 #13350 (MINGW64)
                                      4 ;--------------------------------------------------------
                                      5 	.module HeroExec
                                      6 	.optsdcc -msm83
                                      7 	
                                      8 ;--------------------------------------------------------
                                      9 ; Public variables in this module
                                     10 ;--------------------------------------------------------
                                     11 	.globl _BlinkExec
                                     12 	.globl _StartBlink
                                     13 	.globl _HeroExec
                                     14 	.globl _getBkgY
                                     15 	.globl _getBkgX
                                     16 	.globl _getSpriteY
                                     17 	.globl _getSpriteX
                                     18 	.globl _HeroExecInit
                                     19 	.globl _HitCheck
                                     20 	.globl _EyePosAdjust
                                     21 	.globl _set_sprite_palette
                                     22 	.globl _set_sprite_data
                                     23 	.globl _joypad
                                     24 	.globl _blinkFlag
                                     25 	.globl _swordAction
                                     26 	.globl _direction
                                     27 	.globl _heroAction
                                     28 	.globl _swordCnt
                                     29 	.globl _blinkCnt
                                     30 	.globl _actionCnt
                                     31 	.globl _velocityY
                                     32 	.globl _velocityX
                                     33 	.globl _bkgY
                                     34 	.globl _bkgX
                                     35 	.globl _spriteY
                                     36 	.globl _spriteX
                                     37 	.globl _joypadPrevious
                                     38 	.globl _spritepalette
                                     39 ;--------------------------------------------------------
                                     40 ; special function registers
                                     41 ;--------------------------------------------------------
                                     42 ;--------------------------------------------------------
                                     43 ; ram data
                                     44 ;--------------------------------------------------------
                                     45 	.area _DATA
                           000000    46 G$joypadPrevious$0_0$0==.
      000000                         47 _joypadPrevious::
      000000                         48 	.ds 1
                           000001    49 G$spriteX$0_0$0==.
      000001                         50 _spriteX::
      000001                         51 	.ds 1
                           000002    52 G$spriteY$0_0$0==.
      000002                         53 _spriteY::
      000002                         54 	.ds 1
                           000003    55 G$bkgX$0_0$0==.
      000003                         56 _bkgX::
      000003                         57 	.ds 1
                           000004    58 G$bkgY$0_0$0==.
      000004                         59 _bkgY::
      000004                         60 	.ds 1
                           000005    61 G$velocityX$0_0$0==.
      000005                         62 _velocityX::
      000005                         63 	.ds 1
                           000006    64 G$velocityY$0_0$0==.
      000006                         65 _velocityY::
      000006                         66 	.ds 1
                           000007    67 G$actionCnt$0_0$0==.
      000007                         68 _actionCnt::
      000007                         69 	.ds 1
                           000008    70 G$blinkCnt$0_0$0==.
      000008                         71 _blinkCnt::
      000008                         72 	.ds 1
                           000009    73 G$swordCnt$0_0$0==.
      000009                         74 _swordCnt::
      000009                         75 	.ds 1
                           00000A    76 G$heroAction$0_0$0==.
      00000A                         77 _heroAction::
      00000A                         78 	.ds 1
                           00000B    79 G$direction$0_0$0==.
      00000B                         80 _direction::
      00000B                         81 	.ds 1
                           00000C    82 G$swordAction$0_0$0==.
      00000C                         83 _swordAction::
      00000C                         84 	.ds 1
                           00000D    85 G$blinkFlag$0_0$0==.
      00000D                         86 _blinkFlag::
      00000D                         87 	.ds 1
                                     88 ;--------------------------------------------------------
                                     89 ; ram data
                                     90 ;--------------------------------------------------------
                                     91 	.area _INITIALIZED
                                     92 ;--------------------------------------------------------
                                     93 ; absolute external ram data
                                     94 ;--------------------------------------------------------
                                     95 	.area _DABS (ABS)
                                     96 ;--------------------------------------------------------
                                     97 ; global & static initialisations
                                     98 ;--------------------------------------------------------
                                     99 	.area _HOME
                                    100 	.area _GSINIT
                                    101 	.area _GSFINAL
                                    102 	.area _GSINIT
                                    103 ;--------------------------------------------------------
                                    104 ; Home
                                    105 ;--------------------------------------------------------
                                    106 	.area _HOME
                                    107 	.area _HOME
                                    108 ;--------------------------------------------------------
                                    109 ; code
                                    110 ;--------------------------------------------------------
                                    111 	.area _CODE
                           000000   112 	G$HeroExecInit$0$0	= .
                                    113 	.globl	G$HeroExecInit$0$0
                           000000   114 	C$HeroExec.c$40$0_0$111	= .
                                    115 	.globl	C$HeroExec.c$40$0_0$111
                                    116 ;C:\Users\sva13\OneDrive\ドキュメント\会社\課題\gbdk\Project\gb-test\source\exec\HeroExec.c:40: void HeroExecInit(){
                                    117 ;	---------------------------------
                                    118 ; Function HeroExecInit
                                    119 ; ---------------------------------
      000000                        120 _HeroExecInit::
                           000000   121 	C$HeroExec.c$41$1_0$111	= .
                                    122 	.globl	C$HeroExec.c$41$1_0$111
                                    123 ;C:\Users\sva13\OneDrive\ドキュメント\会社\課題\gbdk\Project\gb-test\source\exec\HeroExec.c:41: set_sprite_palette(0,8,&spritepalette[0]);
      000000 11rA9r00         [12]  124 	ld	de, #_spritepalette
      000003 D5               [16]  125 	push	de
      000004 21 00 08         [12]  126 	ld	hl, #0x800
      000007 E5               [16]  127 	push	hl
      000008 CDr00r00         [24]  128 	call	_set_sprite_palette
      00000B E8 04            [16]  129 	add	sp, #4
                           00000D   130 	C$HeroExec.c$43$1_0$111	= .
                                    131 	.globl	C$HeroExec.c$43$1_0$111
                                    132 ;C:\Users\sva13\OneDrive\ドキュメント\会社\課題\gbdk\Project\gb-test\source\exec\HeroExec.c:43: set_sprite_data(0,4,SwordRightUpTile);
      00000D 11r00r00         [12]  133 	ld	de, #_SwordRightUpTile
      000010 D5               [16]  134 	push	de
      000011 21 00 04         [12]  135 	ld	hl, #0x400
      000014 E5               [16]  136 	push	hl
      000015 CDr00r00         [24]  137 	call	_set_sprite_data
      000018 E8 04            [16]  138 	add	sp, #4
                                    139 ;C:/Users/sva13/OneDrive/ドキュメント/会社/課題/gbdk/Resources/gbdk/include/gb/gb.h:1602: shadow_OAM[nb].tile=tile;
      00001A 21r02r00         [12]  140 	ld	hl, #(_shadow_OAM + 2)
      00001D 36 00            [12]  141 	ld	(hl), #0x00
                                    142 ;C:/Users/sva13/OneDrive/ドキュメント/会社/課題/gbdk/Resources/gbdk/include/gb/gb.h:1648: shadow_OAM[nb].prop=prop;
      00001F 21r03r00         [12]  143 	ld	hl, #(_shadow_OAM + 3)
      000022 36 03            [12]  144 	ld	(hl), #0x03
                                    145 ;C:/Users/sva13/OneDrive/ドキュメント/会社/課題/gbdk/Resources/gbdk/include/gb/gb.h:1602: shadow_OAM[nb].tile=tile;
      000024 21r06r00         [12]  146 	ld	hl, #(_shadow_OAM + 6)
      000027 36 02            [12]  147 	ld	(hl), #0x02
                                    148 ;C:/Users/sva13/OneDrive/ドキュメント/会社/課題/gbdk/Resources/gbdk/include/gb/gb.h:1648: shadow_OAM[nb].prop=prop;
      000029 21r07r00         [12]  149 	ld	hl, #(_shadow_OAM + 7)
      00002C 36 03            [12]  150 	ld	(hl), #0x03
                           00002E   151 	C$HeroExec.c$49$1_0$111	= .
                                    152 	.globl	C$HeroExec.c$49$1_0$111
                                    153 ;C:\Users\sva13\OneDrive\ドキュメント\会社\課題\gbdk\Project\gb-test\source\exec\HeroExec.c:49: set_sprite_data(4,4,HeroDownTile);
      00002E 11r00r00         [12]  154 	ld	de, #_HeroDownTile
      000031 D5               [16]  155 	push	de
      000032 21 04 04         [12]  156 	ld	hl, #0x404
      000035 E5               [16]  157 	push	hl
      000036 CDr00r00         [24]  158 	call	_set_sprite_data
      000039 E8 04            [16]  159 	add	sp, #4
                                    160 ;C:/Users/sva13/OneDrive/ドキュメント/会社/課題/gbdk/Resources/gbdk/include/gb/gb.h:1602: shadow_OAM[nb].tile=tile;
      00003B 21r0Ar00         [12]  161 	ld	hl, #(_shadow_OAM + 10)
      00003E 36 04            [12]  162 	ld	(hl), #0x04
                                    163 ;C:/Users/sva13/OneDrive/ドキュメント/会社/課題/gbdk/Resources/gbdk/include/gb/gb.h:1648: shadow_OAM[nb].prop=prop;
      000040 21r0Br00         [12]  164 	ld	hl, #(_shadow_OAM + 11)
      000043 36 00            [12]  165 	ld	(hl), #0x00
                                    166 ;C:/Users/sva13/OneDrive/ドキュメント/会社/課題/gbdk/Resources/gbdk/include/gb/gb.h:1602: shadow_OAM[nb].tile=tile;
      000045 21r0Er00         [12]  167 	ld	hl, #(_shadow_OAM + 14)
      000048 36 06            [12]  168 	ld	(hl), #0x06
                                    169 ;C:/Users/sva13/OneDrive/ドキュメント/会社/課題/gbdk/Resources/gbdk/include/gb/gb.h:1648: shadow_OAM[nb].prop=prop;
      00004A 21r0Fr00         [12]  170 	ld	hl, #(_shadow_OAM + 15)
      00004D 36 00            [12]  171 	ld	(hl), #0x00
                           00004F   172 	C$HeroExec.c$54$1_0$111	= .
                                    173 	.globl	C$HeroExec.c$54$1_0$111
                                    174 ;C:\Users\sva13\OneDrive\ドキュメント\会社\課題\gbdk\Project\gb-test\source\exec\HeroExec.c:54: spriteX=80;
      00004F 21r01r00         [12]  175 	ld	hl, #_spriteX
      000052 36 50            [12]  176 	ld	(hl), #0x50
                           000054   177 	C$HeroExec.c$55$1_0$111	= .
                                    178 	.globl	C$HeroExec.c$55$1_0$111
                                    179 ;C:\Users\sva13\OneDrive\ドキュメント\会社\課題\gbdk\Project\gb-test\source\exec\HeroExec.c:55: spriteY=72;
      000054 21r02r00         [12]  180 	ld	hl, #_spriteY
      000057 36 48            [12]  181 	ld	(hl), #0x48
                                    182 ;C:/Users/sva13/OneDrive/ドキュメント/会社/課題/gbdk/Resources/gbdk/include/gb/gb.h:1675: OAM_item_t * itm = &shadow_OAM[nb];
      000059 21r08r00         [12]  183 	ld	hl, #(_shadow_OAM + 8)
                                    184 ;C:/Users/sva13/OneDrive/ドキュメント/会社/課題/gbdk/Resources/gbdk/include/gb/gb.h:1676: itm->y=y, itm->x=x;
      00005C 3E 48            [ 8]  185 	ld	a, #0x48
      00005E 22               [ 8]  186 	ld	(hl+), a
      00005F 36 50            [12]  187 	ld	(hl), #0x50
                                    188 ;C:\Users\sva13\OneDrive\ドキュメント\会社\課題\gbdk\Project\gb-test\source\exec\HeroExec.c:57: move_sprite(3, spriteX + 8, spriteY);
      000061 21r02r00         [12]  189 	ld	hl, #_spriteY
      000064 46               [ 8]  190 	ld	b, (hl)
      000065 FAr01r00         [16]  191 	ld	a, (#_spriteX)
      000068 C6 08            [ 8]  192 	add	a, #0x08
      00006A 4F               [ 4]  193 	ld	c, a
                                    194 ;C:/Users/sva13/OneDrive/ドキュメント/会社/課題/gbdk/Resources/gbdk/include/gb/gb.h:1675: OAM_item_t * itm = &shadow_OAM[nb];
      00006B 21r0Cr00         [12]  195 	ld	hl, #(_shadow_OAM + 12)
                                    196 ;C:/Users/sva13/OneDrive/ドキュメント/会社/課題/gbdk/Resources/gbdk/include/gb/gb.h:1676: itm->y=y, itm->x=x;
      00006E 78               [ 4]  197 	ld	a, b
      00006F 22               [ 8]  198 	ld	(hl+), a
      000070 71               [ 8]  199 	ld	(hl), c
                           000071   200 	C$HeroExec.c$58$1_0$111	= .
                                    201 	.globl	C$HeroExec.c$58$1_0$111
                                    202 ;C:\Users\sva13\OneDrive\ドキュメント\会社\課題\gbdk\Project\gb-test\source\exec\HeroExec.c:58: velocityX=0;
      000071 21r05r00         [12]  203 	ld	hl, #_velocityX
      000074 36 00            [12]  204 	ld	(hl), #0x00
                           000076   205 	C$HeroExec.c$59$1_0$111	= .
                                    206 	.globl	C$HeroExec.c$59$1_0$111
                                    207 ;C:\Users\sva13\OneDrive\ドキュメント\会社\課題\gbdk\Project\gb-test\source\exec\HeroExec.c:59: velocityY=0;
      000076 21r06r00         [12]  208 	ld	hl, #_velocityY
      000079 36 00            [12]  209 	ld	(hl), #0x00
                           00007B   210 	C$HeroExec.c$60$1_0$111	= .
                                    211 	.globl	C$HeroExec.c$60$1_0$111
                                    212 ;C:\Users\sva13\OneDrive\ドキュメント\会社\課題\gbdk\Project\gb-test\source\exec\HeroExec.c:60: actionCnt=0;
      00007B 21r07r00         [12]  213 	ld	hl, #_actionCnt
      00007E 36 00            [12]  214 	ld	(hl), #0x00
                           000080   215 	C$HeroExec.c$61$1_0$111	= .
                                    216 	.globl	C$HeroExec.c$61$1_0$111
                                    217 ;C:\Users\sva13\OneDrive\ドキュメント\会社\課題\gbdk\Project\gb-test\source\exec\HeroExec.c:61: heroAction=NOACTION;
      000080 21r0Ar00         [12]  218 	ld	hl, #_heroAction
      000083 36 00            [12]  219 	ld	(hl), #0x00
                           000085   220 	C$HeroExec.c$62$1_0$111	= .
                                    221 	.globl	C$HeroExec.c$62$1_0$111
                                    222 ;C:\Users\sva13\OneDrive\ドキュメント\会社\課題\gbdk\Project\gb-test\source\exec\HeroExec.c:62: bkgX = 0;
      000085 21r03r00         [12]  223 	ld	hl, #_bkgX
      000088 36 00            [12]  224 	ld	(hl), #0x00
                           00008A   225 	C$HeroExec.c$63$1_0$111	= .
                                    226 	.globl	C$HeroExec.c$63$1_0$111
                                    227 ;C:\Users\sva13\OneDrive\ドキュメント\会社\課題\gbdk\Project\gb-test\source\exec\HeroExec.c:63: bkgY = 0;
      00008A 21r04r00         [12]  228 	ld	hl, #_bkgY
      00008D 36 00            [12]  229 	ld	(hl), #0x00
                           00008F   230 	C$HeroExec.c$64$1_0$111	= .
                                    231 	.globl	C$HeroExec.c$64$1_0$111
                                    232 ;C:\Users\sva13\OneDrive\ドキュメント\会社\課題\gbdk\Project\gb-test\source\exec\HeroExec.c:64: blinkFlag = FALSE;
      00008F 21r0Dr00         [12]  233 	ld	hl, #_blinkFlag
      000092 36 00            [12]  234 	ld	(hl), #0x00
                           000094   235 	C$HeroExec.c$65$1_0$111	= .
                                    236 	.globl	C$HeroExec.c$65$1_0$111
                                    237 ;C:\Users\sva13\OneDrive\ドキュメント\会社\課題\gbdk\Project\gb-test\source\exec\HeroExec.c:65: blinkCnt = 0;
      000094 21r08r00         [12]  238 	ld	hl, #_blinkCnt
      000097 36 00            [12]  239 	ld	(hl), #0x00
                           000099   240 	C$HeroExec.c$66$1_0$111	= .
                                    241 	.globl	C$HeroExec.c$66$1_0$111
                                    242 ;C:\Users\sva13\OneDrive\ドキュメント\会社\課題\gbdk\Project\gb-test\source\exec\HeroExec.c:66: swordAction = NOACTION;
      000099 21r0Cr00         [12]  243 	ld	hl, #_swordAction
      00009C 36 00            [12]  244 	ld	(hl), #0x00
                           00009E   245 	C$HeroExec.c$67$1_0$111	= .
                                    246 	.globl	C$HeroExec.c$67$1_0$111
                                    247 ;C:\Users\sva13\OneDrive\ドキュメント\会社\課題\gbdk\Project\gb-test\source\exec\HeroExec.c:67: swordCnt = 0;
      00009E 21r09r00         [12]  248 	ld	hl, #_swordCnt
      0000A1 36 00            [12]  249 	ld	(hl), #0x00
                           0000A3   250 	C$HeroExec.c$68$1_0$111	= .
                                    251 	.globl	C$HeroExec.c$68$1_0$111
                                    252 ;C:\Users\sva13\OneDrive\ドキュメント\会社\課題\gbdk\Project\gb-test\source\exec\HeroExec.c:68: direction = DOWN;
      0000A3 21r0Br00         [12]  253 	ld	hl, #_direction
      0000A6 36 02            [12]  254 	ld	(hl), #0x02
                           0000A8   255 	C$HeroExec.c$69$1_0$111	= .
                                    256 	.globl	C$HeroExec.c$69$1_0$111
                                    257 ;C:\Users\sva13\OneDrive\ドキュメント\会社\課題\gbdk\Project\gb-test\source\exec\HeroExec.c:69: }
                           0000A8   258 	C$HeroExec.c$69$1_0$111	= .
                                    259 	.globl	C$HeroExec.c$69$1_0$111
                           0000A8   260 	XG$HeroExecInit$0$0	= .
                                    261 	.globl	XG$HeroExecInit$0$0
      0000A8 C9               [16]  262 	ret
                           0000A9   263 G$spritepalette$0_0$0 == .
      0000A9                        264 _spritepalette:
      0000A9 FF 7F                  265 	.dw #0x7fff
      0000AB FF 7F                  266 	.dw #0x7fff
      0000AD 9F 0D                  267 	.dw #0x0d9f
      0000AF 00 00                  268 	.dw #0x0000
      0000B1 FF 7F                  269 	.dw #0x7fff
      0000B3 7E 77                  270 	.dw #0x777e
      0000B5 1C 54                  271 	.dw #0x541c
      0000B7 00 00                  272 	.dw #0x0000
      0000B9 FF 7F                  273 	.dw #0x7fff
      0000BB 9C 03                  274 	.dw #0x039c
      0000BD FF 03                  275 	.dw #0x03ff
      0000BF 00 00                  276 	.dw #0x0000
      0000C1 FF 7F                  277 	.dw #0x7fff
      0000C3 FF 7F                  278 	.dw #0x7fff
      0000C5 18 63                  279 	.dw #0x6318
      0000C7 00 00                  280 	.dw #0x0000
      0000C9 FF 7F                  281 	.dw #0x7fff
      0000CB FF 7F                  282 	.dw #0x7fff
      0000CD 9F 0D                  283 	.dw #0x0d9f
      0000CF 00 00                  284 	.dw #0x0000
      0000D1 FF 7F                  285 	.dw #0x7fff
      0000D3 FF 7F                  286 	.dw #0x7fff
      0000D5 9F 0D                  287 	.dw #0x0d9f
      0000D7 00 00                  288 	.dw #0x0000
      0000D9 FF 7F                  289 	.dw #0x7fff
      0000DB FF 7F                  290 	.dw #0x7fff
      0000DD 9F 0D                  291 	.dw #0x0d9f
      0000DF 00 00                  292 	.dw #0x0000
      0000E1 FF 7F                  293 	.dw #0x7fff
      0000E3 FF 7F                  294 	.dw #0x7fff
      0000E5 9F 0D                  295 	.dw #0x0d9f
      0000E7 00 00                  296 	.dw #0x0000
                           0000E9   297 	G$getSpriteX$0$0	= .
                                    298 	.globl	G$getSpriteX$0$0
                           0000E9   299 	C$HeroExec.c$71$1_0$142	= .
                                    300 	.globl	C$HeroExec.c$71$1_0$142
                                    301 ;C:\Users\sva13\OneDrive\ドキュメント\会社\課題\gbdk\Project\gb-test\source\exec\HeroExec.c:71: uint8_t *getSpriteX(){
                                    302 ;	---------------------------------
                                    303 ; Function getSpriteX
                                    304 ; ---------------------------------
      0000E9                        305 _getSpriteX::
                           0000E9   306 	C$HeroExec.c$72$1_0$142	= .
                                    307 	.globl	C$HeroExec.c$72$1_0$142
                                    308 ;C:\Users\sva13\OneDrive\ドキュメント\会社\課題\gbdk\Project\gb-test\source\exec\HeroExec.c:72: return &spriteX;
      0000E9 01r01r00         [12]  309 	ld	bc, #_spriteX
                           0000EC   310 	C$HeroExec.c$73$1_0$142	= .
                                    311 	.globl	C$HeroExec.c$73$1_0$142
                                    312 ;C:\Users\sva13\OneDrive\ドキュメント\会社\課題\gbdk\Project\gb-test\source\exec\HeroExec.c:73: }
                           0000EC   313 	C$HeroExec.c$73$1_0$142	= .
                                    314 	.globl	C$HeroExec.c$73$1_0$142
                           0000EC   315 	XG$getSpriteX$0$0	= .
                                    316 	.globl	XG$getSpriteX$0$0
      0000EC C9               [16]  317 	ret
                           0000ED   318 	G$getSpriteY$0$0	= .
                                    319 	.globl	G$getSpriteY$0$0
                           0000ED   320 	C$HeroExec.c$75$1_0$143	= .
                                    321 	.globl	C$HeroExec.c$75$1_0$143
                                    322 ;C:\Users\sva13\OneDrive\ドキュメント\会社\課題\gbdk\Project\gb-test\source\exec\HeroExec.c:75: uint8_t *getSpriteY(){
                                    323 ;	---------------------------------
                                    324 ; Function getSpriteY
                                    325 ; ---------------------------------
      0000ED                        326 _getSpriteY::
                           0000ED   327 	C$HeroExec.c$76$1_0$143	= .
                                    328 	.globl	C$HeroExec.c$76$1_0$143
                                    329 ;C:\Users\sva13\OneDrive\ドキュメント\会社\課題\gbdk\Project\gb-test\source\exec\HeroExec.c:76: return &spriteY;
      0000ED 01r02r00         [12]  330 	ld	bc, #_spriteY
                           0000F0   331 	C$HeroExec.c$77$1_0$143	= .
                                    332 	.globl	C$HeroExec.c$77$1_0$143
                                    333 ;C:\Users\sva13\OneDrive\ドキュメント\会社\課題\gbdk\Project\gb-test\source\exec\HeroExec.c:77: }
                           0000F0   334 	C$HeroExec.c$77$1_0$143	= .
                                    335 	.globl	C$HeroExec.c$77$1_0$143
                           0000F0   336 	XG$getSpriteY$0$0	= .
                                    337 	.globl	XG$getSpriteY$0$0
      0000F0 C9               [16]  338 	ret
                           0000F1   339 	G$getBkgX$0$0	= .
                                    340 	.globl	G$getBkgX$0$0
                           0000F1   341 	C$HeroExec.c$79$1_0$144	= .
                                    342 	.globl	C$HeroExec.c$79$1_0$144
                                    343 ;C:\Users\sva13\OneDrive\ドキュメント\会社\課題\gbdk\Project\gb-test\source\exec\HeroExec.c:79: uint8_t *getBkgX(){
                                    344 ;	---------------------------------
                                    345 ; Function getBkgX
                                    346 ; ---------------------------------
      0000F1                        347 _getBkgX::
                           0000F1   348 	C$HeroExec.c$80$1_0$144	= .
                                    349 	.globl	C$HeroExec.c$80$1_0$144
                                    350 ;C:\Users\sva13\OneDrive\ドキュメント\会社\課題\gbdk\Project\gb-test\source\exec\HeroExec.c:80: return &bkgX;
      0000F1 01r03r00         [12]  351 	ld	bc, #_bkgX
                           0000F4   352 	C$HeroExec.c$81$1_0$144	= .
                                    353 	.globl	C$HeroExec.c$81$1_0$144
                                    354 ;C:\Users\sva13\OneDrive\ドキュメント\会社\課題\gbdk\Project\gb-test\source\exec\HeroExec.c:81: }
                           0000F4   355 	C$HeroExec.c$81$1_0$144	= .
                                    356 	.globl	C$HeroExec.c$81$1_0$144
                           0000F4   357 	XG$getBkgX$0$0	= .
                                    358 	.globl	XG$getBkgX$0$0
      0000F4 C9               [16]  359 	ret
                           0000F5   360 	G$getBkgY$0$0	= .
                                    361 	.globl	G$getBkgY$0$0
                           0000F5   362 	C$HeroExec.c$83$1_0$145	= .
                                    363 	.globl	C$HeroExec.c$83$1_0$145
                                    364 ;C:\Users\sva13\OneDrive\ドキュメント\会社\課題\gbdk\Project\gb-test\source\exec\HeroExec.c:83: uint8_t *getBkgY(){
                                    365 ;	---------------------------------
                                    366 ; Function getBkgY
                                    367 ; ---------------------------------
      0000F5                        368 _getBkgY::
                           0000F5   369 	C$HeroExec.c$84$1_0$145	= .
                                    370 	.globl	C$HeroExec.c$84$1_0$145
                                    371 ;C:\Users\sva13\OneDrive\ドキュメント\会社\課題\gbdk\Project\gb-test\source\exec\HeroExec.c:84: return &bkgY;
      0000F5 01r04r00         [12]  372 	ld	bc, #_bkgY
                           0000F8   373 	C$HeroExec.c$85$1_0$145	= .
                                    374 	.globl	C$HeroExec.c$85$1_0$145
                                    375 ;C:\Users\sva13\OneDrive\ドキュメント\会社\課題\gbdk\Project\gb-test\source\exec\HeroExec.c:85: }
                           0000F8   376 	C$HeroExec.c$85$1_0$145	= .
                                    377 	.globl	C$HeroExec.c$85$1_0$145
                           0000F8   378 	XG$getBkgY$0$0	= .
                                    379 	.globl	XG$getBkgY$0$0
      0000F8 C9               [16]  380 	ret
                           0000F9   381 	G$HeroExec$0$0	= .
                                    382 	.globl	G$HeroExec$0$0
                           0000F9   383 	C$HeroExec.c$87$1_0$146	= .
                                    384 	.globl	C$HeroExec.c$87$1_0$146
                                    385 ;C:\Users\sva13\OneDrive\ドキュメント\会社\課題\gbdk\Project\gb-test\source\exec\HeroExec.c:87: void HeroExec(){
                                    386 ;	---------------------------------
                                    387 ; Function HeroExec
                                    388 ; ---------------------------------
      0000F9                        389 _HeroExec::
      0000F9 E8 F9            [16]  390 	add	sp, #-7
                           0000FB   391 	C$HeroExec.c$88$1_0$146	= .
                                    392 	.globl	C$HeroExec.c$88$1_0$146
                                    393 ;C:\Users\sva13\OneDrive\ドキュメント\会社\課題\gbdk\Project\gb-test\source\exec\HeroExec.c:88: if(heroAction == NOACTION && swordAction == NOACTION){
      0000FB FAr0Ar00         [16]  394 	ld	a, (#_heroAction)
      0000FE B7               [ 4]  395 	or	a, a
      0000FF 20 4F            [12]  396 	jr	NZ, 00116$
      000101 FAr0Cr00         [16]  397 	ld	a, (#_swordAction)
      000104 B7               [ 4]  398 	or	a, a
      000105 20 49            [12]  399 	jr	NZ, 00116$
                           000107   400 	C$HeroExec.c$89$2_0$147	= .
                                    401 	.globl	C$HeroExec.c$89$2_0$147
                                    402 ;C:\Users\sva13\OneDrive\ドキュメント\会社\課題\gbdk\Project\gb-test\source\exec\HeroExec.c:89: if(joypad() & J_RIGHT){
      000107 CDr00r00         [24]  403 	call	_joypad
      00010A 0F               [ 4]  404 	rrca
      00010B 30 05            [12]  405 	jr	NC, 00102$
                           00010D   406 	C$HeroExec.c$90$3_0$148	= .
                                    407 	.globl	C$HeroExec.c$90$3_0$148
                                    408 ;C:\Users\sva13\OneDrive\ドキュメント\会社\課題\gbdk\Project\gb-test\source\exec\HeroExec.c:90: heroAction = MOVERIGHT;
      00010D 21r0Ar00         [12]  409 	ld	hl, #_heroAction
      000110 36 02            [12]  410 	ld	(hl), #0x02
      000112                        411 00102$:
                           000112   412 	C$HeroExec.c$92$2_0$147	= .
                                    413 	.globl	C$HeroExec.c$92$2_0$147
                                    414 ;C:\Users\sva13\OneDrive\ドキュメント\会社\課題\gbdk\Project\gb-test\source\exec\HeroExec.c:92: if(joypad() & J_LEFT){
      000112 CDr00r00         [24]  415 	call	_joypad
      000115 CB 4F            [ 8]  416 	bit	1, a
      000117 28 05            [12]  417 	jr	Z, 00104$
                           000119   418 	C$HeroExec.c$93$3_0$149	= .
                                    419 	.globl	C$HeroExec.c$93$3_0$149
                                    420 ;C:\Users\sva13\OneDrive\ドキュメント\会社\課題\gbdk\Project\gb-test\source\exec\HeroExec.c:93: heroAction = MOVELEFT;
      000119 21r0Ar00         [12]  421 	ld	hl, #_heroAction
      00011C 36 04            [12]  422 	ld	(hl), #0x04
      00011E                        423 00104$:
                           00011E   424 	C$HeroExec.c$95$2_0$147	= .
                                    425 	.globl	C$HeroExec.c$95$2_0$147
                                    426 ;C:\Users\sva13\OneDrive\ドキュメント\会社\課題\gbdk\Project\gb-test\source\exec\HeroExec.c:95: if(joypad() & J_UP){
      00011E CDr00r00         [24]  427 	call	_joypad
      000121 CB 57            [ 8]  428 	bit	2, a
      000123 28 05            [12]  429 	jr	Z, 00106$
                           000125   430 	C$HeroExec.c$96$3_0$150	= .
                                    431 	.globl	C$HeroExec.c$96$3_0$150
                                    432 ;C:\Users\sva13\OneDrive\ドキュメント\会社\課題\gbdk\Project\gb-test\source\exec\HeroExec.c:96: heroAction = MOVEUP;
      000125 21r0Ar00         [12]  433 	ld	hl, #_heroAction
      000128 36 01            [12]  434 	ld	(hl), #0x01
      00012A                        435 00106$:
                           00012A   436 	C$HeroExec.c$98$2_0$147	= .
                                    437 	.globl	C$HeroExec.c$98$2_0$147
                                    438 ;C:\Users\sva13\OneDrive\ドキュメント\会社\課題\gbdk\Project\gb-test\source\exec\HeroExec.c:98: if(joypad() & J_DOWN){
      00012A CDr00r00         [24]  439 	call	_joypad
      00012D CB 5F            [ 8]  440 	bit	3, a
      00012F 28 05            [12]  441 	jr	Z, 00108$
                           000131   442 	C$HeroExec.c$99$3_0$151	= .
                                    443 	.globl	C$HeroExec.c$99$3_0$151
                                    444 ;C:\Users\sva13\OneDrive\ドキュメント\会社\課題\gbdk\Project\gb-test\source\exec\HeroExec.c:99: heroAction = MOVEDOWN;
      000131 21r0Ar00         [12]  445 	ld	hl, #_heroAction
      000134 36 03            [12]  446 	ld	(hl), #0x03
      000136                        447 00108$:
                           000136   448 	C$HeroExec.c$101$2_0$147	= .
                                    449 	.globl	C$HeroExec.c$101$2_0$147
                                    450 ;C:\Users\sva13\OneDrive\ドキュメント\会社\課題\gbdk\Project\gb-test\source\exec\HeroExec.c:101: if(joypad() & J_A){
      000136 CDr00r00         [24]  451 	call	_joypad
      000139 CB 67            [ 8]  452 	bit	4, a
      00013B 28 0B            [12]  453 	jr	Z, 00112$
                           00013D   454 	C$HeroExec.c$102$3_0$152	= .
                                    455 	.globl	C$HeroExec.c$102$3_0$152
                                    456 ;C:\Users\sva13\OneDrive\ドキュメント\会社\課題\gbdk\Project\gb-test\source\exec\HeroExec.c:102: if(blinkFlag == FALSE){
      00013D FAr0Dr00         [16]  457 	ld	a, (#_blinkFlag)
      000140 B7               [ 4]  458 	or	a, a
      000141 20 05            [12]  459 	jr	NZ, 00112$
                           000143   460 	C$HeroExec.c$103$4_0$153	= .
                                    461 	.globl	C$HeroExec.c$103$4_0$153
                                    462 ;C:\Users\sva13\OneDrive\ドキュメント\会社\課題\gbdk\Project\gb-test\source\exec\HeroExec.c:103: swordAction = SWORD;
      000143 21r0Cr00         [12]  463 	ld	hl, #_swordAction
      000146 36 01            [12]  464 	ld	(hl), #0x01
      000148                        465 00112$:
                           000148   466 	C$HeroExec.c$106$2_0$147	= .
                                    467 	.globl	C$HeroExec.c$106$2_0$147
                                    468 ;C:\Users\sva13\OneDrive\ドキュメント\会社\課題\gbdk\Project\gb-test\source\exec\HeroExec.c:106: if(joypad() & J_B){
      000148 CDr00r00         [24]  469 	call	_joypad
                           00014B   470 	C$HeroExec.c$108$2_0$147	= .
                                    471 	.globl	C$HeroExec.c$108$2_0$147
                                    472 ;C:\Users\sva13\OneDrive\ドキュメント\会社\課題\gbdk\Project\gb-test\source\exec\HeroExec.c:108: actionCnt = 0;
      00014B 21r07r00         [12]  473 	ld	hl, #_actionCnt
      00014E 36 00            [12]  474 	ld	(hl), #0x00
      000150                        475 00116$:
                           000150   476 	C$HeroExec.c$110$1_0$146	= .
                                    477 	.globl	C$HeroExec.c$110$1_0$146
                                    478 ;C:\Users\sva13\OneDrive\ドキュメント\会社\課題\gbdk\Project\gb-test\source\exec\HeroExec.c:110: if(heroAction != NOACTION && swordAction == NOACTION){
      000150 FAr0Ar00         [16]  479 	ld	a, (#_heroAction)
      000153 B7               [ 4]  480 	or	a, a
      000154 CArAEr04         [16]  481 	jp	Z, 00206$
      000157 FAr0Cr00         [16]  482 	ld	a, (#_swordAction)
      00015A B7               [ 4]  483 	or	a, a
      00015B C2rAEr04         [16]  484 	jp	NZ, 00206$
                           00015E   485 	C$HeroExec.c$116$1_0$146	= .
                                    486 	.globl	C$HeroExec.c$116$1_0$146
                                    487 ;C:\Users\sva13\OneDrive\ドキュメント\会社\課題\gbdk\Project\gb-test\source\exec\HeroExec.c:116: else if(actionCnt == 5){
      00015E FAr07r00         [16]  488 	ld	a, (#_actionCnt)
      000161 D6 05            [ 8]  489 	sub	a, #0x05
      000163 3E 01            [ 8]  490 	ld	a, #0x01
      000165 28 01            [12]  491 	jr	Z, 00856$
      000167 AF               [ 4]  492 	xor	a, a
      000168                        493 00856$:
      000168 4F               [ 4]  494 	ld	c, a
                           000169   495 	C$HeroExec.c$119$1_0$146	= .
                                    496 	.globl	C$HeroExec.c$119$1_0$146
                                    497 ;C:\Users\sva13\OneDrive\ドキュメント\会社\課題\gbdk\Project\gb-test\source\exec\HeroExec.c:119: else if(actionCnt == 10){
      000169 FAr07r00         [16]  498 	ld	a, (#_actionCnt)
      00016C D6 0A            [ 8]  499 	sub	a, #0x0a
      00016E 3E 01            [ 8]  500 	ld	a, #0x01
      000170 28 01            [12]  501 	jr	Z, 00858$
      000172 AF               [ 4]  502 	xor	a, a
      000173                        503 00858$:
      000173 47               [ 4]  504 	ld	b, a
                           000174   505 	C$HeroExec.c$111$2_0$155	= .
                                    506 	.globl	C$HeroExec.c$111$2_0$155
                                    507 ;C:\Users\sva13\OneDrive\ドキュメント\会社\課題\gbdk\Project\gb-test\source\exec\HeroExec.c:111: if(heroAction == MOVERIGHT){
      000174 FAr0Ar00         [16]  508 	ld	a, (#_heroAction)
      000177 D6 02            [ 8]  509 	sub	a, #0x02
      000179 C2r47r02         [16]  510 	jp	NZ,00203$
                           00017C   511 	C$HeroExec.c$112$3_0$156	= .
                                    512 	.globl	C$HeroExec.c$112$3_0$156
                                    513 ;C:\Users\sva13\OneDrive\ドキュメント\会社\課題\gbdk\Project\gb-test\source\exec\HeroExec.c:112: if(actionCnt == 0){
      00017C FAr07r00         [16]  514 	ld	a, (#_actionCnt)
      00017F B7               [ 4]  515 	or	a, a
      000180 20 14            [12]  516 	jr	NZ, 00124$
                           000182   517 	C$HeroExec.c$113$4_0$157	= .
                                    518 	.globl	C$HeroExec.c$113$4_0$157
                                    519 ;C:\Users\sva13\OneDrive\ドキュメント\会社\課題\gbdk\Project\gb-test\source\exec\HeroExec.c:113: set_sprite_data(4,4,HeroRightTile);
      000182 11r00r00         [12]  520 	ld	de, #_HeroRightTile
      000185 D5               [16]  521 	push	de
      000186 21 04 04         [12]  522 	ld	hl, #0x404
      000189 E5               [16]  523 	push	hl
      00018A CDr00r00         [24]  524 	call	_set_sprite_data
      00018D E8 04            [16]  525 	add	sp, #4
                           00018F   526 	C$HeroExec.c$114$4_0$157	= .
                                    527 	.globl	C$HeroExec.c$114$4_0$157
                                    528 ;C:\Users\sva13\OneDrive\ドキュメント\会社\課題\gbdk\Project\gb-test\source\exec\HeroExec.c:114: direction = RIGHT;
      00018F 21r0Br00         [12]  529 	ld	hl, #_direction
      000192 36 01            [12]  530 	ld	(hl), #0x01
      000194 18 29            [12]  531 	jr	00125$
      000196                        532 00124$:
                           000196   533 	C$HeroExec.c$116$3_0$156	= .
                                    534 	.globl	C$HeroExec.c$116$3_0$156
                                    535 ;C:\Users\sva13\OneDrive\ドキュメント\会社\課題\gbdk\Project\gb-test\source\exec\HeroExec.c:116: else if(actionCnt == 5){
      000196 79               [ 4]  536 	ld	a, c
      000197 B7               [ 4]  537 	or	a, a
      000198 28 0F            [12]  538 	jr	Z, 00121$
                           00019A   539 	C$HeroExec.c$117$4_0$158	= .
                                    540 	.globl	C$HeroExec.c$117$4_0$158
                                    541 ;C:\Users\sva13\OneDrive\ドキュメント\会社\課題\gbdk\Project\gb-test\source\exec\HeroExec.c:117: set_sprite_data(4,4,HeroRightWalkTile);
      00019A 11r00r00         [12]  542 	ld	de, #_HeroRightWalkTile
      00019D D5               [16]  543 	push	de
      00019E 21 04 04         [12]  544 	ld	hl, #0x404
      0001A1 E5               [16]  545 	push	hl
      0001A2 CDr00r00         [24]  546 	call	_set_sprite_data
      0001A5 E8 04            [16]  547 	add	sp, #4
      0001A7 18 16            [12]  548 	jr	00125$
      0001A9                        549 00121$:
                           0001A9   550 	C$HeroExec.c$119$3_0$156	= .
                                    551 	.globl	C$HeroExec.c$119$3_0$156
                                    552 ;C:\Users\sva13\OneDrive\ドキュメント\会社\課題\gbdk\Project\gb-test\source\exec\HeroExec.c:119: else if(actionCnt == 10){
      0001A9 78               [ 4]  553 	ld	a, b
      0001AA B7               [ 4]  554 	or	a, a
      0001AB 28 12            [12]  555 	jr	Z, 00125$
                           0001AD   556 	C$HeroExec.c$120$4_0$159	= .
                                    557 	.globl	C$HeroExec.c$120$4_0$159
                                    558 ;C:\Users\sva13\OneDrive\ドキュメント\会社\課題\gbdk\Project\gb-test\source\exec\HeroExec.c:120: set_sprite_data(4,4,HeroRightTile);
      0001AD 11r00r00         [12]  559 	ld	de, #_HeroRightTile
      0001B0 D5               [16]  560 	push	de
      0001B1 21 04 04         [12]  561 	ld	hl, #0x404
      0001B4 E5               [16]  562 	push	hl
      0001B5 CDr00r00         [24]  563 	call	_set_sprite_data
      0001B8 E8 04            [16]  564 	add	sp, #4
                           0001BA   565 	C$HeroExec.c$121$4_0$159	= .
                                    566 	.globl	C$HeroExec.c$121$4_0$159
                                    567 ;C:\Users\sva13\OneDrive\ドキュメント\会社\課題\gbdk\Project\gb-test\source\exec\HeroExec.c:121: heroAction = NOACTION;
      0001BA 21r0Ar00         [12]  568 	ld	hl, #_heroAction
      0001BD 36 00            [12]  569 	ld	(hl), #0x00
      0001BF                        570 00125$:
                           0001BF   571 	C$HeroExec.c$123$3_0$156	= .
                                    572 	.globl	C$HeroExec.c$123$3_0$156
                                    573 ;C:\Users\sva13\OneDrive\ドキュメント\会社\課題\gbdk\Project\gb-test\source\exec\HeroExec.c:123: if(actionCnt == 5 || actionCnt == 10){
      0001BF FAr07r00         [16]  574 	ld	a, (#_actionCnt)
      0001C2 D6 05            [ 8]  575 	sub	a, #0x05
      0001C4 28 08            [12]  576 	jr	Z, 00134$
      0001C6 FAr07r00         [16]  577 	ld	a, (#_actionCnt)
      0001C9 D6 0A            [ 8]  578 	sub	a, #0x0a
      0001CB C2rAAr04         [16]  579 	jp	NZ,00204$
      0001CE                        580 00134$:
                           0001CE   581 	C$HeroExec.c$126$1_0$146	= .
                                    582 	.globl	C$HeroExec.c$126$1_0$146
                                    583 ;C:\Users\sva13\OneDrive\ドキュメント\会社\課題\gbdk\Project\gb-test\source\exec\HeroExec.c:126: spriteX += 4;
      0001CE FAr01r00         [16]  584 	ld	a, (#_spriteX)
                           0001D1   585 	C$HeroExec.c$127$1_0$146	= .
                                    586 	.globl	C$HeroExec.c$127$1_0$146
                                    587 ;C:\Users\sva13\OneDrive\ドキュメント\会社\課題\gbdk\Project\gb-test\source\exec\HeroExec.c:127: move_sprite(2,spriteX,spriteY);
      0001D1 21r02r00         [12]  588 	ld	hl, #_spriteY
      0001D4 5E               [ 8]  589 	ld	e, (hl)
                           0001D5   590 	C$HeroExec.c$126$1_0$146	= .
                                    591 	.globl	C$HeroExec.c$126$1_0$146
                                    592 ;C:\Users\sva13\OneDrive\ドキュメント\会社\課題\gbdk\Project\gb-test\source\exec\HeroExec.c:126: spriteX += 4;
      0001D5 C6 04            [ 8]  593 	add	a, #0x04
      0001D7 4F               [ 4]  594 	ld	c, a
                           0001D8   595 	C$HeroExec.c$124$4_0$160	= .
                                    596 	.globl	C$HeroExec.c$124$4_0$160
                                    597 ;C:\Users\sva13\OneDrive\ドキュメント\会社\課題\gbdk\Project\gb-test\source\exec\HeroExec.c:124: if(bkgX == 96){
      0001D8 FAr03r00         [16]  598 	ld	a, (#_bkgX)
      0001DB D6 60            [ 8]  599 	sub	a, #0x60
      0001DD 20 26            [12]  600 	jr	NZ, 00132$
                           0001DF   601 	C$HeroExec.c$125$5_0$161	= .
                                    602 	.globl	C$HeroExec.c$125$5_0$161
                                    603 ;C:\Users\sva13\OneDrive\ドキュメント\会社\課題\gbdk\Project\gb-test\source\exec\HeroExec.c:125: if(spriteX != 120){
      0001DF FAr01r00         [16]  604 	ld	a, (#_spriteX)
      0001E2 D6 78            [ 8]  605 	sub	a, #0x78
      0001E4 CArAAr04         [16]  606 	jp	Z,00204$
                           0001E7   607 	C$HeroExec.c$126$6_0$162	= .
                                    608 	.globl	C$HeroExec.c$126$6_0$162
                                    609 ;C:\Users\sva13\OneDrive\ドキュメント\会社\課題\gbdk\Project\gb-test\source\exec\HeroExec.c:126: spriteX += 4;
      0001E7 21r01r00         [12]  610 	ld	hl, #_spriteX
      0001EA 71               [ 8]  611 	ld	(hl), c
                                    612 ;C:\Users\sva13\OneDrive\ドキュメント\会社\課題\gbdk\Project\gb-test\source\exec\HeroExec.c:127: move_sprite(2,spriteX,spriteY);
      0001EB 4E               [ 8]  613 	ld	c, (hl)
                                    614 ;C:/Users/sva13/OneDrive/ドキュメント/会社/課題/gbdk/Resources/gbdk/include/gb/gb.h:1675: OAM_item_t * itm = &shadow_OAM[nb];
      0001EC 21r08r00         [12]  615 	ld	hl, #(_shadow_OAM + 8)
                                    616 ;C:/Users/sva13/OneDrive/ドキュメント/会社/課題/gbdk/Resources/gbdk/include/gb/gb.h:1676: itm->y=y, itm->x=x;
      0001EF 7B               [ 4]  617 	ld	a, e
      0001F0 22               [ 8]  618 	ld	(hl+), a
      0001F1 71               [ 8]  619 	ld	(hl), c
                                    620 ;C:\Users\sva13\OneDrive\ドキュメント\会社\課題\gbdk\Project\gb-test\source\exec\HeroExec.c:128: move_sprite(3,spriteX+8,spriteY);
      0001F2 21r02r00         [12]  621 	ld	hl, #_spriteY
      0001F5 5E               [ 8]  622 	ld	e, (hl)
      0001F6 FAr01r00         [16]  623 	ld	a, (#_spriteX)
      0001F9 C6 08            [ 8]  624 	add	a, #0x08
      0001FB 4F               [ 4]  625 	ld	c, a
                                    626 ;C:/Users/sva13/OneDrive/ドキュメント/会社/課題/gbdk/Resources/gbdk/include/gb/gb.h:1675: OAM_item_t * itm = &shadow_OAM[nb];
      0001FC 21r0Cr00         [12]  627 	ld	hl, #(_shadow_OAM + 12)
                                    628 ;C:/Users/sva13/OneDrive/ドキュメント/会社/課題/gbdk/Resources/gbdk/include/gb/gb.h:1676: itm->y=y, itm->x=x;
      0001FF 7B               [ 4]  629 	ld	a, e
      000200 22               [ 8]  630 	ld	(hl+), a
      000201 71               [ 8]  631 	ld	(hl), c
                           000202   632 	C$HeroExec.c$128$4_0$160	= .
                                    633 	.globl	C$HeroExec.c$128$4_0$160
                                    634 ;C:\Users\sva13\OneDrive\ドキュメント\会社\課題\gbdk\Project\gb-test\source\exec\HeroExec.c:128: move_sprite(3,spriteX+8,spriteY);
      000202 C3rAAr04         [16]  635 	jp	00204$
      000205                        636 00132$:
                           000205   637 	C$HeroExec.c$132$5_0$163	= .
                                    638 	.globl	C$HeroExec.c$132$5_0$163
                                    639 ;C:\Users\sva13\OneDrive\ドキュメント\会社\課題\gbdk\Project\gb-test\source\exec\HeroExec.c:132: if(spriteX != 80){
      000205 FAr01r00         [16]  640 	ld	a, (#_spriteX)
      000208 D6 50            [ 8]  641 	sub	a, #0x50
      00020A 28 1E            [12]  642 	jr	Z, 00129$
                           00020C   643 	C$HeroExec.c$133$6_0$164	= .
                                    644 	.globl	C$HeroExec.c$133$6_0$164
                                    645 ;C:\Users\sva13\OneDrive\ドキュメント\会社\課題\gbdk\Project\gb-test\source\exec\HeroExec.c:133: spriteX += 4;
      00020C 21r01r00         [12]  646 	ld	hl, #_spriteX
      00020F 71               [ 8]  647 	ld	(hl), c
                                    648 ;C:\Users\sva13\OneDrive\ドキュメント\会社\課題\gbdk\Project\gb-test\source\exec\HeroExec.c:134: move_sprite(2,spriteX,spriteY);
      000210 4E               [ 8]  649 	ld	c, (hl)
                                    650 ;C:/Users/sva13/OneDrive/ドキュメント/会社/課題/gbdk/Resources/gbdk/include/gb/gb.h:1675: OAM_item_t * itm = &shadow_OAM[nb];
      000211 21r08r00         [12]  651 	ld	hl, #(_shadow_OAM + 8)
                                    652 ;C:/Users/sva13/OneDrive/ドキュメント/会社/課題/gbdk/Resources/gbdk/include/gb/gb.h:1676: itm->y=y, itm->x=x;
      000214 7B               [ 4]  653 	ld	a, e
      000215 22               [ 8]  654 	ld	(hl+), a
      000216 71               [ 8]  655 	ld	(hl), c
                                    656 ;C:\Users\sva13\OneDrive\ドキュメント\会社\課題\gbdk\Project\gb-test\source\exec\HeroExec.c:135: move_sprite(3,spriteX+8,spriteY);
      000217 21r02r00         [12]  657 	ld	hl, #_spriteY
      00021A 46               [ 8]  658 	ld	b, (hl)
      00021B FAr01r00         [16]  659 	ld	a, (#_spriteX)
      00021E C6 08            [ 8]  660 	add	a, #0x08
      000220 4F               [ 4]  661 	ld	c, a
                                    662 ;C:/Users/sva13/OneDrive/ドキュメント/会社/課題/gbdk/Resources/gbdk/include/gb/gb.h:1675: OAM_item_t * itm = &shadow_OAM[nb];
      000221 21r0Cr00         [12]  663 	ld	hl, #(_shadow_OAM + 12)
                                    664 ;C:/Users/sva13/OneDrive/ドキュメント/会社/課題/gbdk/Resources/gbdk/include/gb/gb.h:1676: itm->y=y, itm->x=x;
      000224 78               [ 4]  665 	ld	a, b
      000225 22               [ 8]  666 	ld	(hl+), a
      000226 71               [ 8]  667 	ld	(hl), c
                           000227   668 	C$HeroExec.c$135$5_0$163	= .
                                    669 	.globl	C$HeroExec.c$135$5_0$163
                                    670 ;C:\Users\sva13\OneDrive\ドキュメント\会社\課題\gbdk\Project\gb-test\source\exec\HeroExec.c:135: move_sprite(3,spriteX+8,spriteY);
      000227 C3rAAr04         [16]  671 	jp	00204$
      00022A                        672 00129$:
                           00022A   673 	C$HeroExec.c$138$6_0$165	= .
                                    674 	.globl	C$HeroExec.c$138$6_0$165
                                    675 ;C:\Users\sva13\OneDrive\ドキュメント\会社\課題\gbdk\Project\gb-test\source\exec\HeroExec.c:138: bkgX += 4;
      00022A 21r03r00         [12]  676 	ld	hl, #_bkgX
      00022D 7E               [ 8]  677 	ld	a, (hl)
      00022E C6 04            [ 8]  678 	add	a, #0x04
      000230 77               [ 8]  679 	ld	(hl), a
                                    680 ;C:\Users\sva13\OneDrive\ドキュメント\会社\課題\gbdk\Project\gb-test\source\exec\HeroExec.c:139: move_bkg(bkgX,bkgY);
      000231 21r04r00         [12]  681 	ld	hl, #_bkgY
      000234 4E               [ 8]  682 	ld	c, (hl)
      000235 FAr03r00         [16]  683 	ld	a, (#_bkgX)
      000238 E0r00            [12]  684 	ldh	(_SCX_REG + 0), a
                                    685 ;C:/Users/sva13/OneDrive/ドキュメント/会社/課題/gbdk/Resources/gbdk/include/gb/gb.h:1208: SCX_REG=x, SCY_REG=y;
      00023A 79               [ 4]  686 	ld	a, c
      00023B E0r00            [12]  687 	ldh	(_SCY_REG + 0), a
                           00023D   688 	C$HeroExec.c$140$6_0$165	= .
                                    689 	.globl	C$HeroExec.c$140$6_0$165
                                    690 ;C:\Users\sva13\OneDrive\ドキュメント\会社\課題\gbdk\Project\gb-test\source\exec\HeroExec.c:140: EyePosAdjust(-4,0);
      00023D 1E 00            [ 8]  691 	ld	e, #0x00
      00023F 3E FC            [ 8]  692 	ld	a, #0xfc
      000241 CDr00r00         [24]  693 	call	_EyePosAdjust
      000244 C3rAAr04         [16]  694 	jp	00204$
      000247                        695 00203$:
                           000247   696 	C$HeroExec.c$145$2_0$155	= .
                                    697 	.globl	C$HeroExec.c$145$2_0$155
                                    698 ;C:\Users\sva13\OneDrive\ドキュメント\会社\課題\gbdk\Project\gb-test\source\exec\HeroExec.c:145: else if(heroAction == MOVELEFT){
      000247 FAr0Ar00         [16]  699 	ld	a, (#_heroAction)
      00024A D6 04            [ 8]  700 	sub	a, #0x04
      00024C C2r19r03         [16]  701 	jp	NZ,00200$
                           00024F   702 	C$HeroExec.c$146$3_0$166	= .
                                    703 	.globl	C$HeroExec.c$146$3_0$166
                                    704 ;C:\Users\sva13\OneDrive\ドキュメント\会社\課題\gbdk\Project\gb-test\source\exec\HeroExec.c:146: if(actionCnt == 0){
      00024F FAr07r00         [16]  705 	ld	a, (#_actionCnt)
      000252 B7               [ 4]  706 	or	a, a
      000253 20 14            [12]  707 	jr	NZ, 00143$
                           000255   708 	C$HeroExec.c$147$4_0$167	= .
                                    709 	.globl	C$HeroExec.c$147$4_0$167
                                    710 ;C:\Users\sva13\OneDrive\ドキュメント\会社\課題\gbdk\Project\gb-test\source\exec\HeroExec.c:147: set_sprite_data(4,4,HeroLeftTile);
      000255 11r00r00         [12]  711 	ld	de, #_HeroLeftTile
      000258 D5               [16]  712 	push	de
      000259 21 04 04         [12]  713 	ld	hl, #0x404
      00025C E5               [16]  714 	push	hl
      00025D CDr00r00         [24]  715 	call	_set_sprite_data
      000260 E8 04            [16]  716 	add	sp, #4
                           000262   717 	C$HeroExec.c$148$4_0$167	= .
                                    718 	.globl	C$HeroExec.c$148$4_0$167
                                    719 ;C:\Users\sva13\OneDrive\ドキュメント\会社\課題\gbdk\Project\gb-test\source\exec\HeroExec.c:148: direction = LEFT;
      000262 21r0Br00         [12]  720 	ld	hl, #_direction
      000265 36 03            [12]  721 	ld	(hl), #0x03
      000267 18 29            [12]  722 	jr	00144$
      000269                        723 00143$:
                           000269   724 	C$HeroExec.c$150$3_0$166	= .
                                    725 	.globl	C$HeroExec.c$150$3_0$166
                                    726 ;C:\Users\sva13\OneDrive\ドキュメント\会社\課題\gbdk\Project\gb-test\source\exec\HeroExec.c:150: else if(actionCnt == 5){
      000269 79               [ 4]  727 	ld	a, c
      00026A B7               [ 4]  728 	or	a, a
      00026B 28 0F            [12]  729 	jr	Z, 00140$
                           00026D   730 	C$HeroExec.c$151$4_0$168	= .
                                    731 	.globl	C$HeroExec.c$151$4_0$168
                                    732 ;C:\Users\sva13\OneDrive\ドキュメント\会社\課題\gbdk\Project\gb-test\source\exec\HeroExec.c:151: set_sprite_data(4,4,HeroLeftWalkTile);
      00026D 11r00r00         [12]  733 	ld	de, #_HeroLeftWalkTile
      000270 D5               [16]  734 	push	de
      000271 21 04 04         [12]  735 	ld	hl, #0x404
      000274 E5               [16]  736 	push	hl
      000275 CDr00r00         [24]  737 	call	_set_sprite_data
      000278 E8 04            [16]  738 	add	sp, #4
      00027A 18 16            [12]  739 	jr	00144$
      00027C                        740 00140$:
                           00027C   741 	C$HeroExec.c$153$3_0$166	= .
                                    742 	.globl	C$HeroExec.c$153$3_0$166
                                    743 ;C:\Users\sva13\OneDrive\ドキュメント\会社\課題\gbdk\Project\gb-test\source\exec\HeroExec.c:153: else if(actionCnt == 10){
      00027C 78               [ 4]  744 	ld	a, b
      00027D B7               [ 4]  745 	or	a, a
      00027E 28 12            [12]  746 	jr	Z, 00144$
                           000280   747 	C$HeroExec.c$154$4_0$169	= .
                                    748 	.globl	C$HeroExec.c$154$4_0$169
                                    749 ;C:\Users\sva13\OneDrive\ドキュメント\会社\課題\gbdk\Project\gb-test\source\exec\HeroExec.c:154: set_sprite_data(4,4,HeroLeftTile);
      000280 11r00r00         [12]  750 	ld	de, #_HeroLeftTile
      000283 D5               [16]  751 	push	de
      000284 21 04 04         [12]  752 	ld	hl, #0x404
      000287 E5               [16]  753 	push	hl
      000288 CDr00r00         [24]  754 	call	_set_sprite_data
      00028B E8 04            [16]  755 	add	sp, #4
                           00028D   756 	C$HeroExec.c$155$4_0$169	= .
                                    757 	.globl	C$HeroExec.c$155$4_0$169
                                    758 ;C:\Users\sva13\OneDrive\ドキュメント\会社\課題\gbdk\Project\gb-test\source\exec\HeroExec.c:155: heroAction = NOACTION;
      00028D 21r0Ar00         [12]  759 	ld	hl, #_heroAction
      000290 36 00            [12]  760 	ld	(hl), #0x00
      000292                        761 00144$:
                           000292   762 	C$HeroExec.c$157$3_0$166	= .
                                    763 	.globl	C$HeroExec.c$157$3_0$166
                                    764 ;C:\Users\sva13\OneDrive\ドキュメント\会社\課題\gbdk\Project\gb-test\source\exec\HeroExec.c:157: if(actionCnt == 5 || actionCnt == 10){
      000292 FAr07r00         [16]  765 	ld	a, (#_actionCnt)
      000295 D6 05            [ 8]  766 	sub	a, #0x05
      000297 28 08            [12]  767 	jr	Z, 00153$
      000299 FAr07r00         [16]  768 	ld	a, (#_actionCnt)
      00029C D6 0A            [ 8]  769 	sub	a, #0x0a
      00029E C2rAAr04         [16]  770 	jp	NZ,00204$
      0002A1                        771 00153$:
                           0002A1   772 	C$HeroExec.c$126$1_0$146	= .
                                    773 	.globl	C$HeroExec.c$126$1_0$146
                                    774 ;C:\Users\sva13\OneDrive\ドキュメント\会社\課題\gbdk\Project\gb-test\source\exec\HeroExec.c:126: spriteX += 4;
      0002A1 FAr01r00         [16]  775 	ld	a, (#_spriteX)
                           0002A4   776 	C$HeroExec.c$127$1_0$146	= .
                                    777 	.globl	C$HeroExec.c$127$1_0$146
                                    778 ;C:\Users\sva13\OneDrive\ドキュメント\会社\課題\gbdk\Project\gb-test\source\exec\HeroExec.c:127: move_sprite(2,spriteX,spriteY);
      0002A4 21r02r00         [12]  779 	ld	hl, #_spriteY
      0002A7 5E               [ 8]  780 	ld	e, (hl)
                           0002A8   781 	C$HeroExec.c$160$1_0$146	= .
                                    782 	.globl	C$HeroExec.c$160$1_0$146
                                    783 ;C:\Users\sva13\OneDrive\ドキュメント\会社\課題\gbdk\Project\gb-test\source\exec\HeroExec.c:160: spriteX -= 4;
      0002A8 C6 FC            [ 8]  784 	add	a, #0xfc
      0002AA 4F               [ 4]  785 	ld	c, a
                           0002AB   786 	C$HeroExec.c$158$4_0$170	= .
                                    787 	.globl	C$HeroExec.c$158$4_0$170
                                    788 ;C:\Users\sva13\OneDrive\ドキュメント\会社\課題\gbdk\Project\gb-test\source\exec\HeroExec.c:158: if(bkgX == 0){
      0002AB FAr03r00         [16]  789 	ld	a, (#_bkgX)
      0002AE B7               [ 4]  790 	or	a, a
      0002AF 20 26            [12]  791 	jr	NZ, 00151$
                           0002B1   792 	C$HeroExec.c$159$5_0$171	= .
                                    793 	.globl	C$HeroExec.c$159$5_0$171
                                    794 ;C:\Users\sva13\OneDrive\ドキュメント\会社\課題\gbdk\Project\gb-test\source\exec\HeroExec.c:159: if(spriteX != 40){
      0002B1 FAr01r00         [16]  795 	ld	a, (#_spriteX)
      0002B4 D6 28            [ 8]  796 	sub	a, #0x28
      0002B6 CArAAr04         [16]  797 	jp	Z,00204$
                           0002B9   798 	C$HeroExec.c$160$6_0$172	= .
                                    799 	.globl	C$HeroExec.c$160$6_0$172
                                    800 ;C:\Users\sva13\OneDrive\ドキュメント\会社\課題\gbdk\Project\gb-test\source\exec\HeroExec.c:160: spriteX -= 4;
      0002B9 21r01r00         [12]  801 	ld	hl, #_spriteX
      0002BC 71               [ 8]  802 	ld	(hl), c
                                    803 ;C:\Users\sva13\OneDrive\ドキュメント\会社\課題\gbdk\Project\gb-test\source\exec\HeroExec.c:161: move_sprite(2,spriteX,spriteY);
      0002BD 4E               [ 8]  804 	ld	c, (hl)
                                    805 ;C:/Users/sva13/OneDrive/ドキュメント/会社/課題/gbdk/Resources/gbdk/include/gb/gb.h:1675: OAM_item_t * itm = &shadow_OAM[nb];
      0002BE 21r08r00         [12]  806 	ld	hl, #(_shadow_OAM + 8)
                                    807 ;C:/Users/sva13/OneDrive/ドキュメント/会社/課題/gbdk/Resources/gbdk/include/gb/gb.h:1676: itm->y=y, itm->x=x;
      0002C1 7B               [ 4]  808 	ld	a, e
      0002C2 22               [ 8]  809 	ld	(hl+), a
      0002C3 71               [ 8]  810 	ld	(hl), c
                                    811 ;C:\Users\sva13\OneDrive\ドキュメント\会社\課題\gbdk\Project\gb-test\source\exec\HeroExec.c:162: move_sprite(3,spriteX+8,spriteY);
      0002C4 21r02r00         [12]  812 	ld	hl, #_spriteY
      0002C7 5E               [ 8]  813 	ld	e, (hl)
      0002C8 FAr01r00         [16]  814 	ld	a, (#_spriteX)
      0002CB C6 08            [ 8]  815 	add	a, #0x08
      0002CD 4F               [ 4]  816 	ld	c, a
                                    817 ;C:/Users/sva13/OneDrive/ドキュメント/会社/課題/gbdk/Resources/gbdk/include/gb/gb.h:1675: OAM_item_t * itm = &shadow_OAM[nb];
      0002CE 21r0Cr00         [12]  818 	ld	hl, #(_shadow_OAM + 12)
                                    819 ;C:/Users/sva13/OneDrive/ドキュメント/会社/課題/gbdk/Resources/gbdk/include/gb/gb.h:1676: itm->y=y, itm->x=x;
      0002D1 7B               [ 4]  820 	ld	a, e
      0002D2 22               [ 8]  821 	ld	(hl+), a
      0002D3 71               [ 8]  822 	ld	(hl), c
                           0002D4   823 	C$HeroExec.c$162$4_0$170	= .
                                    824 	.globl	C$HeroExec.c$162$4_0$170
                                    825 ;C:\Users\sva13\OneDrive\ドキュメント\会社\課題\gbdk\Project\gb-test\source\exec\HeroExec.c:162: move_sprite(3,spriteX+8,spriteY);
      0002D4 C3rAAr04         [16]  826 	jp	00204$
      0002D7                        827 00151$:
                           0002D7   828 	C$HeroExec.c$166$5_0$173	= .
                                    829 	.globl	C$HeroExec.c$166$5_0$173
                                    830 ;C:\Users\sva13\OneDrive\ドキュメント\会社\課題\gbdk\Project\gb-test\source\exec\HeroExec.c:166: if(spriteX != 80){
      0002D7 FAr01r00         [16]  831 	ld	a, (#_spriteX)
      0002DA D6 50            [ 8]  832 	sub	a, #0x50
      0002DC 28 1E            [12]  833 	jr	Z, 00148$
                           0002DE   834 	C$HeroExec.c$167$6_0$174	= .
                                    835 	.globl	C$HeroExec.c$167$6_0$174
                                    836 ;C:\Users\sva13\OneDrive\ドキュメント\会社\課題\gbdk\Project\gb-test\source\exec\HeroExec.c:167: spriteX -= 4;
      0002DE 21r01r00         [12]  837 	ld	hl, #_spriteX
      0002E1 71               [ 8]  838 	ld	(hl), c
                                    839 ;C:\Users\sva13\OneDrive\ドキュメント\会社\課題\gbdk\Project\gb-test\source\exec\HeroExec.c:168: move_sprite(2,spriteX,spriteY);
      0002E2 4E               [ 8]  840 	ld	c, (hl)
                                    841 ;C:/Users/sva13/OneDrive/ドキュメント/会社/課題/gbdk/Resources/gbdk/include/gb/gb.h:1675: OAM_item_t * itm = &shadow_OAM[nb];
      0002E3 21r08r00         [12]  842 	ld	hl, #(_shadow_OAM + 8)
                                    843 ;C:/Users/sva13/OneDrive/ドキュメント/会社/課題/gbdk/Resources/gbdk/include/gb/gb.h:1676: itm->y=y, itm->x=x;
      0002E6 7B               [ 4]  844 	ld	a, e
      0002E7 22               [ 8]  845 	ld	(hl+), a
      0002E8 71               [ 8]  846 	ld	(hl), c
                                    847 ;C:\Users\sva13\OneDrive\ドキュメント\会社\課題\gbdk\Project\gb-test\source\exec\HeroExec.c:169: move_sprite(3,spriteX+8,spriteY);
      0002E9 21r02r00         [12]  848 	ld	hl, #_spriteY
      0002EC 46               [ 8]  849 	ld	b, (hl)
      0002ED FAr01r00         [16]  850 	ld	a, (#_spriteX)
      0002F0 C6 08            [ 8]  851 	add	a, #0x08
      0002F2 4F               [ 4]  852 	ld	c, a
                                    853 ;C:/Users/sva13/OneDrive/ドキュメント/会社/課題/gbdk/Resources/gbdk/include/gb/gb.h:1675: OAM_item_t * itm = &shadow_OAM[nb];
      0002F3 21r0Cr00         [12]  854 	ld	hl, #(_shadow_OAM + 12)
                                    855 ;C:/Users/sva13/OneDrive/ドキュメント/会社/課題/gbdk/Resources/gbdk/include/gb/gb.h:1676: itm->y=y, itm->x=x;
      0002F6 78               [ 4]  856 	ld	a, b
      0002F7 22               [ 8]  857 	ld	(hl+), a
      0002F8 71               [ 8]  858 	ld	(hl), c
                           0002F9   859 	C$HeroExec.c$169$5_0$173	= .
                                    860 	.globl	C$HeroExec.c$169$5_0$173
                                    861 ;C:\Users\sva13\OneDrive\ドキュメント\会社\課題\gbdk\Project\gb-test\source\exec\HeroExec.c:169: move_sprite(3,spriteX+8,spriteY);
      0002F9 C3rAAr04         [16]  862 	jp	00204$
      0002FC                        863 00148$:
                           0002FC   864 	C$HeroExec.c$172$6_0$175	= .
                                    865 	.globl	C$HeroExec.c$172$6_0$175
                                    866 ;C:\Users\sva13\OneDrive\ドキュメント\会社\課題\gbdk\Project\gb-test\source\exec\HeroExec.c:172: bkgX -= 4;
      0002FC 21r03r00         [12]  867 	ld	hl, #_bkgX
      0002FF 7E               [ 8]  868 	ld	a, (hl)
      000300 C6 FC            [ 8]  869 	add	a, #0xfc
      000302 77               [ 8]  870 	ld	(hl), a
                                    871 ;C:\Users\sva13\OneDrive\ドキュメント\会社\課題\gbdk\Project\gb-test\source\exec\HeroExec.c:173: move_bkg(bkgX,bkgY);
      000303 21r04r00         [12]  872 	ld	hl, #_bkgY
      000306 4E               [ 8]  873 	ld	c, (hl)
      000307 FAr03r00         [16]  874 	ld	a, (#_bkgX)
      00030A E0r00            [12]  875 	ldh	(_SCX_REG + 0), a
                                    876 ;C:/Users/sva13/OneDrive/ドキュメント/会社/課題/gbdk/Resources/gbdk/include/gb/gb.h:1208: SCX_REG=x, SCY_REG=y;
      00030C 79               [ 4]  877 	ld	a, c
      00030D E0r00            [12]  878 	ldh	(_SCY_REG + 0), a
                           00030F   879 	C$HeroExec.c$174$6_0$175	= .
                                    880 	.globl	C$HeroExec.c$174$6_0$175
                                    881 ;C:\Users\sva13\OneDrive\ドキュメント\会社\課題\gbdk\Project\gb-test\source\exec\HeroExec.c:174: EyePosAdjust(4,0);
      00030F 1E 00            [ 8]  882 	ld	e, #0x00
      000311 3E 04            [ 8]  883 	ld	a, #0x04
      000313 CDr00r00         [24]  884 	call	_EyePosAdjust
      000316 C3rAAr04         [16]  885 	jp	00204$
      000319                        886 00200$:
                           000319   887 	C$HeroExec.c$179$2_0$155	= .
                                    888 	.globl	C$HeroExec.c$179$2_0$155
                                    889 ;C:\Users\sva13\OneDrive\ドキュメント\会社\課題\gbdk\Project\gb-test\source\exec\HeroExec.c:179: else if(heroAction == MOVEUP){
      000319 FAr0Ar00         [16]  890 	ld	a, (#_heroAction)
      00031C 3D               [ 4]  891 	dec	a
      00031D C2rE4r03         [16]  892 	jp	NZ,00197$
                           000320   893 	C$HeroExec.c$180$3_0$176	= .
                                    894 	.globl	C$HeroExec.c$180$3_0$176
                                    895 ;C:\Users\sva13\OneDrive\ドキュメント\会社\課題\gbdk\Project\gb-test\source\exec\HeroExec.c:180: if(actionCnt == 0){
      000320 FAr07r00         [16]  896 	ld	a, (#_actionCnt)
      000323 B7               [ 4]  897 	or	a, a
      000324 20 14            [12]  898 	jr	NZ, 00162$
                           000326   899 	C$HeroExec.c$181$4_0$177	= .
                                    900 	.globl	C$HeroExec.c$181$4_0$177
                                    901 ;C:\Users\sva13\OneDrive\ドキュメント\会社\課題\gbdk\Project\gb-test\source\exec\HeroExec.c:181: set_sprite_data(4,4,HeroUpTile);
      000326 11r00r00         [12]  902 	ld	de, #_HeroUpTile
      000329 D5               [16]  903 	push	de
      00032A 21 04 04         [12]  904 	ld	hl, #0x404
      00032D E5               [16]  905 	push	hl
      00032E CDr00r00         [24]  906 	call	_set_sprite_data
      000331 E8 04            [16]  907 	add	sp, #4
                           000333   908 	C$HeroExec.c$182$4_0$177	= .
                                    909 	.globl	C$HeroExec.c$182$4_0$177
                                    910 ;C:\Users\sva13\OneDrive\ドキュメント\会社\課題\gbdk\Project\gb-test\source\exec\HeroExec.c:182: direction = UP;
      000333 21r0Br00         [12]  911 	ld	hl, #_direction
      000336 36 00            [12]  912 	ld	(hl), #0x00
      000338 18 29            [12]  913 	jr	00163$
      00033A                        914 00162$:
                           00033A   915 	C$HeroExec.c$184$3_0$176	= .
                                    916 	.globl	C$HeroExec.c$184$3_0$176
                                    917 ;C:\Users\sva13\OneDrive\ドキュメント\会社\課題\gbdk\Project\gb-test\source\exec\HeroExec.c:184: else if(actionCnt == 5){
      00033A 79               [ 4]  918 	ld	a, c
      00033B B7               [ 4]  919 	or	a, a
      00033C 28 0F            [12]  920 	jr	Z, 00159$
                           00033E   921 	C$HeroExec.c$185$4_0$178	= .
                                    922 	.globl	C$HeroExec.c$185$4_0$178
                                    923 ;C:\Users\sva13\OneDrive\ドキュメント\会社\課題\gbdk\Project\gb-test\source\exec\HeroExec.c:185: set_sprite_data(4,4,HeroUpWalkTile);
      00033E 11r00r00         [12]  924 	ld	de, #_HeroUpWalkTile
      000341 D5               [16]  925 	push	de
      000342 21 04 04         [12]  926 	ld	hl, #0x404
      000345 E5               [16]  927 	push	hl
      000346 CDr00r00         [24]  928 	call	_set_sprite_data
      000349 E8 04            [16]  929 	add	sp, #4
      00034B 18 16            [12]  930 	jr	00163$
      00034D                        931 00159$:
                           00034D   932 	C$HeroExec.c$187$3_0$176	= .
                                    933 	.globl	C$HeroExec.c$187$3_0$176
                                    934 ;C:\Users\sva13\OneDrive\ドキュメント\会社\課題\gbdk\Project\gb-test\source\exec\HeroExec.c:187: else if(actionCnt == 10){
      00034D 78               [ 4]  935 	ld	a, b
      00034E B7               [ 4]  936 	or	a, a
      00034F 28 12            [12]  937 	jr	Z, 00163$
                           000351   938 	C$HeroExec.c$188$4_0$179	= .
                                    939 	.globl	C$HeroExec.c$188$4_0$179
                                    940 ;C:\Users\sva13\OneDrive\ドキュメント\会社\課題\gbdk\Project\gb-test\source\exec\HeroExec.c:188: set_sprite_data(4,4,HeroUpTile);
      000351 11r00r00         [12]  941 	ld	de, #_HeroUpTile
      000354 D5               [16]  942 	push	de
      000355 21 04 04         [12]  943 	ld	hl, #0x404
      000358 E5               [16]  944 	push	hl
      000359 CDr00r00         [24]  945 	call	_set_sprite_data
      00035C E8 04            [16]  946 	add	sp, #4
                           00035E   947 	C$HeroExec.c$189$4_0$179	= .
                                    948 	.globl	C$HeroExec.c$189$4_0$179
                                    949 ;C:\Users\sva13\OneDrive\ドキュメント\会社\課題\gbdk\Project\gb-test\source\exec\HeroExec.c:189: heroAction = NOACTION;
      00035E 21r0Ar00         [12]  950 	ld	hl, #_heroAction
      000361 36 00            [12]  951 	ld	(hl), #0x00
      000363                        952 00163$:
                           000363   953 	C$HeroExec.c$191$3_0$176	= .
                                    954 	.globl	C$HeroExec.c$191$3_0$176
                                    955 ;C:\Users\sva13\OneDrive\ドキュメント\会社\課題\gbdk\Project\gb-test\source\exec\HeroExec.c:191: if(actionCnt == 5 || actionCnt == 10){
      000363 FAr07r00         [16]  956 	ld	a, (#_actionCnt)
      000366 D6 05            [ 8]  957 	sub	a, #0x05
      000368 28 08            [12]  958 	jr	Z, 00172$
      00036A FAr07r00         [16]  959 	ld	a, (#_actionCnt)
      00036D D6 0A            [ 8]  960 	sub	a, #0x0a
      00036F C2rAAr04         [16]  961 	jp	NZ,00204$
      000372                        962 00172$:
                           000372   963 	C$HeroExec.c$127$1_0$146	= .
                                    964 	.globl	C$HeroExec.c$127$1_0$146
                                    965 ;C:\Users\sva13\OneDrive\ドキュメント\会社\課題\gbdk\Project\gb-test\source\exec\HeroExec.c:127: move_sprite(2,spriteX,spriteY);
      000372 21r01r00         [12]  966 	ld	hl, #_spriteX
      000375 4E               [ 8]  967 	ld	c, (hl)
                           000376   968 	C$HeroExec.c$194$1_0$146	= .
                                    969 	.globl	C$HeroExec.c$194$1_0$146
                                    970 ;C:\Users\sva13\OneDrive\ドキュメント\会社\課題\gbdk\Project\gb-test\source\exec\HeroExec.c:194: spriteY -= 4;
      000376 FAr02r00         [16]  971 	ld	a, (#_spriteY)
      000379 C6 FC            [ 8]  972 	add	a, #0xfc
      00037B 5F               [ 4]  973 	ld	e, a
                           00037C   974 	C$HeroExec.c$192$4_0$180	= .
                                    975 	.globl	C$HeroExec.c$192$4_0$180
                                    976 ;C:\Users\sva13\OneDrive\ドキュメント\会社\課題\gbdk\Project\gb-test\source\exec\HeroExec.c:192: if(bkgY == 0){
      00037C FAr04r00         [16]  977 	ld	a, (#_bkgY)
      00037F B7               [ 4]  978 	or	a, a
      000380 20 25            [12]  979 	jr	NZ, 00170$
                           000382   980 	C$HeroExec.c$193$5_0$181	= .
                                    981 	.globl	C$HeroExec.c$193$5_0$181
                                    982 ;C:\Users\sva13\OneDrive\ドキュメント\会社\課題\gbdk\Project\gb-test\source\exec\HeroExec.c:193: if(spriteY != 40){
      000382 FAr02r00         [16]  983 	ld	a, (#_spriteY)
      000385 D6 28            [ 8]  984 	sub	a, #0x28
      000387 CArAAr04         [16]  985 	jp	Z,00204$
                           00038A   986 	C$HeroExec.c$194$6_0$182	= .
                                    987 	.globl	C$HeroExec.c$194$6_0$182
                                    988 ;C:\Users\sva13\OneDrive\ドキュメント\会社\課題\gbdk\Project\gb-test\source\exec\HeroExec.c:194: spriteY -= 4;
      00038A 21r02r00         [12]  989 	ld	hl, #_spriteY
      00038D 73               [ 8]  990 	ld	(hl), e
                                    991 ;C:\Users\sva13\OneDrive\ドキュメント\会社\課題\gbdk\Project\gb-test\source\exec\HeroExec.c:195: move_sprite(2,spriteX,spriteY);
                                    992 ;C:/Users/sva13/OneDrive/ドキュメント/会社/課題/gbdk/Resources/gbdk/include/gb/gb.h:1675: OAM_item_t * itm = &shadow_OAM[nb];
                                    993 ;C:/Users/sva13/OneDrive/ドキュメント/会社/課題/gbdk/Resources/gbdk/include/gb/gb.h:1676: itm->y=y, itm->x=x;
      00038E 7E               [ 8]  994 	ld	a, (hl)
      00038F 21r08r00         [12]  995 	ld	hl, #(_shadow_OAM + 8)
      000392 22               [ 8]  996 	ld	(hl+), a
      000393 71               [ 8]  997 	ld	(hl), c
                                    998 ;C:\Users\sva13\OneDrive\ドキュメント\会社\課題\gbdk\Project\gb-test\source\exec\HeroExec.c:196: move_sprite(3,spriteX+8,spriteY);
      000394 21r02r00         [12]  999 	ld	hl, #_spriteY
      000397 5E               [ 8] 1000 	ld	e, (hl)
      000398 FAr01r00         [16] 1001 	ld	a, (#_spriteX)
      00039B C6 08            [ 8] 1002 	add	a, #0x08
      00039D 4F               [ 4] 1003 	ld	c, a
                                   1004 ;C:/Users/sva13/OneDrive/ドキュメント/会社/課題/gbdk/Resources/gbdk/include/gb/gb.h:1675: OAM_item_t * itm = &shadow_OAM[nb];
      00039E 21r0Cr00         [12] 1005 	ld	hl, #(_shadow_OAM + 12)
                                   1006 ;C:/Users/sva13/OneDrive/ドキュメント/会社/課題/gbdk/Resources/gbdk/include/gb/gb.h:1676: itm->y=y, itm->x=x;
      0003A1 7B               [ 4] 1007 	ld	a, e
      0003A2 22               [ 8] 1008 	ld	(hl+), a
      0003A3 71               [ 8] 1009 	ld	(hl), c
                           0003A4  1010 	C$HeroExec.c$196$4_0$180	= .
                                   1011 	.globl	C$HeroExec.c$196$4_0$180
                                   1012 ;C:\Users\sva13\OneDrive\ドキュメント\会社\課題\gbdk\Project\gb-test\source\exec\HeroExec.c:196: move_sprite(3,spriteX+8,spriteY);
      0003A4 C3rAAr04         [16] 1013 	jp	00204$
      0003A7                       1014 00170$:
                           0003A7  1015 	C$HeroExec.c$200$5_0$183	= .
                                   1016 	.globl	C$HeroExec.c$200$5_0$183
                                   1017 ;C:\Users\sva13\OneDrive\ドキュメント\会社\課題\gbdk\Project\gb-test\source\exec\HeroExec.c:200: if(spriteY != 72){
      0003A7 FAr02r00         [16] 1018 	ld	a, (#_spriteY)
      0003AA D6 48            [ 8] 1019 	sub	a, #0x48
      0003AC 28 1D            [12] 1020 	jr	Z, 00167$
                           0003AE  1021 	C$HeroExec.c$201$6_0$184	= .
                                   1022 	.globl	C$HeroExec.c$201$6_0$184
                                   1023 ;C:\Users\sva13\OneDrive\ドキュメント\会社\課題\gbdk\Project\gb-test\source\exec\HeroExec.c:201: spriteY -= 4;
      0003AE 21r02r00         [12] 1024 	ld	hl, #_spriteY
      0003B1 73               [ 8] 1025 	ld	(hl), e
                                   1026 ;C:\Users\sva13\OneDrive\ドキュメント\会社\課題\gbdk\Project\gb-test\source\exec\HeroExec.c:202: move_sprite(2,spriteX,spriteY);
                                   1027 ;C:/Users/sva13/OneDrive/ドキュメント/会社/課題/gbdk/Resources/gbdk/include/gb/gb.h:1675: OAM_item_t * itm = &shadow_OAM[nb];
                                   1028 ;C:/Users/sva13/OneDrive/ドキュメント/会社/課題/gbdk/Resources/gbdk/include/gb/gb.h:1676: itm->y=y, itm->x=x;
      0003B2 7E               [ 8] 1029 	ld	a, (hl)
      0003B3 21r08r00         [12] 1030 	ld	hl, #(_shadow_OAM + 8)
      0003B6 22               [ 8] 1031 	ld	(hl+), a
      0003B7 71               [ 8] 1032 	ld	(hl), c
                                   1033 ;C:\Users\sva13\OneDrive\ドキュメント\会社\課題\gbdk\Project\gb-test\source\exec\HeroExec.c:203: move_sprite(3,spriteX+8,spriteY);
      0003B8 21r02r00         [12] 1034 	ld	hl, #_spriteY
      0003BB 46               [ 8] 1035 	ld	b, (hl)
      0003BC FAr01r00         [16] 1036 	ld	a, (#_spriteX)
      0003BF C6 08            [ 8] 1037 	add	a, #0x08
      0003C1 4F               [ 4] 1038 	ld	c, a
                                   1039 ;C:/Users/sva13/OneDrive/ドキュメント/会社/課題/gbdk/Resources/gbdk/include/gb/gb.h:1675: OAM_item_t * itm = &shadow_OAM[nb];
      0003C2 21r0Cr00         [12] 1040 	ld	hl, #(_shadow_OAM + 12)
                                   1041 ;C:/Users/sva13/OneDrive/ドキュメント/会社/課題/gbdk/Resources/gbdk/include/gb/gb.h:1676: itm->y=y, itm->x=x;
      0003C5 78               [ 4] 1042 	ld	a, b
      0003C6 22               [ 8] 1043 	ld	(hl+), a
      0003C7 71               [ 8] 1044 	ld	(hl), c
                           0003C8  1045 	C$HeroExec.c$203$5_0$183	= .
                                   1046 	.globl	C$HeroExec.c$203$5_0$183
                                   1047 ;C:\Users\sva13\OneDrive\ドキュメント\会社\課題\gbdk\Project\gb-test\source\exec\HeroExec.c:203: move_sprite(3,spriteX+8,spriteY);
      0003C8 C3rAAr04         [16] 1048 	jp	00204$
      0003CB                       1049 00167$:
                           0003CB  1050 	C$HeroExec.c$206$6_0$185	= .
                                   1051 	.globl	C$HeroExec.c$206$6_0$185
                                   1052 ;C:\Users\sva13\OneDrive\ドキュメント\会社\課題\gbdk\Project\gb-test\source\exec\HeroExec.c:206: bkgY -= 4;
      0003CB 21r04r00         [12] 1053 	ld	hl, #_bkgY
      0003CE 7E               [ 8] 1054 	ld	a, (hl)
      0003CF C6 FC            [ 8] 1055 	add	a, #0xfc
      0003D1 77               [ 8] 1056 	ld	(hl), a
                                   1057 ;C:\Users\sva13\OneDrive\ドキュメント\会社\課題\gbdk\Project\gb-test\source\exec\HeroExec.c:207: move_bkg(bkgX,bkgY);
      0003D2 4E               [ 8] 1058 	ld	c, (hl)
      0003D3 FAr03r00         [16] 1059 	ld	a, (#_bkgX)
      0003D6 E0r00            [12] 1060 	ldh	(_SCX_REG + 0), a
                                   1061 ;C:/Users/sva13/OneDrive/ドキュメント/会社/課題/gbdk/Resources/gbdk/include/gb/gb.h:1208: SCX_REG=x, SCY_REG=y;
      0003D8 79               [ 4] 1062 	ld	a, c
      0003D9 E0r00            [12] 1063 	ldh	(_SCY_REG + 0), a
                           0003DB  1064 	C$HeroExec.c$208$6_0$185	= .
                                   1065 	.globl	C$HeroExec.c$208$6_0$185
                                   1066 ;C:\Users\sva13\OneDrive\ドキュメント\会社\課題\gbdk\Project\gb-test\source\exec\HeroExec.c:208: EyePosAdjust(0,4);
      0003DB 1E 04            [ 8] 1067 	ld	e, #0x04
      0003DD AF               [ 4] 1068 	xor	a, a
      0003DE CDr00r00         [24] 1069 	call	_EyePosAdjust
      0003E1 C3rAAr04         [16] 1070 	jp	00204$
      0003E4                       1071 00197$:
                           0003E4  1072 	C$HeroExec.c$213$2_0$155	= .
                                   1073 	.globl	C$HeroExec.c$213$2_0$155
                                   1074 ;C:\Users\sva13\OneDrive\ドキュメント\会社\課題\gbdk\Project\gb-test\source\exec\HeroExec.c:213: else if(heroAction == MOVEDOWN){
      0003E4 FAr0Ar00         [16] 1075 	ld	a, (#_heroAction)
      0003E7 D6 03            [ 8] 1076 	sub	a, #0x03
      0003E9 C2rAAr04         [16] 1077 	jp	NZ,00204$
                           0003EC  1078 	C$HeroExec.c$214$3_0$186	= .
                                   1079 	.globl	C$HeroExec.c$214$3_0$186
                                   1080 ;C:\Users\sva13\OneDrive\ドキュメント\会社\課題\gbdk\Project\gb-test\source\exec\HeroExec.c:214: if(actionCnt == 0){
      0003EC FAr07r00         [16] 1081 	ld	a, (#_actionCnt)
      0003EF B7               [ 4] 1082 	or	a, a
      0003F0 20 14            [12] 1083 	jr	NZ, 00181$
                           0003F2  1084 	C$HeroExec.c$215$4_0$187	= .
                                   1085 	.globl	C$HeroExec.c$215$4_0$187
                                   1086 ;C:\Users\sva13\OneDrive\ドキュメント\会社\課題\gbdk\Project\gb-test\source\exec\HeroExec.c:215: set_sprite_data(4,4,HeroDownTile);
      0003F2 11r00r00         [12] 1087 	ld	de, #_HeroDownTile
      0003F5 D5               [16] 1088 	push	de
      0003F6 21 04 04         [12] 1089 	ld	hl, #0x404
      0003F9 E5               [16] 1090 	push	hl
      0003FA CDr00r00         [24] 1091 	call	_set_sprite_data
      0003FD E8 04            [16] 1092 	add	sp, #4
                           0003FF  1093 	C$HeroExec.c$216$4_0$187	= .
                                   1094 	.globl	C$HeroExec.c$216$4_0$187
                                   1095 ;C:\Users\sva13\OneDrive\ドキュメント\会社\課題\gbdk\Project\gb-test\source\exec\HeroExec.c:216: direction = DOWN;
      0003FF 21r0Br00         [12] 1096 	ld	hl, #_direction
      000402 36 02            [12] 1097 	ld	(hl), #0x02
      000404 18 29            [12] 1098 	jr	00182$
      000406                       1099 00181$:
                           000406  1100 	C$HeroExec.c$218$3_0$186	= .
                                   1101 	.globl	C$HeroExec.c$218$3_0$186
                                   1102 ;C:\Users\sva13\OneDrive\ドキュメント\会社\課題\gbdk\Project\gb-test\source\exec\HeroExec.c:218: else if(actionCnt == 5){
      000406 79               [ 4] 1103 	ld	a, c
      000407 B7               [ 4] 1104 	or	a, a
      000408 28 0F            [12] 1105 	jr	Z, 00178$
                           00040A  1106 	C$HeroExec.c$219$4_0$188	= .
                                   1107 	.globl	C$HeroExec.c$219$4_0$188
                                   1108 ;C:\Users\sva13\OneDrive\ドキュメント\会社\課題\gbdk\Project\gb-test\source\exec\HeroExec.c:219: set_sprite_data(4,4,HeroDownWalkTile);
      00040A 11r00r00         [12] 1109 	ld	de, #_HeroDownWalkTile
      00040D D5               [16] 1110 	push	de
      00040E 21 04 04         [12] 1111 	ld	hl, #0x404
      000411 E5               [16] 1112 	push	hl
      000412 CDr00r00         [24] 1113 	call	_set_sprite_data
      000415 E8 04            [16] 1114 	add	sp, #4
      000417 18 16            [12] 1115 	jr	00182$
      000419                       1116 00178$:
                           000419  1117 	C$HeroExec.c$221$3_0$186	= .
                                   1118 	.globl	C$HeroExec.c$221$3_0$186
                                   1119 ;C:\Users\sva13\OneDrive\ドキュメント\会社\課題\gbdk\Project\gb-test\source\exec\HeroExec.c:221: else if(actionCnt == 10){
      000419 78               [ 4] 1120 	ld	a, b
      00041A B7               [ 4] 1121 	or	a, a
      00041B 28 12            [12] 1122 	jr	Z, 00182$
                           00041D  1123 	C$HeroExec.c$222$4_0$189	= .
                                   1124 	.globl	C$HeroExec.c$222$4_0$189
                                   1125 ;C:\Users\sva13\OneDrive\ドキュメント\会社\課題\gbdk\Project\gb-test\source\exec\HeroExec.c:222: set_sprite_data(4,4,HeroDownTile);
      00041D 11r00r00         [12] 1126 	ld	de, #_HeroDownTile
      000420 D5               [16] 1127 	push	de
      000421 21 04 04         [12] 1128 	ld	hl, #0x404
      000424 E5               [16] 1129 	push	hl
      000425 CDr00r00         [24] 1130 	call	_set_sprite_data
      000428 E8 04            [16] 1131 	add	sp, #4
                           00042A  1132 	C$HeroExec.c$223$4_0$189	= .
                                   1133 	.globl	C$HeroExec.c$223$4_0$189
                                   1134 ;C:\Users\sva13\OneDrive\ドキュメント\会社\課題\gbdk\Project\gb-test\source\exec\HeroExec.c:223: heroAction = NOACTION;
      00042A 21r0Ar00         [12] 1135 	ld	hl, #_heroAction
      00042D 36 00            [12] 1136 	ld	(hl), #0x00
      00042F                       1137 00182$:
                           00042F  1138 	C$HeroExec.c$225$3_0$186	= .
                                   1139 	.globl	C$HeroExec.c$225$3_0$186
                                   1140 ;C:\Users\sva13\OneDrive\ドキュメント\会社\課題\gbdk\Project\gb-test\source\exec\HeroExec.c:225: if(actionCnt == 5 || actionCnt == 10){
      00042F FAr07r00         [16] 1141 	ld	a, (#_actionCnt)
      000432 D6 05            [ 8] 1142 	sub	a, #0x05
      000434 28 07            [12] 1143 	jr	Z, 00191$
      000436 FAr07r00         [16] 1144 	ld	a, (#_actionCnt)
      000439 D6 0A            [ 8] 1145 	sub	a, #0x0a
      00043B 20 6D            [12] 1146 	jr	NZ, 00204$
      00043D                       1147 00191$:
                           00043D  1148 	C$HeroExec.c$127$1_0$146	= .
                                   1149 	.globl	C$HeroExec.c$127$1_0$146
                                   1150 ;C:\Users\sva13\OneDrive\ドキュメント\会社\課題\gbdk\Project\gb-test\source\exec\HeroExec.c:127: move_sprite(2,spriteX,spriteY);
      00043D 21r01r00         [12] 1151 	ld	hl, #_spriteX
      000440 4E               [ 8] 1152 	ld	c, (hl)
                           000441  1153 	C$HeroExec.c$194$1_0$146	= .
                                   1154 	.globl	C$HeroExec.c$194$1_0$146
                                   1155 ;C:\Users\sva13\OneDrive\ドキュメント\会社\課題\gbdk\Project\gb-test\source\exec\HeroExec.c:194: spriteY -= 4;
      000441 FAr02r00         [16] 1156 	ld	a, (#_spriteY)
                           000444  1157 	C$HeroExec.c$228$1_0$146	= .
                                   1158 	.globl	C$HeroExec.c$228$1_0$146
                                   1159 ;C:\Users\sva13\OneDrive\ドキュメント\会社\課題\gbdk\Project\gb-test\source\exec\HeroExec.c:228: spriteY += 4;
      000444 C6 04            [ 8] 1160 	add	a, #0x04
      000446 5F               [ 4] 1161 	ld	e, a
                           000447  1162 	C$HeroExec.c$226$4_0$190	= .
                                   1163 	.globl	C$HeroExec.c$226$4_0$190
                                   1164 ;C:\Users\sva13\OneDrive\ドキュメント\会社\課題\gbdk\Project\gb-test\source\exec\HeroExec.c:226: if(bkgY == 112){
      000447 FAr04r00         [16] 1165 	ld	a, (#_bkgY)
      00044A D6 70            [ 8] 1166 	sub	a, #0x70
      00044C 20 23            [12] 1167 	jr	NZ, 00189$
                           00044E  1168 	C$HeroExec.c$227$5_0$191	= .
                                   1169 	.globl	C$HeroExec.c$227$5_0$191
                                   1170 ;C:\Users\sva13\OneDrive\ドキュメント\会社\課題\gbdk\Project\gb-test\source\exec\HeroExec.c:227: if(spriteY != 112){
      00044E FAr02r00         [16] 1171 	ld	a, (#_spriteY)
      000451 D6 70            [ 8] 1172 	sub	a, #0x70
      000453 28 55            [12] 1173 	jr	Z, 00204$
                           000455  1174 	C$HeroExec.c$228$6_0$192	= .
                                   1175 	.globl	C$HeroExec.c$228$6_0$192
                                   1176 ;C:\Users\sva13\OneDrive\ドキュメント\会社\課題\gbdk\Project\gb-test\source\exec\HeroExec.c:228: spriteY += 4;
      000455 21r02r00         [12] 1177 	ld	hl, #_spriteY
      000458 73               [ 8] 1178 	ld	(hl), e
                                   1179 ;C:\Users\sva13\OneDrive\ドキュメント\会社\課題\gbdk\Project\gb-test\source\exec\HeroExec.c:229: move_sprite(2,spriteX,spriteY);
                                   1180 ;C:/Users/sva13/OneDrive/ドキュメント/会社/課題/gbdk/Resources/gbdk/include/gb/gb.h:1675: OAM_item_t * itm = &shadow_OAM[nb];
                                   1181 ;C:/Users/sva13/OneDrive/ドキュメント/会社/課題/gbdk/Resources/gbdk/include/gb/gb.h:1676: itm->y=y, itm->x=x;
      000459 7E               [ 8] 1182 	ld	a, (hl)
      00045A 21r08r00         [12] 1183 	ld	hl, #(_shadow_OAM + 8)
      00045D 22               [ 8] 1184 	ld	(hl+), a
      00045E 71               [ 8] 1185 	ld	(hl), c
                                   1186 ;C:\Users\sva13\OneDrive\ドキュメント\会社\課題\gbdk\Project\gb-test\source\exec\HeroExec.c:230: move_sprite(3,spriteX+8,spriteY);
      00045F 21r02r00         [12] 1187 	ld	hl, #_spriteY
      000462 5E               [ 8] 1188 	ld	e, (hl)
      000463 FAr01r00         [16] 1189 	ld	a, (#_spriteX)
      000466 C6 08            [ 8] 1190 	add	a, #0x08
      000468 4F               [ 4] 1191 	ld	c, a
                                   1192 ;C:/Users/sva13/OneDrive/ドキュメント/会社/課題/gbdk/Resources/gbdk/include/gb/gb.h:1675: OAM_item_t * itm = &shadow_OAM[nb];
      000469 21r0Cr00         [12] 1193 	ld	hl, #(_shadow_OAM + 12)
                                   1194 ;C:/Users/sva13/OneDrive/ドキュメント/会社/課題/gbdk/Resources/gbdk/include/gb/gb.h:1676: itm->y=y, itm->x=x;
      00046C 7B               [ 4] 1195 	ld	a, e
      00046D 22               [ 8] 1196 	ld	(hl+), a
      00046E 71               [ 8] 1197 	ld	(hl), c
                           00046F  1198 	C$HeroExec.c$230$4_0$190	= .
                                   1199 	.globl	C$HeroExec.c$230$4_0$190
                                   1200 ;C:\Users\sva13\OneDrive\ドキュメント\会社\課題\gbdk\Project\gb-test\source\exec\HeroExec.c:230: move_sprite(3,spriteX+8,spriteY);
      00046F 18 39            [12] 1201 	jr	00204$
      000471                       1202 00189$:
                           000471  1203 	C$HeroExec.c$234$5_0$193	= .
                                   1204 	.globl	C$HeroExec.c$234$5_0$193
                                   1205 ;C:\Users\sva13\OneDrive\ドキュメント\会社\課題\gbdk\Project\gb-test\source\exec\HeroExec.c:234: if(spriteY != 72){
      000471 FAr02r00         [16] 1206 	ld	a, (#_spriteY)
      000474 D6 48            [ 8] 1207 	sub	a, #0x48
      000476 28 1C            [12] 1208 	jr	Z, 00186$
                           000478  1209 	C$HeroExec.c$235$6_0$194	= .
                                   1210 	.globl	C$HeroExec.c$235$6_0$194
                                   1211 ;C:\Users\sva13\OneDrive\ドキュメント\会社\課題\gbdk\Project\gb-test\source\exec\HeroExec.c:235: spriteY += 4;
      000478 21r02r00         [12] 1212 	ld	hl, #_spriteY
      00047B 73               [ 8] 1213 	ld	(hl), e
                                   1214 ;C:\Users\sva13\OneDrive\ドキュメント\会社\課題\gbdk\Project\gb-test\source\exec\HeroExec.c:236: move_sprite(2,spriteX,spriteY);
                                   1215 ;C:/Users/sva13/OneDrive/ドキュメント/会社/課題/gbdk/Resources/gbdk/include/gb/gb.h:1675: OAM_item_t * itm = &shadow_OAM[nb];
                                   1216 ;C:/Users/sva13/OneDrive/ドキュメント/会社/課題/gbdk/Resources/gbdk/include/gb/gb.h:1676: itm->y=y, itm->x=x;
      00047C 7E               [ 8] 1217 	ld	a, (hl)
      00047D 21r08r00         [12] 1218 	ld	hl, #(_shadow_OAM + 8)
      000480 22               [ 8] 1219 	ld	(hl+), a
      000481 71               [ 8] 1220 	ld	(hl), c
                                   1221 ;C:\Users\sva13\OneDrive\ドキュメント\会社\課題\gbdk\Project\gb-test\source\exec\HeroExec.c:237: move_sprite(3,spriteX+8,spriteY);
      000482 21r02r00         [12] 1222 	ld	hl, #_spriteY
      000485 46               [ 8] 1223 	ld	b, (hl)
      000486 FAr01r00         [16] 1224 	ld	a, (#_spriteX)
      000489 C6 08            [ 8] 1225 	add	a, #0x08
      00048B 4F               [ 4] 1226 	ld	c, a
                                   1227 ;C:/Users/sva13/OneDrive/ドキュメント/会社/課題/gbdk/Resources/gbdk/include/gb/gb.h:1675: OAM_item_t * itm = &shadow_OAM[nb];
      00048C 21r0Cr00         [12] 1228 	ld	hl, #(_shadow_OAM + 12)
                                   1229 ;C:/Users/sva13/OneDrive/ドキュメント/会社/課題/gbdk/Resources/gbdk/include/gb/gb.h:1676: itm->y=y, itm->x=x;
      00048F 78               [ 4] 1230 	ld	a, b
      000490 22               [ 8] 1231 	ld	(hl+), a
      000491 71               [ 8] 1232 	ld	(hl), c
                           000492  1233 	C$HeroExec.c$237$5_0$193	= .
                                   1234 	.globl	C$HeroExec.c$237$5_0$193
                                   1235 ;C:\Users\sva13\OneDrive\ドキュメント\会社\課題\gbdk\Project\gb-test\source\exec\HeroExec.c:237: move_sprite(3,spriteX+8,spriteY);
      000492 18 16            [12] 1236 	jr	00204$
      000494                       1237 00186$:
                           000494  1238 	C$HeroExec.c$240$6_0$195	= .
                                   1239 	.globl	C$HeroExec.c$240$6_0$195
                                   1240 ;C:\Users\sva13\OneDrive\ドキュメント\会社\課題\gbdk\Project\gb-test\source\exec\HeroExec.c:240: bkgY += 4;
      000494 21r04r00         [12] 1241 	ld	hl, #_bkgY
      000497 7E               [ 8] 1242 	ld	a, (hl)
      000498 C6 04            [ 8] 1243 	add	a, #0x04
      00049A 77               [ 8] 1244 	ld	(hl), a
                                   1245 ;C:\Users\sva13\OneDrive\ドキュメント\会社\課題\gbdk\Project\gb-test\source\exec\HeroExec.c:241: move_bkg(bkgX,bkgY);
      00049B 4E               [ 8] 1246 	ld	c, (hl)
      00049C FAr03r00         [16] 1247 	ld	a, (#_bkgX)
      00049F E0r00            [12] 1248 	ldh	(_SCX_REG + 0), a
                                   1249 ;C:/Users/sva13/OneDrive/ドキュメント/会社/課題/gbdk/Resources/gbdk/include/gb/gb.h:1208: SCX_REG=x, SCY_REG=y;
      0004A1 79               [ 4] 1250 	ld	a, c
      0004A2 E0r00            [12] 1251 	ldh	(_SCY_REG + 0), a
                           0004A4  1252 	C$HeroExec.c$242$6_0$195	= .
                                   1253 	.globl	C$HeroExec.c$242$6_0$195
                                   1254 ;C:\Users\sva13\OneDrive\ドキュメント\会社\課題\gbdk\Project\gb-test\source\exec\HeroExec.c:242: EyePosAdjust(0,-4);
      0004A4 1E FC            [ 8] 1255 	ld	e, #0xfc
      0004A6 AF               [ 4] 1256 	xor	a, a
      0004A7 CDr00r00         [24] 1257 	call	_EyePosAdjust
      0004AA                       1258 00204$:
                           0004AA  1259 	C$HeroExec.c$247$2_0$155	= .
                                   1260 	.globl	C$HeroExec.c$247$2_0$155
                                   1261 ;C:\Users\sva13\OneDrive\ドキュメント\会社\課題\gbdk\Project\gb-test\source\exec\HeroExec.c:247: actionCnt++;
      0004AA 21r07r00         [12] 1262 	ld	hl, #_actionCnt
      0004AD 34               [12] 1263 	inc	(hl)
      0004AE                       1264 00206$:
                           0004AE  1265 	C$HeroExec.c$249$1_0$146	= .
                                   1266 	.globl	C$HeroExec.c$249$1_0$146
                                   1267 ;C:\Users\sva13\OneDrive\ドキュメント\会社\課題\gbdk\Project\gb-test\source\exec\HeroExec.c:249: if(swordAction == SWORD){
      0004AE FAr0Cr00         [16] 1268 	ld	a, (#_swordAction)
      0004B1 3D               [ 4] 1269 	dec	a
      0004B2 C2r90r0C         [16] 1270 	jp	NZ,00328$
                           0004B5  1271 	C$HeroExec.c$116$1_0$146	= .
                                   1272 	.globl	C$HeroExec.c$116$1_0$146
                                   1273 ;C:\Users\sva13\OneDrive\ドキュメント\会社\課題\gbdk\Project\gb-test\source\exec\HeroExec.c:116: else if(actionCnt == 5){
      0004B5 FAr07r00         [16] 1274 	ld	a, (#_actionCnt)
      0004B8 D6 05            [ 8] 1275 	sub	a, #0x05
      0004BA 3E 01            [ 8] 1276 	ld	a, #0x01
      0004BC 28 01            [12] 1277 	jr	Z, 00894$
      0004BE AF               [ 4] 1278 	xor	a, a
      0004BF                       1279 00894$:
      0004BF F8 00            [12] 1280 	ldhl	sp,	#0
      0004C1 77               [ 8] 1281 	ld	(hl), a
                           0004C2  1282 	C$HeroExec.c$261$1_0$146	= .
                                   1283 	.globl	C$HeroExec.c$261$1_0$146
                                   1284 ;C:\Users\sva13\OneDrive\ドキュメント\会社\課題\gbdk\Project\gb-test\source\exec\HeroExec.c:261: else if(actionCnt == 6){
      0004C2 FAr07r00         [16] 1285 	ld	a, (#_actionCnt)
      0004C5 D6 06            [ 8] 1286 	sub	a, #0x06
      0004C7 3E 01            [ 8] 1287 	ld	a, #0x01
      0004C9 28 01            [12] 1288 	jr	Z, 00896$
      0004CB AF               [ 4] 1289 	xor	a, a
      0004CC                       1290 00896$:
      0004CC F8 01            [12] 1291 	ldhl	sp,	#1
      0004CE 77               [ 8] 1292 	ld	(hl), a
                           0004CF  1293 	C$HeroExec.c$266$1_0$146	= .
                                   1294 	.globl	C$HeroExec.c$266$1_0$146
                                   1295 ;C:\Users\sva13\OneDrive\ドキュメント\会社\課題\gbdk\Project\gb-test\source\exec\HeroExec.c:266: else if(actionCnt == 11){
      0004CF FAr07r00         [16] 1296 	ld	a, (#_actionCnt)
      0004D2 D6 0B            [ 8] 1297 	sub	a, #0x0b
      0004D4 3E 01            [ 8] 1298 	ld	a, #0x01
      0004D6 28 01            [12] 1299 	jr	Z, 00898$
      0004D8 AF               [ 4] 1300 	xor	a, a
      0004D9                       1301 00898$:
      0004D9 F8 02            [12] 1302 	ldhl	sp,	#2
      0004DB 77               [ 8] 1303 	ld	(hl), a
                           0004DC  1304 	C$HeroExec.c$270$1_0$146	= .
                                   1305 	.globl	C$HeroExec.c$270$1_0$146
                                   1306 ;C:\Users\sva13\OneDrive\ドキュメント\会社\課題\gbdk\Project\gb-test\source\exec\HeroExec.c:270: else if(actionCnt == 12){
      0004DC FAr07r00         [16] 1307 	ld	a, (#_actionCnt)
      0004DF D6 0C            [ 8] 1308 	sub	a, #0x0c
      0004E1 3E 01            [ 8] 1309 	ld	a, #0x01
      0004E3 28 01            [12] 1310 	jr	Z, 00900$
      0004E5 AF               [ 4] 1311 	xor	a, a
      0004E6                       1312 00900$:
      0004E6 F8 03            [12] 1313 	ldhl	sp,	#3
      0004E8 77               [ 8] 1314 	ld	(hl), a
                           0004E9  1315 	C$HeroExec.c$276$1_0$146	= .
                                   1316 	.globl	C$HeroExec.c$276$1_0$146
                                   1317 ;C:\Users\sva13\OneDrive\ドキュメント\会社\課題\gbdk\Project\gb-test\source\exec\HeroExec.c:276: else if(actionCnt == 17){
      0004E9 FAr07r00         [16] 1318 	ld	a, (#_actionCnt)
      0004EC D6 11            [ 8] 1319 	sub	a, #0x11
      0004EE 3E 01            [ 8] 1320 	ld	a, #0x01
      0004F0 28 01            [12] 1321 	jr	Z, 00902$
      0004F2 AF               [ 4] 1322 	xor	a, a
      0004F3                       1323 00902$:
      0004F3 F8 04            [12] 1324 	ldhl	sp,	#4
      0004F5 77               [ 8] 1325 	ld	(hl), a
                           0004F6  1326 	C$HeroExec.c$280$1_0$146	= .
                                   1327 	.globl	C$HeroExec.c$280$1_0$146
                                   1328 ;C:\Users\sva13\OneDrive\ドキュメント\会社\課題\gbdk\Project\gb-test\source\exec\HeroExec.c:280: else if(actionCnt == 18){
      0004F6 FAr07r00         [16] 1329 	ld	a, (#_actionCnt)
      0004F9 D6 12            [ 8] 1330 	sub	a, #0x12
      0004FB 3E 01            [ 8] 1331 	ld	a, #0x01
      0004FD 28 01            [12] 1332 	jr	Z, 00904$
      0004FF AF               [ 4] 1333 	xor	a, a
      000500                       1334 00904$:
      000500 F8 05            [12] 1335 	ldhl	sp,	#5
      000502 77               [ 8] 1336 	ld	(hl), a
                           000503  1337 	C$HeroExec.c$285$1_0$146	= .
                                   1338 	.globl	C$HeroExec.c$285$1_0$146
                                   1339 ;C:\Users\sva13\OneDrive\ドキュメント\会社\課題\gbdk\Project\gb-test\source\exec\HeroExec.c:285: else if(actionCnt == 24){
      000503 FAr07r00         [16] 1340 	ld	a, (#_actionCnt)
      000506 D6 18            [ 8] 1341 	sub	a, #0x18
      000508 3E 01            [ 8] 1342 	ld	a, #0x01
      00050A 28 01            [12] 1343 	jr	Z, 00906$
      00050C AF               [ 4] 1344 	xor	a, a
      00050D                       1345 00906$:
      00050D F8 06            [12] 1346 	ldhl	sp,	#6
      00050F 77               [ 8] 1347 	ld	(hl), a
                           000510  1348 	C$HeroExec.c$250$2_0$196	= .
                                   1349 	.globl	C$HeroExec.c$250$2_0$196
                                   1350 ;C:\Users\sva13\OneDrive\ドキュメント\会社\課題\gbdk\Project\gb-test\source\exec\HeroExec.c:250: if(direction == UP){
      000510 FAr0Br00         [16] 1351 	ld	a, (#_direction)
      000513 B7               [ 4] 1352 	or	a, a
      000514 C2r2Cr07         [16] 1353 	jp	NZ, 00325$
                           000517  1354 	C$HeroExec.c$251$3_0$197	= .
                                   1355 	.globl	C$HeroExec.c$251$3_0$197
                                   1356 ;C:\Users\sva13\OneDrive\ドキュメント\会社\課題\gbdk\Project\gb-test\source\exec\HeroExec.c:251: if(actionCnt == 0){
      000517 FAr07r00         [16] 1357 	ld	a, (#_actionCnt)
      00051A B7               [ 4] 1358 	or	a, a
      00051B 20 51            [12] 1359 	jr	NZ, 00229$
                           00051D  1360 	C$HeroExec.c$252$4_0$198	= .
                                   1361 	.globl	C$HeroExec.c$252$4_0$198
                                   1362 ;C:\Users\sva13\OneDrive\ドキュメント\会社\課題\gbdk\Project\gb-test\source\exec\HeroExec.c:252: set_sprite_data(0,4,SwordRightDownTile);
      00051D 11r00r00         [12] 1363 	ld	de, #_SwordRightDownTile
      000520 D5               [16] 1364 	push	de
      000521 21 00 04         [12] 1365 	ld	hl, #0x400
      000524 E5               [16] 1366 	push	hl
      000525 CDr00r00         [24] 1367 	call	_set_sprite_data
      000528 E8 04            [16] 1368 	add	sp, #4
                           00052A  1369 	C$HeroExec.c$253$4_0$198	= .
                                   1370 	.globl	C$HeroExec.c$253$4_0$198
                                   1371 ;C:\Users\sva13\OneDrive\ドキュメント\会社\課題\gbdk\Project\gb-test\source\exec\HeroExec.c:253: set_sprite_data(4,4,HeroUpAttack1Tile);
      00052A 11r00r00         [12] 1372 	ld	de, #_HeroUpAttack1Tile
      00052D D5               [16] 1373 	push	de
      00052E 21 04 04         [12] 1374 	ld	hl, #0x404
      000531 E5               [16] 1375 	push	hl
      000532 CDr00r00         [24] 1376 	call	_set_sprite_data
      000535 E8 04            [16] 1377 	add	sp, #4
                                   1378 ;C:\Users\sva13\OneDrive\ドキュメント\会社\課題\gbdk\Project\gb-test\source\exec\HeroExec.c:254: move_sprite(0,spriteX+16,spriteY+8);
      000537 FAr02r00         [16] 1379 	ld	a, (#_spriteY)
      00053A C6 08            [ 8] 1380 	add	a, #0x08
      00053C F8 05            [12] 1381 	ldhl	sp,	#5
      00053E 77               [ 8] 1382 	ld	(hl), a
      00053F FAr01r00         [16] 1383 	ld	a, (#_spriteX)
      000542 F8 06            [12] 1384 	ldhl	sp,	#6
      000544 77               [ 8] 1385 	ld	(hl), a
      000545 7E               [ 8] 1386 	ld	a, (hl)
      000546 C6 10            [ 8] 1387 	add	a, #0x10
                                   1388 ;C:/Users/sva13/OneDrive/ドキュメント/会社/課題/gbdk/Resources/gbdk/include/gb/gb.h:1675: OAM_item_t * itm = &shadow_OAM[nb];
                                   1389 ;C:/Users/sva13/OneDrive/ドキュメント/会社/課題/gbdk/Resources/gbdk/include/gb/gb.h:1676: itm->y=y, itm->x=x;
      000548 32               [ 8] 1390 	ld	(hl-), a
      000549 01r00r00         [12] 1391 	ld	bc, #_shadow_OAM
      00054C 2A               [ 8] 1392 	ld	a, (hl+)
      00054D 02               [ 8] 1393 	ld	(bc), a
      00054E 03               [ 8] 1394 	inc	bc
      00054F 7E               [ 8] 1395 	ld	a, (hl)
      000550 02               [ 8] 1396 	ld	(bc), a
                                   1397 ;C:\Users\sva13\OneDrive\ドキュメント\会社\課題\gbdk\Project\gb-test\source\exec\HeroExec.c:255: move_sprite(1,spriteX+24,spriteY+8);
      000551 FAr02r00         [16] 1398 	ld	a, (#_spriteY)
      000554 C6 08            [ 8] 1399 	add	a, #0x08
      000556 F8 05            [12] 1400 	ldhl	sp,	#5
      000558 77               [ 8] 1401 	ld	(hl), a
      000559 FAr01r00         [16] 1402 	ld	a, (#_spriteX)
      00055C F8 06            [12] 1403 	ldhl	sp,	#6
      00055E 77               [ 8] 1404 	ld	(hl), a
      00055F 7E               [ 8] 1405 	ld	a, (hl)
      000560 C6 18            [ 8] 1406 	add	a, #0x18
                                   1407 ;C:/Users/sva13/OneDrive/ドキュメント/会社/課題/gbdk/Resources/gbdk/include/gb/gb.h:1675: OAM_item_t * itm = &shadow_OAM[nb];
                                   1408 ;C:/Users/sva13/OneDrive/ドキュメント/会社/課題/gbdk/Resources/gbdk/include/gb/gb.h:1676: itm->y=y, itm->x=x;
      000562 32               [ 8] 1409 	ld	(hl-), a
      000563 01r04r00         [12] 1410 	ld	bc, #(_shadow_OAM + 4)
      000566 2A               [ 8] 1411 	ld	a, (hl+)
      000567 02               [ 8] 1412 	ld	(bc), a
      000568 03               [ 8] 1413 	inc	bc
      000569 7E               [ 8] 1414 	ld	a, (hl)
      00056A 02               [ 8] 1415 	ld	(bc), a
                           00056B  1416 	C$HeroExec.c$255$3_0$197	= .
                                   1417 	.globl	C$HeroExec.c$255$3_0$197
                                   1418 ;C:\Users\sva13\OneDrive\ドキュメント\会社\課題\gbdk\Project\gb-test\source\exec\HeroExec.c:255: move_sprite(1,spriteX+24,spriteY+8);
      00056B C3rC9r06         [16] 1419 	jp	00230$
      00056E                       1420 00229$:
                           00056E  1421 	C$HeroExec.c$257$3_0$197	= .
                                   1422 	.globl	C$HeroExec.c$257$3_0$197
                                   1423 ;C:\Users\sva13\OneDrive\ドキュメント\会社\課題\gbdk\Project\gb-test\source\exec\HeroExec.c:257: else if(actionCnt == 5){
      00056E F8 00            [12] 1424 	ldhl	sp,	#0
      000570 7E               [ 8] 1425 	ld	a, (hl)
      000571 B7               [ 4] 1426 	or	a, a
      000572 28 17            [12] 1427 	jr	Z, 00226$
                                   1428 ;C:/Users/sva13/OneDrive/ドキュメント/会社/課題/gbdk/Resources/gbdk/include/gb/gb.h:1675: OAM_item_t * itm = &shadow_OAM[nb];
                                   1429 ;C:/Users/sva13/OneDrive/ドキュメント/会社/課題/gbdk/Resources/gbdk/include/gb/gb.h:1676: itm->y=y, itm->x=x;
      000574 21r00r00         [12] 1430 	ld	hl, #_shadow_OAM
      000577 36 FF            [12] 1431 	ld	(hl), #0xff
      000579 21r01r00         [12] 1432 	ld	hl, #(_shadow_OAM + 1)
      00057C 36 FF            [12] 1433 	ld	(hl), #0xff
                                   1434 ;C:/Users/sva13/OneDrive/ドキュメント/会社/課題/gbdk/Resources/gbdk/include/gb/gb.h:1675: OAM_item_t * itm = &shadow_OAM[nb];
                                   1435 ;C:/Users/sva13/OneDrive/ドキュメント/会社/課題/gbdk/Resources/gbdk/include/gb/gb.h:1676: itm->y=y, itm->x=x;
      00057E 21r04r00         [12] 1436 	ld	hl, #(_shadow_OAM + 4)
      000581 36 FF            [12] 1437 	ld	(hl), #0xff
      000583 21r05r00         [12] 1438 	ld	hl, #(_shadow_OAM + 5)
      000586 36 FF            [12] 1439 	ld	(hl), #0xff
                           000588  1440 	C$HeroExec.c$259$3_0$197	= .
                                   1441 	.globl	C$HeroExec.c$259$3_0$197
                                   1442 ;C:\Users\sva13\OneDrive\ドキュメント\会社\課題\gbdk\Project\gb-test\source\exec\HeroExec.c:259: move_sprite(1,255,255);
      000588 C3rC9r06         [16] 1443 	jp	00230$
      00058B                       1444 00226$:
                           00058B  1445 	C$HeroExec.c$261$3_0$197	= .
                                   1446 	.globl	C$HeroExec.c$261$3_0$197
                                   1447 ;C:\Users\sva13\OneDrive\ドキュメント\会社\課題\gbdk\Project\gb-test\source\exec\HeroExec.c:261: else if(actionCnt == 6){
      00058B F8 01            [12] 1448 	ldhl	sp,	#1
      00058D 7E               [ 8] 1449 	ld	a, (hl)
      00058E B7               [ 4] 1450 	or	a, a
      00058F 28 40            [12] 1451 	jr	Z, 00223$
                           000591  1452 	C$HeroExec.c$262$4_0$200	= .
                                   1453 	.globl	C$HeroExec.c$262$4_0$200
                                   1454 ;C:\Users\sva13\OneDrive\ドキュメント\会社\課題\gbdk\Project\gb-test\source\exec\HeroExec.c:262: set_sprite_data(0,4,SwordRightTile);
      000591 11r00r00         [12] 1455 	ld	de, #_SwordRightTile
      000594 D5               [16] 1456 	push	de
      000595 21 00 04         [12] 1457 	ld	hl, #0x400
      000598 E5               [16] 1458 	push	hl
      000599 CDr00r00         [24] 1459 	call	_set_sprite_data
      00059C E8 04            [16] 1460 	add	sp, #4
                                   1461 ;C:\Users\sva13\OneDrive\ドキュメント\会社\課題\gbdk\Project\gb-test\source\exec\HeroExec.c:263: move_sprite(0,spriteX+16,spriteY);
      00059E FAr02r00         [16] 1462 	ld	a, (#_spriteY)
      0005A1 F8 05            [12] 1463 	ldhl	sp,	#5
      0005A3 77               [ 8] 1464 	ld	(hl), a
      0005A4 FAr01r00         [16] 1465 	ld	a, (#_spriteX)
      0005A7 F8 06            [12] 1466 	ldhl	sp,	#6
      0005A9 77               [ 8] 1467 	ld	(hl), a
      0005AA 7E               [ 8] 1468 	ld	a, (hl)
      0005AB C6 10            [ 8] 1469 	add	a, #0x10
                                   1470 ;C:/Users/sva13/OneDrive/ドキュメント/会社/課題/gbdk/Resources/gbdk/include/gb/gb.h:1675: OAM_item_t * itm = &shadow_OAM[nb];
                                   1471 ;C:/Users/sva13/OneDrive/ドキュメント/会社/課題/gbdk/Resources/gbdk/include/gb/gb.h:1676: itm->y=y, itm->x=x;
      0005AD 32               [ 8] 1472 	ld	(hl-), a
      0005AE 01r00r00         [12] 1473 	ld	bc, #_shadow_OAM
      0005B1 2A               [ 8] 1474 	ld	a, (hl+)
      0005B2 02               [ 8] 1475 	ld	(bc), a
      0005B3 03               [ 8] 1476 	inc	bc
      0005B4 7E               [ 8] 1477 	ld	a, (hl)
      0005B5 02               [ 8] 1478 	ld	(bc), a
                                   1479 ;C:\Users\sva13\OneDrive\ドキュメント\会社\課題\gbdk\Project\gb-test\source\exec\HeroExec.c:264: move_sprite(1,spriteX+24,spriteY);
      0005B6 FAr02r00         [16] 1480 	ld	a, (#_spriteY)
      0005B9 F8 05            [12] 1481 	ldhl	sp,	#5
      0005BB 77               [ 8] 1482 	ld	(hl), a
      0005BC FAr01r00         [16] 1483 	ld	a, (#_spriteX)
      0005BF F8 06            [12] 1484 	ldhl	sp,	#6
      0005C1 77               [ 8] 1485 	ld	(hl), a
      0005C2 7E               [ 8] 1486 	ld	a, (hl)
      0005C3 C6 18            [ 8] 1487 	add	a, #0x18
                                   1488 ;C:/Users/sva13/OneDrive/ドキュメント/会社/課題/gbdk/Resources/gbdk/include/gb/gb.h:1675: OAM_item_t * itm = &shadow_OAM[nb];
                                   1489 ;C:/Users/sva13/OneDrive/ドキュメント/会社/課題/gbdk/Resources/gbdk/include/gb/gb.h:1676: itm->y=y, itm->x=x;
      0005C5 32               [ 8] 1490 	ld	(hl-), a
      0005C6 01r04r00         [12] 1491 	ld	bc, #(_shadow_OAM + 4)
      0005C9 2A               [ 8] 1492 	ld	a, (hl+)
      0005CA 02               [ 8] 1493 	ld	(bc), a
      0005CB 03               [ 8] 1494 	inc	bc
      0005CC 7E               [ 8] 1495 	ld	a, (hl)
      0005CD 02               [ 8] 1496 	ld	(bc), a
                           0005CE  1497 	C$HeroExec.c$264$3_0$197	= .
                                   1498 	.globl	C$HeroExec.c$264$3_0$197
                                   1499 ;C:\Users\sva13\OneDrive\ドキュメント\会社\課題\gbdk\Project\gb-test\source\exec\HeroExec.c:264: move_sprite(1,spriteX+24,spriteY);
      0005CE C3rC9r06         [16] 1500 	jp	00230$
      0005D1                       1501 00223$:
                           0005D1  1502 	C$HeroExec.c$266$3_0$197	= .
                                   1503 	.globl	C$HeroExec.c$266$3_0$197
                                   1504 ;C:\Users\sva13\OneDrive\ドキュメント\会社\課題\gbdk\Project\gb-test\source\exec\HeroExec.c:266: else if(actionCnt == 11){
      0005D1 F8 02            [12] 1505 	ldhl	sp,	#2
      0005D3 7E               [ 8] 1506 	ld	a, (hl)
      0005D4 B7               [ 4] 1507 	or	a, a
      0005D5 28 13            [12] 1508 	jr	Z, 00220$
                                   1509 ;C:/Users/sva13/OneDrive/ドキュメント/会社/課題/gbdk/Resources/gbdk/include/gb/gb.h:1675: OAM_item_t * itm = &shadow_OAM[nb];
      0005D7 21r00r00         [12] 1510 	ld	hl, #_shadow_OAM
                                   1511 ;C:/Users/sva13/OneDrive/ドキュメント/会社/課題/gbdk/Resources/gbdk/include/gb/gb.h:1676: itm->y=y, itm->x=x;
      0005DA 3E FF            [ 8] 1512 	ld	a, #0xff
      0005DC 22               [ 8] 1513 	ld	(hl+), a
      0005DD 36 FF            [12] 1514 	ld	(hl), #0xff
                                   1515 ;C:/Users/sva13/OneDrive/ドキュメント/会社/課題/gbdk/Resources/gbdk/include/gb/gb.h:1675: OAM_item_t * itm = &shadow_OAM[nb];
      0005DF 21r04r00         [12] 1516 	ld	hl, #(_shadow_OAM + 4)
                                   1517 ;C:/Users/sva13/OneDrive/ドキュメント/会社/課題/gbdk/Resources/gbdk/include/gb/gb.h:1676: itm->y=y, itm->x=x;
      0005E2 3E FF            [ 8] 1518 	ld	a, #0xff
      0005E4 22               [ 8] 1519 	ld	(hl+), a
      0005E5 36 FF            [12] 1520 	ld	(hl), #0xff
                           0005E7  1521 	C$HeroExec.c$268$3_0$197	= .
                                   1522 	.globl	C$HeroExec.c$268$3_0$197
                                   1523 ;C:\Users\sva13\OneDrive\ドキュメント\会社\課題\gbdk\Project\gb-test\source\exec\HeroExec.c:268: move_sprite(1,255,255);
      0005E7 C3rC9r06         [16] 1524 	jp	00230$
      0005EA                       1525 00220$:
                           0005EA  1526 	C$HeroExec.c$270$3_0$197	= .
                                   1527 	.globl	C$HeroExec.c$270$3_0$197
                                   1528 ;C:\Users\sva13\OneDrive\ドキュメント\会社\課題\gbdk\Project\gb-test\source\exec\HeroExec.c:270: else if(actionCnt == 12){
      0005EA F8 03            [12] 1529 	ldhl	sp,	#3
      0005EC 7E               [ 8] 1530 	ld	a, (hl)
      0005ED B7               [ 4] 1531 	or	a, a
      0005EE 28 51            [12] 1532 	jr	Z, 00217$
                           0005F0  1533 	C$HeroExec.c$271$4_0$202	= .
                                   1534 	.globl	C$HeroExec.c$271$4_0$202
                                   1535 ;C:\Users\sva13\OneDrive\ドキュメント\会社\課題\gbdk\Project\gb-test\source\exec\HeroExec.c:271: set_sprite_data(0,4,SwordRightUpTile);
      0005F0 11r00r00         [12] 1536 	ld	de, #_SwordRightUpTile
      0005F3 D5               [16] 1537 	push	de
      0005F4 21 00 04         [12] 1538 	ld	hl, #0x400
      0005F7 E5               [16] 1539 	push	hl
      0005F8 CDr00r00         [24] 1540 	call	_set_sprite_data
      0005FB E8 04            [16] 1541 	add	sp, #4
                           0005FD  1542 	C$HeroExec.c$272$4_0$202	= .
                                   1543 	.globl	C$HeroExec.c$272$4_0$202
                                   1544 ;C:\Users\sva13\OneDrive\ドキュメント\会社\課題\gbdk\Project\gb-test\source\exec\HeroExec.c:272: set_sprite_data(4,4,HeroUpAttack2Tile);
      0005FD 11r00r00         [12] 1545 	ld	de, #_HeroUpAttack2Tile
      000600 D5               [16] 1546 	push	de
      000601 21 04 04         [12] 1547 	ld	hl, #0x404
      000604 E5               [16] 1548 	push	hl
      000605 CDr00r00         [24] 1549 	call	_set_sprite_data
      000608 E8 04            [16] 1550 	add	sp, #4
                                   1551 ;C:\Users\sva13\OneDrive\ドキュメント\会社\課題\gbdk\Project\gb-test\source\exec\HeroExec.c:273: move_sprite(0,spriteX+16,spriteY-12);
      00060A FAr02r00         [16] 1552 	ld	a, (#_spriteY)
      00060D C6 F4            [ 8] 1553 	add	a, #0xf4
      00060F F8 05            [12] 1554 	ldhl	sp,	#5
      000611 77               [ 8] 1555 	ld	(hl), a
      000612 FAr01r00         [16] 1556 	ld	a, (#_spriteX)
      000615 F8 06            [12] 1557 	ldhl	sp,	#6
      000617 77               [ 8] 1558 	ld	(hl), a
      000618 7E               [ 8] 1559 	ld	a, (hl)
      000619 C6 10            [ 8] 1560 	add	a, #0x10
                                   1561 ;C:/Users/sva13/OneDrive/ドキュメント/会社/課題/gbdk/Resources/gbdk/include/gb/gb.h:1675: OAM_item_t * itm = &shadow_OAM[nb];
                                   1562 ;C:/Users/sva13/OneDrive/ドキュメント/会社/課題/gbdk/Resources/gbdk/include/gb/gb.h:1676: itm->y=y, itm->x=x;
      00061B 32               [ 8] 1563 	ld	(hl-), a
      00061C 01r00r00         [12] 1564 	ld	bc, #_shadow_OAM
      00061F 2A               [ 8] 1565 	ld	a, (hl+)
      000620 02               [ 8] 1566 	ld	(bc), a
      000621 03               [ 8] 1567 	inc	bc
      000622 7E               [ 8] 1568 	ld	a, (hl)
      000623 02               [ 8] 1569 	ld	(bc), a
                                   1570 ;C:\Users\sva13\OneDrive\ドキュメント\会社\課題\gbdk\Project\gb-test\source\exec\HeroExec.c:274: move_sprite(1,spriteX+24,spriteY-12);
      000624 FAr02r00         [16] 1571 	ld	a, (#_spriteY)
      000627 C6 F4            [ 8] 1572 	add	a, #0xf4
      000629 F8 05            [12] 1573 	ldhl	sp,	#5
      00062B 77               [ 8] 1574 	ld	(hl), a
      00062C FAr01r00         [16] 1575 	ld	a, (#_spriteX)
      00062F F8 06            [12] 1576 	ldhl	sp,	#6
      000631 77               [ 8] 1577 	ld	(hl), a
      000632 7E               [ 8] 1578 	ld	a, (hl)
      000633 C6 18            [ 8] 1579 	add	a, #0x18
                                   1580 ;C:/Users/sva13/OneDrive/ドキュメント/会社/課題/gbdk/Resources/gbdk/include/gb/gb.h:1675: OAM_item_t * itm = &shadow_OAM[nb];
                                   1581 ;C:/Users/sva13/OneDrive/ドキュメント/会社/課題/gbdk/Resources/gbdk/include/gb/gb.h:1676: itm->y=y, itm->x=x;
      000635 32               [ 8] 1582 	ld	(hl-), a
      000636 01r04r00         [12] 1583 	ld	bc, #(_shadow_OAM + 4)
      000639 2A               [ 8] 1584 	ld	a, (hl+)
      00063A 02               [ 8] 1585 	ld	(bc), a
      00063B 03               [ 8] 1586 	inc	bc
      00063C 7E               [ 8] 1587 	ld	a, (hl)
      00063D 02               [ 8] 1588 	ld	(bc), a
                           00063E  1589 	C$HeroExec.c$274$3_0$197	= .
                                   1590 	.globl	C$HeroExec.c$274$3_0$197
                                   1591 ;C:\Users\sva13\OneDrive\ドキュメント\会社\課題\gbdk\Project\gb-test\source\exec\HeroExec.c:274: move_sprite(1,spriteX+24,spriteY-12);
      00063E C3rC9r06         [16] 1592 	jp	00230$
      000641                       1593 00217$:
                           000641  1594 	C$HeroExec.c$276$3_0$197	= .
                                   1595 	.globl	C$HeroExec.c$276$3_0$197
                                   1596 ;C:\Users\sva13\OneDrive\ドキュメント\会社\課題\gbdk\Project\gb-test\source\exec\HeroExec.c:276: else if(actionCnt == 17){
      000641 F8 04            [12] 1597 	ldhl	sp,	#4
      000643 7E               [ 8] 1598 	ld	a, (hl)
      000644 B7               [ 4] 1599 	or	a, a
      000645 28 12            [12] 1600 	jr	Z, 00214$
                                   1601 ;C:/Users/sva13/OneDrive/ドキュメント/会社/課題/gbdk/Resources/gbdk/include/gb/gb.h:1675: OAM_item_t * itm = &shadow_OAM[nb];
      000647 21r00r00         [12] 1602 	ld	hl, #_shadow_OAM
                                   1603 ;C:/Users/sva13/OneDrive/ドキュメント/会社/課題/gbdk/Resources/gbdk/include/gb/gb.h:1676: itm->y=y, itm->x=x;
      00064A 3E FF            [ 8] 1604 	ld	a, #0xff
      00064C 22               [ 8] 1605 	ld	(hl+), a
      00064D 36 FF            [12] 1606 	ld	(hl), #0xff
                                   1607 ;C:/Users/sva13/OneDrive/ドキュメント/会社/課題/gbdk/Resources/gbdk/include/gb/gb.h:1675: OAM_item_t * itm = &shadow_OAM[nb];
      00064F 21r04r00         [12] 1608 	ld	hl, #(_shadow_OAM + 4)
                                   1609 ;C:/Users/sva13/OneDrive/ドキュメント/会社/課題/gbdk/Resources/gbdk/include/gb/gb.h:1676: itm->y=y, itm->x=x;
      000652 3E FF            [ 8] 1610 	ld	a, #0xff
      000654 22               [ 8] 1611 	ld	(hl+), a
      000655 36 FF            [12] 1612 	ld	(hl), #0xff
                           000657  1613 	C$HeroExec.c$278$3_0$197	= .
                                   1614 	.globl	C$HeroExec.c$278$3_0$197
                                   1615 ;C:\Users\sva13\OneDrive\ドキュメント\会社\課題\gbdk\Project\gb-test\source\exec\HeroExec.c:278: move_sprite(1,255,255);
      000657 18 70            [12] 1616 	jr	00230$
      000659                       1617 00214$:
                           000659  1618 	C$HeroExec.c$280$3_0$197	= .
                                   1619 	.globl	C$HeroExec.c$280$3_0$197
                                   1620 ;C:\Users\sva13\OneDrive\ドキュメント\会社\課題\gbdk\Project\gb-test\source\exec\HeroExec.c:280: else if(actionCnt == 18){
      000659 F8 05            [12] 1621 	ldhl	sp,	#5
      00065B 7E               [ 8] 1622 	ld	a, (hl)
      00065C B7               [ 4] 1623 	or	a, a
      00065D 28 42            [12] 1624 	jr	Z, 00211$
                           00065F  1625 	C$HeroExec.c$281$4_0$204	= .
                                   1626 	.globl	C$HeroExec.c$281$4_0$204
                                   1627 ;C:\Users\sva13\OneDrive\ドキュメント\会社\課題\gbdk\Project\gb-test\source\exec\HeroExec.c:281: set_sprite_data(0,4,SwordUpTile);
      00065F 11r00r00         [12] 1628 	ld	de, #_SwordUpTile
      000662 D5               [16] 1629 	push	de
      000663 21 00 04         [12] 1630 	ld	hl, #0x400
      000666 E5               [16] 1631 	push	hl
      000667 CDr00r00         [24] 1632 	call	_set_sprite_data
      00066A E8 04            [16] 1633 	add	sp, #4
                                   1634 ;C:\Users\sva13\OneDrive\ドキュメント\会社\課題\gbdk\Project\gb-test\source\exec\HeroExec.c:282: move_sprite(0,spriteX+2,spriteY-16);
      00066C FAr02r00         [16] 1635 	ld	a, (#_spriteY)
      00066F C6 F0            [ 8] 1636 	add	a, #0xf0
      000671 F8 05            [12] 1637 	ldhl	sp,	#5
      000673 77               [ 8] 1638 	ld	(hl), a
      000674 FAr01r00         [16] 1639 	ld	a, (#_spriteX)
      000677 F8 06            [12] 1640 	ldhl	sp,	#6
      000679 77               [ 8] 1641 	ld	(hl), a
      00067A 34               [12] 1642 	inc	(hl)
      00067B 34               [12] 1643 	inc	(hl)
                                   1644 ;C:/Users/sva13/OneDrive/ドキュメント/会社/課題/gbdk/Resources/gbdk/include/gb/gb.h:1675: OAM_item_t * itm = &shadow_OAM[nb];
                                   1645 ;C:/Users/sva13/OneDrive/ドキュメント/会社/課題/gbdk/Resources/gbdk/include/gb/gb.h:1676: itm->y=y, itm->x=x;
      00067C 2B               [ 8] 1646 	dec	hl
      00067D 01r00r00         [12] 1647 	ld	bc, #_shadow_OAM
      000680 2A               [ 8] 1648 	ld	a, (hl+)
      000681 02               [ 8] 1649 	ld	(bc), a
      000682 03               [ 8] 1650 	inc	bc
      000683 7E               [ 8] 1651 	ld	a, (hl)
      000684 02               [ 8] 1652 	ld	(bc), a
                                   1653 ;C:\Users\sva13\OneDrive\ドキュメント\会社\課題\gbdk\Project\gb-test\source\exec\HeroExec.c:283: move_sprite(1,spriteX+10,spriteY-16);
      000685 FAr02r00         [16] 1654 	ld	a, (#_spriteY)
      000688 C6 F0            [ 8] 1655 	add	a, #0xf0
      00068A F8 05            [12] 1656 	ldhl	sp,	#5
      00068C 77               [ 8] 1657 	ld	(hl), a
      00068D FAr01r00         [16] 1658 	ld	a, (#_spriteX)
      000690 F8 06            [12] 1659 	ldhl	sp,	#6
      000692 77               [ 8] 1660 	ld	(hl), a
      000693 7E               [ 8] 1661 	ld	a, (hl)
      000694 C6 0A            [ 8] 1662 	add	a, #0x0a
                                   1663 ;C:/Users/sva13/OneDrive/ドキュメント/会社/課題/gbdk/Resources/gbdk/include/gb/gb.h:1675: OAM_item_t * itm = &shadow_OAM[nb];
                                   1664 ;C:/Users/sva13/OneDrive/ドキュメント/会社/課題/gbdk/Resources/gbdk/include/gb/gb.h:1676: itm->y=y, itm->x=x;
      000696 32               [ 8] 1665 	ld	(hl-), a
      000697 01r04r00         [12] 1666 	ld	bc, #(_shadow_OAM + 4)
      00069A 2A               [ 8] 1667 	ld	a, (hl+)
      00069B 02               [ 8] 1668 	ld	(bc), a
      00069C 03               [ 8] 1669 	inc	bc
      00069D 7E               [ 8] 1670 	ld	a, (hl)
      00069E 02               [ 8] 1671 	ld	(bc), a
                           00069F  1672 	C$HeroExec.c$283$3_0$197	= .
                                   1673 	.globl	C$HeroExec.c$283$3_0$197
                                   1674 ;C:\Users\sva13\OneDrive\ドキュメント\会社\課題\gbdk\Project\gb-test\source\exec\HeroExec.c:283: move_sprite(1,spriteX+10,spriteY-16);
      00069F 18 28            [12] 1675 	jr	00230$
      0006A1                       1676 00211$:
                           0006A1  1677 	C$HeroExec.c$285$3_0$197	= .
                                   1678 	.globl	C$HeroExec.c$285$3_0$197
                                   1679 ;C:\Users\sva13\OneDrive\ドキュメント\会社\課題\gbdk\Project\gb-test\source\exec\HeroExec.c:285: else if(actionCnt == 24){
      0006A1 F8 06            [12] 1680 	ldhl	sp,	#6
      0006A3 7E               [ 8] 1681 	ld	a, (hl)
      0006A4 B7               [ 4] 1682 	or	a, a
      0006A5 28 22            [12] 1683 	jr	Z, 00230$
                           0006A7  1684 	C$HeroExec.c$286$4_0$205	= .
                                   1685 	.globl	C$HeroExec.c$286$4_0$205
                                   1686 ;C:\Users\sva13\OneDrive\ドキュメント\会社\課題\gbdk\Project\gb-test\source\exec\HeroExec.c:286: set_sprite_data(4,4,HeroUpTile);
      0006A7 11r00r00         [12] 1687 	ld	de, #_HeroUpTile
      0006AA D5               [16] 1688 	push	de
      0006AB 21 04 04         [12] 1689 	ld	hl, #0x404
      0006AE E5               [16] 1690 	push	hl
      0006AF CDr00r00         [24] 1691 	call	_set_sprite_data
      0006B2 E8 04            [16] 1692 	add	sp, #4
                                   1693 ;C:/Users/sva13/OneDrive/ドキュメント/会社/課題/gbdk/Resources/gbdk/include/gb/gb.h:1675: OAM_item_t * itm = &shadow_OAM[nb];
      0006B4 21r00r00         [12] 1694 	ld	hl, #_shadow_OAM
                                   1695 ;C:/Users/sva13/OneDrive/ドキュメント/会社/課題/gbdk/Resources/gbdk/include/gb/gb.h:1676: itm->y=y, itm->x=x;
      0006B7 3E FF            [ 8] 1696 	ld	a, #0xff
      0006B9 22               [ 8] 1697 	ld	(hl+), a
      0006BA 36 FF            [12] 1698 	ld	(hl), #0xff
                                   1699 ;C:/Users/sva13/OneDrive/ドキュメント/会社/課題/gbdk/Resources/gbdk/include/gb/gb.h:1675: OAM_item_t * itm = &shadow_OAM[nb];
      0006BC 21r04r00         [12] 1700 	ld	hl, #(_shadow_OAM + 4)
                                   1701 ;C:/Users/sva13/OneDrive/ドキュメント/会社/課題/gbdk/Resources/gbdk/include/gb/gb.h:1676: itm->y=y, itm->x=x;
      0006BF 3E FF            [ 8] 1702 	ld	a, #0xff
      0006C1 22               [ 8] 1703 	ld	(hl+), a
      0006C2 36 FF            [12] 1704 	ld	(hl), #0xff
                           0006C4  1705 	C$HeroExec.c$289$4_0$205	= .
                                   1706 	.globl	C$HeroExec.c$289$4_0$205
                                   1707 ;C:\Users\sva13\OneDrive\ドキュメント\会社\課題\gbdk\Project\gb-test\source\exec\HeroExec.c:289: swordAction = NOACTION;
      0006C4 21r0Cr00         [12] 1708 	ld	hl, #_swordAction
      0006C7 36 00            [12] 1709 	ld	(hl), #0x00
      0006C9                       1710 00230$:
                           0006C9  1711 	C$HeroExec.c$126$1_0$146	= .
                                   1712 	.globl	C$HeroExec.c$126$1_0$146
                                   1713 ;C:\Users\sva13\OneDrive\ドキュメント\会社\課題\gbdk\Project\gb-test\source\exec\HeroExec.c:126: spriteX += 4;
      0006C9 FAr01r00         [16] 1714 	ld	a, (#_spriteX)
      0006CC F8 04            [12] 1715 	ldhl	sp,	#4
      0006CE 77               [ 8] 1716 	ld	(hl), a
                           0006CF  1717 	C$HeroExec.c$194$1_0$146	= .
                                   1718 	.globl	C$HeroExec.c$194$1_0$146
                                   1719 ;C:\Users\sva13\OneDrive\ドキュメント\会社\課題\gbdk\Project\gb-test\source\exec\HeroExec.c:194: spriteY -= 4;
      0006CF FAr02r00         [16] 1720 	ld	a, (#_spriteY)
      0006D2 F8 06            [12] 1721 	ldhl	sp,	#6
      0006D4 77               [ 8] 1722 	ld	(hl), a
                           0006D5  1723 	C$HeroExec.c$291$1_0$146	= .
                                   1724 	.globl	C$HeroExec.c$291$1_0$146
                                   1725 ;C:\Users\sva13\OneDrive\ドキュメント\会社\課題\gbdk\Project\gb-test\source\exec\HeroExec.c:291: if(actionCnt >= 6 && actionCnt < 12){
      0006D5 FAr07r00         [16] 1726 	ld	a, (#_actionCnt)
      0006D8 D6 0C            [ 8] 1727 	sub	a, #0x0c
      0006DA 3E 00            [ 8] 1728 	ld	a, #0x00
      0006DC 17               [ 4] 1729 	rla
      0006DD F8 03            [12] 1730 	ldhl	sp,	#3
                           0006DF  1731 	C$HeroExec.c$292$1_0$146	= .
                                   1732 	.globl	C$HeroExec.c$292$1_0$146
                                   1733 ;C:\Users\sva13\OneDrive\ドキュメント\会社\課題\gbdk\Project\gb-test\source\exec\HeroExec.c:292: HitCheck(spriteX+16,spriteY,spriteX+32,spriteY+16);
      0006DF 22               [ 8] 1734 	ld	(hl+), a
      0006E0 2A               [ 8] 1735 	ld	a, (hl+)
      0006E1 C6 20            [ 8] 1736 	add	a, #0x20
      0006E3 77               [ 8] 1737 	ld	(hl), a
                           0006E4  1738 	C$HeroExec.c$291$3_0$197	= .
                                   1739 	.globl	C$HeroExec.c$291$3_0$197
                                   1740 ;C:\Users\sva13\OneDrive\ドキュメント\会社\課題\gbdk\Project\gb-test\source\exec\HeroExec.c:291: if(actionCnt >= 6 && actionCnt < 12){
      0006E4 FAr07r00         [16] 1741 	ld	a, (#_actionCnt)
      0006E7 D6 06            [ 8] 1742 	sub	a, #0x06
      0006E9 38 21            [12] 1743 	jr	C, 00234$
      0006EB F8 03            [12] 1744 	ldhl	sp,	#3
      0006ED 7E               [ 8] 1745 	ld	a, (hl)
      0006EE B7               [ 4] 1746 	or	a, a
      0006EF 28 1B            [12] 1747 	jr	Z, 00234$
                           0006F1  1748 	C$HeroExec.c$292$4_0$206	= .
                                   1749 	.globl	C$HeroExec.c$292$4_0$206
                                   1750 ;C:\Users\sva13\OneDrive\ドキュメント\会社\課題\gbdk\Project\gb-test\source\exec\HeroExec.c:292: HitCheck(spriteX+16,spriteY,spriteX+32,spriteY+16);
      0006F1 F8 06            [12] 1751 	ldhl	sp,	#6
      0006F3 7E               [ 8] 1752 	ld	a, (hl)
      0006F4 C6 10            [ 8] 1753 	add	a, #0x10
      0006F6 32               [ 8] 1754 	ld	(hl-), a
      0006F7 2B               [ 8] 1755 	dec	hl
      0006F8 2A               [ 8] 1756 	ld	a, (hl+)
      0006F9 23               [ 8] 1757 	inc	hl
      0006FA C6 10            [ 8] 1758 	add	a, #0x10
      0006FC 4F               [ 4] 1759 	ld	c, a
      0006FD 3A               [ 8] 1760 	ld	a, (hl-)
      0006FE 57               [ 4] 1761 	ld	d, a
      0006FF 5E               [ 8] 1762 	ld	e, (hl)
      000700 D5               [16] 1763 	push	de
      000701 21r02r00         [12] 1764 	ld	hl, #_spriteY
      000704 5E               [ 8] 1765 	ld	e, (hl)
      000705 79               [ 4] 1766 	ld	a, c
      000706 CDr00r00         [24] 1767 	call	_HitCheck
      000709 C3r8Cr0C         [16] 1768 	jp	00326$
      00070C                       1769 00234$:
                           00070C  1770 	C$HeroExec.c$294$3_0$197	= .
                                   1771 	.globl	C$HeroExec.c$294$3_0$197
                                   1772 ;C:\Users\sva13\OneDrive\ドキュメント\会社\課題\gbdk\Project\gb-test\source\exec\HeroExec.c:294: else if(actionCnt >= 12){
      00070C F8 03            [12] 1773 	ldhl	sp,	#3
      00070E CB 46            [12] 1774 	bit	0, (hl)
      000710 C2r8Cr0C         [16] 1775 	jp	NZ, 00326$
                           000713  1776 	C$HeroExec.c$295$4_0$207	= .
                                   1777 	.globl	C$HeroExec.c$295$4_0$207
                                   1778 ;C:\Users\sva13\OneDrive\ドキュメント\会社\課題\gbdk\Project\gb-test\source\exec\HeroExec.c:295: HitCheck(spriteX,spriteY-16,spriteX+32,spriteY);
      000713 F8 06            [12] 1779 	ldhl	sp,	#6
      000715 7E               [ 8] 1780 	ld	a, (hl)
      000716 C6 F0            [ 8] 1781 	add	a, #0xf0
      000718 5F               [ 4] 1782 	ld	e, a
      000719 FAr02r00         [16] 1783 	ld	a, (#_spriteY)
      00071C F5               [16] 1784 	push	af
      00071D 33               [ 8] 1785 	inc	sp
      00071E F8 06            [12] 1786 	ldhl	sp,	#6
      000720 7E               [ 8] 1787 	ld	a, (hl)
      000721 F5               [16] 1788 	push	af
      000722 33               [ 8] 1789 	inc	sp
      000723 FAr01r00         [16] 1790 	ld	a, (#_spriteX)
      000726 CDr00r00         [24] 1791 	call	_HitCheck
      000729 C3r8Cr0C         [16] 1792 	jp	00326$
      00072C                       1793 00325$:
                           00072C  1794 	C$HeroExec.c$298$2_0$196	= .
                                   1795 	.globl	C$HeroExec.c$298$2_0$196
                                   1796 ;C:\Users\sva13\OneDrive\ドキュメント\会社\課題\gbdk\Project\gb-test\source\exec\HeroExec.c:298: else if(direction == RIGHT){
      00072C FAr0Br00         [16] 1797 	ld	a, (#_direction)
      00072F 3D               [ 4] 1798 	dec	a
      000730 C2r15r09         [16] 1799 	jp	NZ,00322$
                           000733  1800 	C$HeroExec.c$299$3_0$208	= .
                                   1801 	.globl	C$HeroExec.c$299$3_0$208
                                   1802 ;C:\Users\sva13\OneDrive\ドキュメント\会社\課題\gbdk\Project\gb-test\source\exec\HeroExec.c:299: if(actionCnt == 0){
      000733 FAr07r00         [16] 1803 	ld	a, (#_actionCnt)
      000736 B7               [ 4] 1804 	or	a, a
      000737 20 51            [12] 1805 	jr	NZ, 00258$
                           000739  1806 	C$HeroExec.c$300$4_0$209	= .
                                   1807 	.globl	C$HeroExec.c$300$4_0$209
                                   1808 ;C:\Users\sva13\OneDrive\ドキュメント\会社\課題\gbdk\Project\gb-test\source\exec\HeroExec.c:300: set_sprite_data(0,4,SwordLeftUpTile);
      000739 11r00r00         [12] 1809 	ld	de, #_SwordLeftUpTile
      00073C D5               [16] 1810 	push	de
      00073D 21 00 04         [12] 1811 	ld	hl, #0x400
      000740 E5               [16] 1812 	push	hl
      000741 CDr00r00         [24] 1813 	call	_set_sprite_data
      000744 E8 04            [16] 1814 	add	sp, #4
                           000746  1815 	C$HeroExec.c$301$4_0$209	= .
                                   1816 	.globl	C$HeroExec.c$301$4_0$209
                                   1817 ;C:\Users\sva13\OneDrive\ドキュメント\会社\課題\gbdk\Project\gb-test\source\exec\HeroExec.c:301: set_sprite_data(4,4,HeroRightAttack1Tile);
      000746 11r00r00         [12] 1818 	ld	de, #_HeroRightAttack1Tile
      000749 D5               [16] 1819 	push	de
      00074A 21 04 04         [12] 1820 	ld	hl, #0x404
      00074D E5               [16] 1821 	push	hl
      00074E CDr00r00         [24] 1822 	call	_set_sprite_data
      000751 E8 04            [16] 1823 	add	sp, #4
                                   1824 ;C:\Users\sva13\OneDrive\ドキュメント\会社\課題\gbdk\Project\gb-test\source\exec\HeroExec.c:302: move_sprite(0,spriteX-14,spriteY-10);
      000753 FAr02r00         [16] 1825 	ld	a, (#_spriteY)
      000756 C6 F6            [ 8] 1826 	add	a, #0xf6
      000758 F8 05            [12] 1827 	ldhl	sp,	#5
      00075A 77               [ 8] 1828 	ld	(hl), a
      00075B FAr01r00         [16] 1829 	ld	a, (#_spriteX)
      00075E F8 06            [12] 1830 	ldhl	sp,	#6
      000760 77               [ 8] 1831 	ld	(hl), a
      000761 7E               [ 8] 1832 	ld	a, (hl)
      000762 C6 F2            [ 8] 1833 	add	a, #0xf2
                                   1834 ;C:/Users/sva13/OneDrive/ドキュメント/会社/課題/gbdk/Resources/gbdk/include/gb/gb.h:1675: OAM_item_t * itm = &shadow_OAM[nb];
                                   1835 ;C:/Users/sva13/OneDrive/ドキュメント/会社/課題/gbdk/Resources/gbdk/include/gb/gb.h:1676: itm->y=y, itm->x=x;
      000764 32               [ 8] 1836 	ld	(hl-), a
      000765 01r00r00         [12] 1837 	ld	bc, #_shadow_OAM
      000768 2A               [ 8] 1838 	ld	a, (hl+)
      000769 02               [ 8] 1839 	ld	(bc), a
      00076A 03               [ 8] 1840 	inc	bc
      00076B 7E               [ 8] 1841 	ld	a, (hl)
      00076C 02               [ 8] 1842 	ld	(bc), a
                                   1843 ;C:\Users\sva13\OneDrive\ドキュメント\会社\課題\gbdk\Project\gb-test\source\exec\HeroExec.c:303: move_sprite(1,spriteX-6,spriteY-10);
      00076D FAr02r00         [16] 1844 	ld	a, (#_spriteY)
      000770 C6 F6            [ 8] 1845 	add	a, #0xf6
      000772 F8 05            [12] 1846 	ldhl	sp,	#5
      000774 77               [ 8] 1847 	ld	(hl), a
      000775 FAr01r00         [16] 1848 	ld	a, (#_spriteX)
      000778 F8 06            [12] 1849 	ldhl	sp,	#6
      00077A 77               [ 8] 1850 	ld	(hl), a
      00077B 7E               [ 8] 1851 	ld	a, (hl)
      00077C C6 FA            [ 8] 1852 	add	a, #0xfa
                                   1853 ;C:/Users/sva13/OneDrive/ドキュメント/会社/課題/gbdk/Resources/gbdk/include/gb/gb.h:1675: OAM_item_t * itm = &shadow_OAM[nb];
                                   1854 ;C:/Users/sva13/OneDrive/ドキュメント/会社/課題/gbdk/Resources/gbdk/include/gb/gb.h:1676: itm->y=y, itm->x=x;
      00077E 32               [ 8] 1855 	ld	(hl-), a
      00077F 01r04r00         [12] 1856 	ld	bc, #(_shadow_OAM + 4)
      000782 2A               [ 8] 1857 	ld	a, (hl+)
      000783 02               [ 8] 1858 	ld	(bc), a
      000784 03               [ 8] 1859 	inc	bc
      000785 7E               [ 8] 1860 	ld	a, (hl)
      000786 02               [ 8] 1861 	ld	(bc), a
                           000787  1862 	C$HeroExec.c$303$3_0$208	= .
                                   1863 	.globl	C$HeroExec.c$303$3_0$208
                                   1864 ;C:\Users\sva13\OneDrive\ドキュメント\会社\課題\gbdk\Project\gb-test\source\exec\HeroExec.c:303: move_sprite(1,spriteX-6,spriteY-10);
      000787 C3rE9r08         [16] 1865 	jp	00259$
      00078A                       1866 00258$:
                           00078A  1867 	C$HeroExec.c$305$3_0$208	= .
                                   1868 	.globl	C$HeroExec.c$305$3_0$208
                                   1869 ;C:\Users\sva13\OneDrive\ドキュメント\会社\課題\gbdk\Project\gb-test\source\exec\HeroExec.c:305: else if(actionCnt == 5){
      00078A F8 00            [12] 1870 	ldhl	sp,	#0
      00078C 7E               [ 8] 1871 	ld	a, (hl)
      00078D B7               [ 4] 1872 	or	a, a
      00078E 28 13            [12] 1873 	jr	Z, 00255$
                                   1874 ;C:/Users/sva13/OneDrive/ドキュメント/会社/課題/gbdk/Resources/gbdk/include/gb/gb.h:1675: OAM_item_t * itm = &shadow_OAM[nb];
      000790 21r00r00         [12] 1875 	ld	hl, #_shadow_OAM
                                   1876 ;C:/Users/sva13/OneDrive/ドキュメント/会社/課題/gbdk/Resources/gbdk/include/gb/gb.h:1676: itm->y=y, itm->x=x;
      000793 3E FF            [ 8] 1877 	ld	a, #0xff
      000795 22               [ 8] 1878 	ld	(hl+), a
      000796 36 FF            [12] 1879 	ld	(hl), #0xff
                                   1880 ;C:/Users/sva13/OneDrive/ドキュメント/会社/課題/gbdk/Resources/gbdk/include/gb/gb.h:1675: OAM_item_t * itm = &shadow_OAM[nb];
      000798 21r04r00         [12] 1881 	ld	hl, #(_shadow_OAM + 4)
                                   1882 ;C:/Users/sva13/OneDrive/ドキュメント/会社/課題/gbdk/Resources/gbdk/include/gb/gb.h:1676: itm->y=y, itm->x=x;
      00079B 3E FF            [ 8] 1883 	ld	a, #0xff
      00079D 22               [ 8] 1884 	ld	(hl+), a
      00079E 36 FF            [12] 1885 	ld	(hl), #0xff
                           0007A0  1886 	C$HeroExec.c$307$3_0$208	= .
                                   1887 	.globl	C$HeroExec.c$307$3_0$208
                                   1888 ;C:\Users\sva13\OneDrive\ドキュメント\会社\課題\gbdk\Project\gb-test\source\exec\HeroExec.c:307: move_sprite(1,255,255);
      0007A0 C3rE9r08         [16] 1889 	jp	00259$
      0007A3                       1890 00255$:
                           0007A3  1891 	C$HeroExec.c$309$3_0$208	= .
                                   1892 	.globl	C$HeroExec.c$309$3_0$208
                                   1893 ;C:\Users\sva13\OneDrive\ドキュメント\会社\課題\gbdk\Project\gb-test\source\exec\HeroExec.c:309: else if(actionCnt == 6){
      0007A3 F8 01            [12] 1894 	ldhl	sp,	#1
      0007A5 7E               [ 8] 1895 	ld	a, (hl)
      0007A6 B7               [ 4] 1896 	or	a, a
      0007A7 28 47            [12] 1897 	jr	Z, 00252$
                           0007A9  1898 	C$HeroExec.c$310$4_0$211	= .
                                   1899 	.globl	C$HeroExec.c$310$4_0$211
                                   1900 ;C:\Users\sva13\OneDrive\ドキュメント\会社\課題\gbdk\Project\gb-test\source\exec\HeroExec.c:310: set_sprite_data(0,4,SwordUpTile);
      0007A9 11r00r00         [12] 1901 	ld	de, #_SwordUpTile
      0007AC D5               [16] 1902 	push	de
      0007AD 21 00 04         [12] 1903 	ld	hl, #0x400
      0007B0 E5               [16] 1904 	push	hl
      0007B1 CDr00r00         [24] 1905 	call	_set_sprite_data
      0007B4 E8 04            [16] 1906 	add	sp, #4
                                   1907 ;C:\Users\sva13\OneDrive\ドキュメント\会社\課題\gbdk\Project\gb-test\source\exec\HeroExec.c:311: move_sprite(0,spriteX-4,spriteY-10);
      0007B6 FAr02r00         [16] 1908 	ld	a, (#_spriteY)
      0007B9 C6 F6            [ 8] 1909 	add	a, #0xf6
      0007BB F8 05            [12] 1910 	ldhl	sp,	#5
      0007BD 77               [ 8] 1911 	ld	(hl), a
      0007BE FAr01r00         [16] 1912 	ld	a, (#_spriteX)
      0007C1 F8 06            [12] 1913 	ldhl	sp,	#6
      0007C3 77               [ 8] 1914 	ld	(hl), a
      0007C4 7E               [ 8] 1915 	ld	a, (hl)
      0007C5 C6 FC            [ 8] 1916 	add	a, #0xfc
                                   1917 ;C:/Users/sva13/OneDrive/ドキュメント/会社/課題/gbdk/Resources/gbdk/include/gb/gb.h:1675: OAM_item_t * itm = &shadow_OAM[nb];
                                   1918 ;C:/Users/sva13/OneDrive/ドキュメント/会社/課題/gbdk/Resources/gbdk/include/gb/gb.h:1676: itm->y=y, itm->x=x;
      0007C7 32               [ 8] 1919 	ld	(hl-), a
      0007C8 01r00r00         [12] 1920 	ld	bc, #_shadow_OAM
      0007CB 2A               [ 8] 1921 	ld	a, (hl+)
      0007CC 02               [ 8] 1922 	ld	(bc), a
      0007CD 03               [ 8] 1923 	inc	bc
      0007CE 7E               [ 8] 1924 	ld	a, (hl)
      0007CF 02               [ 8] 1925 	ld	(bc), a
                                   1926 ;C:\Users\sva13\OneDrive\ドキュメント\会社\課題\gbdk\Project\gb-test\source\exec\HeroExec.c:312: move_sprite(1,spriteX+4,spriteY-10);
      0007D0 FAr02r00         [16] 1927 	ld	a, (#_spriteY)
      0007D3 C6 F6            [ 8] 1928 	add	a, #0xf6
      0007D5 F8 05            [12] 1929 	ldhl	sp,	#5
      0007D7 77               [ 8] 1930 	ld	(hl), a
      0007D8 FAr01r00         [16] 1931 	ld	a, (#_spriteX)
      0007DB F8 06            [12] 1932 	ldhl	sp,	#6
      0007DD 77               [ 8] 1933 	ld	(hl), a
      0007DE 34               [12] 1934 	inc	(hl)
      0007DF 34               [12] 1935 	inc	(hl)
      0007E0 34               [12] 1936 	inc	(hl)
      0007E1 34               [12] 1937 	inc	(hl)
                                   1938 ;C:/Users/sva13/OneDrive/ドキュメント/会社/課題/gbdk/Resources/gbdk/include/gb/gb.h:1675: OAM_item_t * itm = &shadow_OAM[nb];
                                   1939 ;C:/Users/sva13/OneDrive/ドキュメント/会社/課題/gbdk/Resources/gbdk/include/gb/gb.h:1676: itm->y=y, itm->x=x;
      0007E2 2B               [ 8] 1940 	dec	hl
      0007E3 11r04r00         [12] 1941 	ld	de, #(_shadow_OAM + 4)
      0007E6 2A               [ 8] 1942 	ld	a, (hl+)
      0007E7 12               [ 8] 1943 	ld	(de), a
      0007E8 11r05r00         [12] 1944 	ld	de, #(_shadow_OAM + 5)
      0007EB 7E               [ 8] 1945 	ld	a, (hl)
      0007EC 12               [ 8] 1946 	ld	(de), a
                           0007ED  1947 	C$HeroExec.c$312$3_0$208	= .
                                   1948 	.globl	C$HeroExec.c$312$3_0$208
                                   1949 ;C:\Users\sva13\OneDrive\ドキュメント\会社\課題\gbdk\Project\gb-test\source\exec\HeroExec.c:312: move_sprite(1,spriteX+4,spriteY-10);
      0007ED C3rE9r08         [16] 1950 	jp	00259$
      0007F0                       1951 00252$:
                           0007F0  1952 	C$HeroExec.c$314$3_0$208	= .
                                   1953 	.globl	C$HeroExec.c$314$3_0$208
                                   1954 ;C:\Users\sva13\OneDrive\ドキュメント\会社\課題\gbdk\Project\gb-test\source\exec\HeroExec.c:314: else if(actionCnt == 11){
      0007F0 F8 02            [12] 1955 	ldhl	sp,	#2
      0007F2 7E               [ 8] 1956 	ld	a, (hl)
      0007F3 B7               [ 4] 1957 	or	a, a
      0007F4 28 13            [12] 1958 	jr	Z, 00249$
                                   1959 ;C:/Users/sva13/OneDrive/ドキュメント/会社/課題/gbdk/Resources/gbdk/include/gb/gb.h:1675: OAM_item_t * itm = &shadow_OAM[nb];
      0007F6 21r00r00         [12] 1960 	ld	hl, #_shadow_OAM
                                   1961 ;C:/Users/sva13/OneDrive/ドキュメント/会社/課題/gbdk/Resources/gbdk/include/gb/gb.h:1676: itm->y=y, itm->x=x;
      0007F9 3E FF            [ 8] 1962 	ld	a, #0xff
      0007FB 22               [ 8] 1963 	ld	(hl+), a
      0007FC 36 FF            [12] 1964 	ld	(hl), #0xff
                                   1965 ;C:/Users/sva13/OneDrive/ドキュメント/会社/課題/gbdk/Resources/gbdk/include/gb/gb.h:1675: OAM_item_t * itm = &shadow_OAM[nb];
      0007FE 21r04r00         [12] 1966 	ld	hl, #(_shadow_OAM + 4)
                                   1967 ;C:/Users/sva13/OneDrive/ドキュメント/会社/課題/gbdk/Resources/gbdk/include/gb/gb.h:1676: itm->y=y, itm->x=x;
      000801 3E FF            [ 8] 1968 	ld	a, #0xff
      000803 22               [ 8] 1969 	ld	(hl+), a
      000804 36 FF            [12] 1970 	ld	(hl), #0xff
                           000806  1971 	C$HeroExec.c$316$3_0$208	= .
                                   1972 	.globl	C$HeroExec.c$316$3_0$208
                                   1973 ;C:\Users\sva13\OneDrive\ドキュメント\会社\課題\gbdk\Project\gb-test\source\exec\HeroExec.c:316: move_sprite(1,255,255);
      000806 C3rE9r08         [16] 1974 	jp	00259$
      000809                       1975 00249$:
                           000809  1976 	C$HeroExec.c$318$3_0$208	= .
                                   1977 	.globl	C$HeroExec.c$318$3_0$208
                                   1978 ;C:\Users\sva13\OneDrive\ドキュメント\会社\課題\gbdk\Project\gb-test\source\exec\HeroExec.c:318: else if(actionCnt == 12){
      000809 F8 03            [12] 1979 	ldhl	sp,	#3
      00080B 7E               [ 8] 1980 	ld	a, (hl)
      00080C B7               [ 4] 1981 	or	a, a
      00080D 28 51            [12] 1982 	jr	Z, 00246$
                           00080F  1983 	C$HeroExec.c$319$4_0$213	= .
                                   1984 	.globl	C$HeroExec.c$319$4_0$213
                                   1985 ;C:\Users\sva13\OneDrive\ドキュメント\会社\課題\gbdk\Project\gb-test\source\exec\HeroExec.c:319: set_sprite_data(0,4,SwordRightUpTile);
      00080F 11r00r00         [12] 1986 	ld	de, #_SwordRightUpTile
      000812 D5               [16] 1987 	push	de
      000813 21 00 04         [12] 1988 	ld	hl, #0x400
      000816 E5               [16] 1989 	push	hl
      000817 CDr00r00         [24] 1990 	call	_set_sprite_data
      00081A E8 04            [16] 1991 	add	sp, #4
                           00081C  1992 	C$HeroExec.c$320$4_0$213	= .
                                   1993 	.globl	C$HeroExec.c$320$4_0$213
                                   1994 ;C:\Users\sva13\OneDrive\ドキュメント\会社\課題\gbdk\Project\gb-test\source\exec\HeroExec.c:320: set_sprite_data(4,4,HeroRightAttack2Tile);
      00081C 11r00r00         [12] 1995 	ld	de, #_HeroRightAttack2Tile
      00081F D5               [16] 1996 	push	de
      000820 21 04 04         [12] 1997 	ld	hl, #0x404
      000823 E5               [16] 1998 	push	hl
      000824 CDr00r00         [24] 1999 	call	_set_sprite_data
      000827 E8 04            [16] 2000 	add	sp, #4
                                   2001 ;C:\Users\sva13\OneDrive\ドキュメント\会社\課題\gbdk\Project\gb-test\source\exec\HeroExec.c:321: move_sprite(0,spriteX+12,spriteY-4);
      000829 FAr02r00         [16] 2002 	ld	a, (#_spriteY)
      00082C C6 FC            [ 8] 2003 	add	a, #0xfc
      00082E F8 05            [12] 2004 	ldhl	sp,	#5
      000830 77               [ 8] 2005 	ld	(hl), a
      000831 FAr01r00         [16] 2006 	ld	a, (#_spriteX)
      000834 F8 06            [12] 2007 	ldhl	sp,	#6
      000836 77               [ 8] 2008 	ld	(hl), a
      000837 7E               [ 8] 2009 	ld	a, (hl)
      000838 C6 0C            [ 8] 2010 	add	a, #0x0c
                                   2011 ;C:/Users/sva13/OneDrive/ドキュメント/会社/課題/gbdk/Resources/gbdk/include/gb/gb.h:1675: OAM_item_t * itm = &shadow_OAM[nb];
                                   2012 ;C:/Users/sva13/OneDrive/ドキュメント/会社/課題/gbdk/Resources/gbdk/include/gb/gb.h:1676: itm->y=y, itm->x=x;
      00083A 32               [ 8] 2013 	ld	(hl-), a
      00083B 01r00r00         [12] 2014 	ld	bc, #_shadow_OAM
      00083E 2A               [ 8] 2015 	ld	a, (hl+)
      00083F 02               [ 8] 2016 	ld	(bc), a
      000840 03               [ 8] 2017 	inc	bc
      000841 7E               [ 8] 2018 	ld	a, (hl)
      000842 02               [ 8] 2019 	ld	(bc), a
                                   2020 ;C:\Users\sva13\OneDrive\ドキュメント\会社\課題\gbdk\Project\gb-test\source\exec\HeroExec.c:322: move_sprite(1,spriteX+20,spriteY-4);
      000843 FAr02r00         [16] 2021 	ld	a, (#_spriteY)
      000846 C6 FC            [ 8] 2022 	add	a, #0xfc
      000848 F8 05            [12] 2023 	ldhl	sp,	#5
      00084A 77               [ 8] 2024 	ld	(hl), a
      00084B FAr01r00         [16] 2025 	ld	a, (#_spriteX)
      00084E F8 06            [12] 2026 	ldhl	sp,	#6
      000850 77               [ 8] 2027 	ld	(hl), a
      000851 7E               [ 8] 2028 	ld	a, (hl)
      000852 C6 14            [ 8] 2029 	add	a, #0x14
                                   2030 ;C:/Users/sva13/OneDrive/ドキュメント/会社/課題/gbdk/Resources/gbdk/include/gb/gb.h:1675: OAM_item_t * itm = &shadow_OAM[nb];
                                   2031 ;C:/Users/sva13/OneDrive/ドキュメント/会社/課題/gbdk/Resources/gbdk/include/gb/gb.h:1676: itm->y=y, itm->x=x;
      000854 32               [ 8] 2032 	ld	(hl-), a
      000855 01r04r00         [12] 2033 	ld	bc, #(_shadow_OAM + 4)
      000858 2A               [ 8] 2034 	ld	a, (hl+)
      000859 02               [ 8] 2035 	ld	(bc), a
      00085A 03               [ 8] 2036 	inc	bc
      00085B 7E               [ 8] 2037 	ld	a, (hl)
      00085C 02               [ 8] 2038 	ld	(bc), a
                           00085D  2039 	C$HeroExec.c$322$3_0$208	= .
                                   2040 	.globl	C$HeroExec.c$322$3_0$208
                                   2041 ;C:\Users\sva13\OneDrive\ドキュメント\会社\課題\gbdk\Project\gb-test\source\exec\HeroExec.c:322: move_sprite(1,spriteX+20,spriteY-4);
      00085D C3rE9r08         [16] 2042 	jp	00259$
      000860                       2043 00246$:
                           000860  2044 	C$HeroExec.c$324$3_0$208	= .
                                   2045 	.globl	C$HeroExec.c$324$3_0$208
                                   2046 ;C:\Users\sva13\OneDrive\ドキュメント\会社\課題\gbdk\Project\gb-test\source\exec\HeroExec.c:324: else if(actionCnt == 17){
      000860 F8 04            [12] 2047 	ldhl	sp,	#4
      000862 7E               [ 8] 2048 	ld	a, (hl)
      000863 B7               [ 4] 2049 	or	a, a
      000864 28 12            [12] 2050 	jr	Z, 00243$
                                   2051 ;C:/Users/sva13/OneDrive/ドキュメント/会社/課題/gbdk/Resources/gbdk/include/gb/gb.h:1675: OAM_item_t * itm = &shadow_OAM[nb];
      000866 21r00r00         [12] 2052 	ld	hl, #_shadow_OAM
                                   2053 ;C:/Users/sva13/OneDrive/ドキュメント/会社/課題/gbdk/Resources/gbdk/include/gb/gb.h:1676: itm->y=y, itm->x=x;
      000869 3E FF            [ 8] 2054 	ld	a, #0xff
      00086B 22               [ 8] 2055 	ld	(hl+), a
      00086C 36 FF            [12] 2056 	ld	(hl), #0xff
                                   2057 ;C:/Users/sva13/OneDrive/ドキュメント/会社/課題/gbdk/Resources/gbdk/include/gb/gb.h:1675: OAM_item_t * itm = &shadow_OAM[nb];
      00086E 21r04r00         [12] 2058 	ld	hl, #(_shadow_OAM + 4)
                                   2059 ;C:/Users/sva13/OneDrive/ドキュメント/会社/課題/gbdk/Resources/gbdk/include/gb/gb.h:1676: itm->y=y, itm->x=x;
      000871 3E FF            [ 8] 2060 	ld	a, #0xff
      000873 22               [ 8] 2061 	ld	(hl+), a
      000874 36 FF            [12] 2062 	ld	(hl), #0xff
                           000876  2063 	C$HeroExec.c$326$3_0$208	= .
                                   2064 	.globl	C$HeroExec.c$326$3_0$208
                                   2065 ;C:\Users\sva13\OneDrive\ドキュメント\会社\課題\gbdk\Project\gb-test\source\exec\HeroExec.c:326: move_sprite(1,255,255);
      000876 18 71            [12] 2066 	jr	00259$
      000878                       2067 00243$:
                           000878  2068 	C$HeroExec.c$328$3_0$208	= .
                                   2069 	.globl	C$HeroExec.c$328$3_0$208
                                   2070 ;C:\Users\sva13\OneDrive\ドキュメント\会社\課題\gbdk\Project\gb-test\source\exec\HeroExec.c:328: else if(actionCnt == 18){
      000878 F8 05            [12] 2071 	ldhl	sp,	#5
      00087A 7E               [ 8] 2072 	ld	a, (hl)
      00087B B7               [ 4] 2073 	or	a, a
      00087C 28 43            [12] 2074 	jr	Z, 00240$
                           00087E  2075 	C$HeroExec.c$329$4_0$215	= .
                                   2076 	.globl	C$HeroExec.c$329$4_0$215
                                   2077 ;C:\Users\sva13\OneDrive\ドキュメント\会社\課題\gbdk\Project\gb-test\source\exec\HeroExec.c:329: set_sprite_data(0,4,SwordRightTile);
      00087E 11r00r00         [12] 2078 	ld	de, #_SwordRightTile
      000881 D5               [16] 2079 	push	de
      000882 21 00 04         [12] 2080 	ld	hl, #0x400
      000885 E5               [16] 2081 	push	hl
      000886 CDr00r00         [24] 2082 	call	_set_sprite_data
      000889 E8 04            [16] 2083 	add	sp, #4
                                   2084 ;C:\Users\sva13\OneDrive\ドキュメント\会社\課題\gbdk\Project\gb-test\source\exec\HeroExec.c:330: move_sprite(0,spriteX+12,spriteY+3);
      00088B FAr02r00         [16] 2085 	ld	a, (#_spriteY)
      00088E C6 03            [ 8] 2086 	add	a, #0x03
      000890 F8 05            [12] 2087 	ldhl	sp,	#5
      000892 77               [ 8] 2088 	ld	(hl), a
      000893 FAr01r00         [16] 2089 	ld	a, (#_spriteX)
      000896 F8 06            [12] 2090 	ldhl	sp,	#6
      000898 77               [ 8] 2091 	ld	(hl), a
      000899 7E               [ 8] 2092 	ld	a, (hl)
      00089A C6 0C            [ 8] 2093 	add	a, #0x0c
                                   2094 ;C:/Users/sva13/OneDrive/ドキュメント/会社/課題/gbdk/Resources/gbdk/include/gb/gb.h:1675: OAM_item_t * itm = &shadow_OAM[nb];
                                   2095 ;C:/Users/sva13/OneDrive/ドキュメント/会社/課題/gbdk/Resources/gbdk/include/gb/gb.h:1676: itm->y=y, itm->x=x;
      00089C 32               [ 8] 2096 	ld	(hl-), a
      00089D 01r00r00         [12] 2097 	ld	bc, #_shadow_OAM
      0008A0 2A               [ 8] 2098 	ld	a, (hl+)
      0008A1 02               [ 8] 2099 	ld	(bc), a
      0008A2 03               [ 8] 2100 	inc	bc
      0008A3 7E               [ 8] 2101 	ld	a, (hl)
      0008A4 02               [ 8] 2102 	ld	(bc), a
                                   2103 ;C:\Users\sva13\OneDrive\ドキュメント\会社\課題\gbdk\Project\gb-test\source\exec\HeroExec.c:331: move_sprite(1,spriteX+20,spriteY+3);
      0008A5 FAr02r00         [16] 2104 	ld	a, (#_spriteY)
      0008A8 C6 03            [ 8] 2105 	add	a, #0x03
      0008AA F8 05            [12] 2106 	ldhl	sp,	#5
      0008AC 77               [ 8] 2107 	ld	(hl), a
      0008AD FAr01r00         [16] 2108 	ld	a, (#_spriteX)
      0008B0 F8 06            [12] 2109 	ldhl	sp,	#6
      0008B2 77               [ 8] 2110 	ld	(hl), a
      0008B3 7E               [ 8] 2111 	ld	a, (hl)
      0008B4 C6 14            [ 8] 2112 	add	a, #0x14
                                   2113 ;C:/Users/sva13/OneDrive/ドキュメント/会社/課題/gbdk/Resources/gbdk/include/gb/gb.h:1675: OAM_item_t * itm = &shadow_OAM[nb];
                                   2114 ;C:/Users/sva13/OneDrive/ドキュメント/会社/課題/gbdk/Resources/gbdk/include/gb/gb.h:1676: itm->y=y, itm->x=x;
      0008B6 32               [ 8] 2115 	ld	(hl-), a
      0008B7 01r04r00         [12] 2116 	ld	bc, #(_shadow_OAM + 4)
      0008BA 2A               [ 8] 2117 	ld	a, (hl+)
      0008BB 02               [ 8] 2118 	ld	(bc), a
      0008BC 03               [ 8] 2119 	inc	bc
      0008BD 7E               [ 8] 2120 	ld	a, (hl)
      0008BE 02               [ 8] 2121 	ld	(bc), a
                           0008BF  2122 	C$HeroExec.c$331$3_0$208	= .
                                   2123 	.globl	C$HeroExec.c$331$3_0$208
                                   2124 ;C:\Users\sva13\OneDrive\ドキュメント\会社\課題\gbdk\Project\gb-test\source\exec\HeroExec.c:331: move_sprite(1,spriteX+20,spriteY+3);
      0008BF 18 28            [12] 2125 	jr	00259$
      0008C1                       2126 00240$:
                           0008C1  2127 	C$HeroExec.c$333$3_0$208	= .
                                   2128 	.globl	C$HeroExec.c$333$3_0$208
                                   2129 ;C:\Users\sva13\OneDrive\ドキュメント\会社\課題\gbdk\Project\gb-test\source\exec\HeroExec.c:333: else if(actionCnt == 24){
      0008C1 F8 06            [12] 2130 	ldhl	sp,	#6
      0008C3 7E               [ 8] 2131 	ld	a, (hl)
      0008C4 B7               [ 4] 2132 	or	a, a
      0008C5 28 22            [12] 2133 	jr	Z, 00259$
                           0008C7  2134 	C$HeroExec.c$334$4_0$216	= .
                                   2135 	.globl	C$HeroExec.c$334$4_0$216
                                   2136 ;C:\Users\sva13\OneDrive\ドキュメント\会社\課題\gbdk\Project\gb-test\source\exec\HeroExec.c:334: set_sprite_data(4,4,HeroRightTile);
      0008C7 11r00r00         [12] 2137 	ld	de, #_HeroRightTile
      0008CA D5               [16] 2138 	push	de
      0008CB 21 04 04         [12] 2139 	ld	hl, #0x404
      0008CE E5               [16] 2140 	push	hl
      0008CF CDr00r00         [24] 2141 	call	_set_sprite_data
      0008D2 E8 04            [16] 2142 	add	sp, #4
                                   2143 ;C:/Users/sva13/OneDrive/ドキュメント/会社/課題/gbdk/Resources/gbdk/include/gb/gb.h:1675: OAM_item_t * itm = &shadow_OAM[nb];
      0008D4 21r00r00         [12] 2144 	ld	hl, #_shadow_OAM
                                   2145 ;C:/Users/sva13/OneDrive/ドキュメント/会社/課題/gbdk/Resources/gbdk/include/gb/gb.h:1676: itm->y=y, itm->x=x;
      0008D7 3E FF            [ 8] 2146 	ld	a, #0xff
      0008D9 22               [ 8] 2147 	ld	(hl+), a
      0008DA 36 FF            [12] 2148 	ld	(hl), #0xff
                                   2149 ;C:/Users/sva13/OneDrive/ドキュメント/会社/課題/gbdk/Resources/gbdk/include/gb/gb.h:1675: OAM_item_t * itm = &shadow_OAM[nb];
      0008DC 21r04r00         [12] 2150 	ld	hl, #(_shadow_OAM + 4)
                                   2151 ;C:/Users/sva13/OneDrive/ドキュメント/会社/課題/gbdk/Resources/gbdk/include/gb/gb.h:1676: itm->y=y, itm->x=x;
      0008DF 3E FF            [ 8] 2152 	ld	a, #0xff
      0008E1 22               [ 8] 2153 	ld	(hl+), a
      0008E2 36 FF            [12] 2154 	ld	(hl), #0xff
                           0008E4  2155 	C$HeroExec.c$337$4_0$216	= .
                                   2156 	.globl	C$HeroExec.c$337$4_0$216
                                   2157 ;C:\Users\sva13\OneDrive\ドキュメント\会社\課題\gbdk\Project\gb-test\source\exec\HeroExec.c:337: swordAction = NOACTION;
      0008E4 21r0Cr00         [12] 2158 	ld	hl, #_swordAction
      0008E7 36 00            [12] 2159 	ld	(hl), #0x00
      0008E9                       2160 00259$:
                           0008E9  2161 	C$HeroExec.c$339$3_0$208	= .
                                   2162 	.globl	C$HeroExec.c$339$3_0$208
                                   2163 ;C:\Users\sva13\OneDrive\ドキュメント\会社\課題\gbdk\Project\gb-test\source\exec\HeroExec.c:339: if(actionCnt >= 12){
      0008E9 FAr07r00         [16] 2164 	ld	a, (#_actionCnt)
      0008EC D6 0C            [ 8] 2165 	sub	a, #0x0c
      0008EE DAr8Cr0C         [16] 2166 	jp	C, 00326$
                           0008F1  2167 	C$HeroExec.c$340$4_0$217	= .
                                   2168 	.globl	C$HeroExec.c$340$4_0$217
                                   2169 ;C:\Users\sva13\OneDrive\ドキュメント\会社\課題\gbdk\Project\gb-test\source\exec\HeroExec.c:340: HitCheck(spriteX+16,spriteY-8,spriteX+32,spriteY+24);
      0008F1 21r02r00         [12] 2170 	ld	hl, #_spriteY
      0008F4 5E               [ 8] 2171 	ld	e, (hl)
      0008F5 7B               [ 4] 2172 	ld	a, e
      0008F6 C6 18            [ 8] 2173 	add	a, #0x18
      0008F8 47               [ 4] 2174 	ld	b, a
      0008F9 21r01r00         [12] 2175 	ld	hl, #_spriteX
      0008FC 4E               [ 8] 2176 	ld	c, (hl)
      0008FD 79               [ 4] 2177 	ld	a, c
      0008FE C6 20            [ 8] 2178 	add	a, #0x20
      000900 6F               [ 4] 2179 	ld	l, a
                                   2180 ;	spillPairReg hl
                                   2181 ;	spillPairReg hl
      000901 7B               [ 4] 2182 	ld	a, e
      000902 C6 F8            [ 8] 2183 	add	a, #0xf8
      000904 5F               [ 4] 2184 	ld	e, a
      000905 79               [ 4] 2185 	ld	a, c
      000906 C6 10            [ 8] 2186 	add	a, #0x10
      000908 4F               [ 4] 2187 	ld	c, a
      000909 C5               [16] 2188 	push	bc
      00090A 7D               [ 4] 2189 	ld	a, l
      00090B 33               [ 8] 2190 	inc	sp
      00090C F5               [16] 2191 	push	af
      00090D 33               [ 8] 2192 	inc	sp
      00090E 79               [ 4] 2193 	ld	a, c
      00090F CDr00r00         [24] 2194 	call	_HitCheck
      000912 C3r8Cr0C         [16] 2195 	jp	00326$
      000915                       2196 00322$:
                           000915  2197 	C$HeroExec.c$343$2_0$196	= .
                                   2198 	.globl	C$HeroExec.c$343$2_0$196
                                   2199 ;C:\Users\sva13\OneDrive\ドキュメント\会社\課題\gbdk\Project\gb-test\source\exec\HeroExec.c:343: else if(direction == DOWN){
      000915 FAr0Br00         [16] 2200 	ld	a, (#_direction)
      000918 D6 02            [ 8] 2201 	sub	a, #0x02
      00091A C2rEFr0A         [16] 2202 	jp	NZ,00319$
                           00091D  2203 	C$HeroExec.c$344$3_0$218	= .
                                   2204 	.globl	C$HeroExec.c$344$3_0$218
                                   2205 ;C:\Users\sva13\OneDrive\ドキュメント\会社\課題\gbdk\Project\gb-test\source\exec\HeroExec.c:344: if(actionCnt == 0){
      00091D FAr07r00         [16] 2206 	ld	a, (#_actionCnt)
      000920 B7               [ 4] 2207 	or	a, a
      000921 20 51            [12] 2208 	jr	NZ, 00283$
                           000923  2209 	C$HeroExec.c$345$4_0$219	= .
                                   2210 	.globl	C$HeroExec.c$345$4_0$219
                                   2211 ;C:\Users\sva13\OneDrive\ドキュメント\会社\課題\gbdk\Project\gb-test\source\exec\HeroExec.c:345: set_sprite_data(0,4,SwordLeftUpTile);
      000923 11r00r00         [12] 2212 	ld	de, #_SwordLeftUpTile
      000926 D5               [16] 2213 	push	de
      000927 21 00 04         [12] 2214 	ld	hl, #0x400
      00092A E5               [16] 2215 	push	hl
      00092B CDr00r00         [24] 2216 	call	_set_sprite_data
      00092E E8 04            [16] 2217 	add	sp, #4
                           000930  2218 	C$HeroExec.c$346$4_0$219	= .
                                   2219 	.globl	C$HeroExec.c$346$4_0$219
                                   2220 ;C:\Users\sva13\OneDrive\ドキュメント\会社\課題\gbdk\Project\gb-test\source\exec\HeroExec.c:346: set_sprite_data(4,4,HeroDownAttack1Tile);
      000930 11r00r00         [12] 2221 	ld	de, #_HeroDownAttack1Tile
      000933 D5               [16] 2222 	push	de
      000934 21 04 04         [12] 2223 	ld	hl, #0x404
      000937 E5               [16] 2224 	push	hl
      000938 CDr00r00         [24] 2225 	call	_set_sprite_data
      00093B E8 04            [16] 2226 	add	sp, #4
                                   2227 ;C:\Users\sva13\OneDrive\ドキュメント\会社\課題\gbdk\Project\gb-test\source\exec\HeroExec.c:347: move_sprite(0,spriteX-16,spriteY-8);
      00093D FAr02r00         [16] 2228 	ld	a, (#_spriteY)
      000940 C6 F8            [ 8] 2229 	add	a, #0xf8
      000942 F8 05            [12] 2230 	ldhl	sp,	#5
      000944 77               [ 8] 2231 	ld	(hl), a
      000945 FAr01r00         [16] 2232 	ld	a, (#_spriteX)
      000948 F8 06            [12] 2233 	ldhl	sp,	#6
      00094A 77               [ 8] 2234 	ld	(hl), a
      00094B 7E               [ 8] 2235 	ld	a, (hl)
      00094C C6 F0            [ 8] 2236 	add	a, #0xf0
                                   2237 ;C:/Users/sva13/OneDrive/ドキュメント/会社/課題/gbdk/Resources/gbdk/include/gb/gb.h:1675: OAM_item_t * itm = &shadow_OAM[nb];
                                   2238 ;C:/Users/sva13/OneDrive/ドキュメント/会社/課題/gbdk/Resources/gbdk/include/gb/gb.h:1676: itm->y=y, itm->x=x;
      00094E 32               [ 8] 2239 	ld	(hl-), a
      00094F 01r00r00         [12] 2240 	ld	bc, #_shadow_OAM
      000952 2A               [ 8] 2241 	ld	a, (hl+)
      000953 02               [ 8] 2242 	ld	(bc), a
      000954 03               [ 8] 2243 	inc	bc
      000955 7E               [ 8] 2244 	ld	a, (hl)
      000956 02               [ 8] 2245 	ld	(bc), a
                                   2246 ;C:\Users\sva13\OneDrive\ドキュメント\会社\課題\gbdk\Project\gb-test\source\exec\HeroExec.c:348: move_sprite(1,spriteX-8,spriteY-8);
      000957 FAr02r00         [16] 2247 	ld	a, (#_spriteY)
      00095A C6 F8            [ 8] 2248 	add	a, #0xf8
      00095C F8 05            [12] 2249 	ldhl	sp,	#5
      00095E 77               [ 8] 2250 	ld	(hl), a
      00095F FAr01r00         [16] 2251 	ld	a, (#_spriteX)
      000962 F8 06            [12] 2252 	ldhl	sp,	#6
      000964 77               [ 8] 2253 	ld	(hl), a
      000965 7E               [ 8] 2254 	ld	a, (hl)
      000966 C6 F8            [ 8] 2255 	add	a, #0xf8
                                   2256 ;C:/Users/sva13/OneDrive/ドキュメント/会社/課題/gbdk/Resources/gbdk/include/gb/gb.h:1675: OAM_item_t * itm = &shadow_OAM[nb];
                                   2257 ;C:/Users/sva13/OneDrive/ドキュメント/会社/課題/gbdk/Resources/gbdk/include/gb/gb.h:1676: itm->y=y, itm->x=x;
      000968 32               [ 8] 2258 	ld	(hl-), a
      000969 01r04r00         [12] 2259 	ld	bc, #(_shadow_OAM + 4)
      00096C 2A               [ 8] 2260 	ld	a, (hl+)
      00096D 02               [ 8] 2261 	ld	(bc), a
      00096E 03               [ 8] 2262 	inc	bc
      00096F 7E               [ 8] 2263 	ld	a, (hl)
      000970 02               [ 8] 2264 	ld	(bc), a
                           000971  2265 	C$HeroExec.c$348$3_0$218	= .
                                   2266 	.globl	C$HeroExec.c$348$3_0$218
                                   2267 ;C:\Users\sva13\OneDrive\ドキュメント\会社\課題\gbdk\Project\gb-test\source\exec\HeroExec.c:348: move_sprite(1,spriteX-8,spriteY-8);
      000971 C3r9Br0A         [16] 2268 	jp	00284$
      000974                       2269 00283$:
                           000974  2270 	C$HeroExec.c$350$3_0$218	= .
                                   2271 	.globl	C$HeroExec.c$350$3_0$218
                                   2272 ;C:\Users\sva13\OneDrive\ドキュメント\会社\課題\gbdk\Project\gb-test\source\exec\HeroExec.c:350: else if(actionCnt == 5){
      000974 F8 00            [12] 2273 	ldhl	sp,	#0
      000976 7E               [ 8] 2274 	ld	a, (hl)
      000977 B7               [ 4] 2275 	or	a, a
      000978 28 13            [12] 2276 	jr	Z, 00280$
                                   2277 ;C:/Users/sva13/OneDrive/ドキュメント/会社/課題/gbdk/Resources/gbdk/include/gb/gb.h:1675: OAM_item_t * itm = &shadow_OAM[nb];
      00097A 21r00r00         [12] 2278 	ld	hl, #_shadow_OAM
                                   2279 ;C:/Users/sva13/OneDrive/ドキュメント/会社/課題/gbdk/Resources/gbdk/include/gb/gb.h:1676: itm->y=y, itm->x=x;
      00097D 3E FF            [ 8] 2280 	ld	a, #0xff
      00097F 22               [ 8] 2281 	ld	(hl+), a
      000980 36 FF            [12] 2282 	ld	(hl), #0xff
                                   2283 ;C:/Users/sva13/OneDrive/ドキュメント/会社/課題/gbdk/Resources/gbdk/include/gb/gb.h:1675: OAM_item_t * itm = &shadow_OAM[nb];
      000982 21r04r00         [12] 2284 	ld	hl, #(_shadow_OAM + 4)
                                   2285 ;C:/Users/sva13/OneDrive/ドキュメント/会社/課題/gbdk/Resources/gbdk/include/gb/gb.h:1676: itm->y=y, itm->x=x;
      000985 3E FF            [ 8] 2286 	ld	a, #0xff
      000987 22               [ 8] 2287 	ld	(hl+), a
      000988 36 FF            [12] 2288 	ld	(hl), #0xff
                           00098A  2289 	C$HeroExec.c$352$3_0$218	= .
                                   2290 	.globl	C$HeroExec.c$352$3_0$218
                                   2291 ;C:\Users\sva13\OneDrive\ドキュメント\会社\課題\gbdk\Project\gb-test\source\exec\HeroExec.c:352: move_sprite(1,255,255);
      00098A C3r9Br0A         [16] 2292 	jp	00284$
      00098D                       2293 00280$:
                           00098D  2294 	C$HeroExec.c$354$3_0$218	= .
                                   2295 	.globl	C$HeroExec.c$354$3_0$218
                                   2296 ;C:\Users\sva13\OneDrive\ドキュメント\会社\課題\gbdk\Project\gb-test\source\exec\HeroExec.c:354: else if(actionCnt == 6){
      00098D F8 01            [12] 2297 	ldhl	sp,	#1
      00098F 7E               [ 8] 2298 	ld	a, (hl)
      000990 B7               [ 4] 2299 	or	a, a
      000991 28 30            [12] 2300 	jr	Z, 00277$
                           000993  2301 	C$HeroExec.c$355$4_0$221	= .
                                   2302 	.globl	C$HeroExec.c$355$4_0$221
                                   2303 ;C:\Users\sva13\OneDrive\ドキュメント\会社\課題\gbdk\Project\gb-test\source\exec\HeroExec.c:355: set_sprite_data(0,4,SwordLeftTile);
      000993 11r00r00         [12] 2304 	ld	de, #_SwordLeftTile
      000996 D5               [16] 2305 	push	de
      000997 21 00 04         [12] 2306 	ld	hl, #0x400
      00099A E5               [16] 2307 	push	hl
      00099B CDr00r00         [24] 2308 	call	_set_sprite_data
      00099E E8 04            [16] 2309 	add	sp, #4
                                   2310 ;C:\Users\sva13\OneDrive\ドキュメント\会社\課題\gbdk\Project\gb-test\source\exec\HeroExec.c:356: move_sprite(0,spriteX-16,spriteY);
      0009A0 21r02r00         [12] 2311 	ld	hl, #_spriteY
      0009A3 46               [ 8] 2312 	ld	b, (hl)
      0009A4 FAr01r00         [16] 2313 	ld	a, (#_spriteX)
      0009A7 C6 F0            [ 8] 2314 	add	a, #0xf0
      0009A9 4F               [ 4] 2315 	ld	c, a
                                   2316 ;C:/Users/sva13/OneDrive/ドキュメント/会社/課題/gbdk/Resources/gbdk/include/gb/gb.h:1675: OAM_item_t * itm = &shadow_OAM[nb];
      0009AA 21r00r00         [12] 2317 	ld	hl, #_shadow_OAM
                                   2318 ;C:/Users/sva13/OneDrive/ドキュメント/会社/課題/gbdk/Resources/gbdk/include/gb/gb.h:1676: itm->y=y, itm->x=x;
      0009AD 78               [ 4] 2319 	ld	a, b
      0009AE 22               [ 8] 2320 	ld	(hl+), a
      0009AF 71               [ 8] 2321 	ld	(hl), c
                                   2322 ;C:\Users\sva13\OneDrive\ドキュメント\会社\課題\gbdk\Project\gb-test\source\exec\HeroExec.c:357: move_sprite(1,spriteX-8,spriteY);
      0009B0 21r02r00         [12] 2323 	ld	hl, #_spriteY
      0009B3 46               [ 8] 2324 	ld	b, (hl)
      0009B4 FAr01r00         [16] 2325 	ld	a, (#_spriteX)
      0009B7 C6 F8            [ 8] 2326 	add	a, #0xf8
      0009B9 4F               [ 4] 2327 	ld	c, a
                                   2328 ;C:/Users/sva13/OneDrive/ドキュメント/会社/課題/gbdk/Resources/gbdk/include/gb/gb.h:1675: OAM_item_t * itm = &shadow_OAM[nb];
      0009BA 21r04r00         [12] 2329 	ld	hl, #(_shadow_OAM + 4)
                                   2330 ;C:/Users/sva13/OneDrive/ドキュメント/会社/課題/gbdk/Resources/gbdk/include/gb/gb.h:1676: itm->y=y, itm->x=x;
      0009BD 78               [ 4] 2331 	ld	a, b
      0009BE 22               [ 8] 2332 	ld	(hl+), a
      0009BF 71               [ 8] 2333 	ld	(hl), c
                           0009C0  2334 	C$HeroExec.c$357$3_0$218	= .
                                   2335 	.globl	C$HeroExec.c$357$3_0$218
                                   2336 ;C:\Users\sva13\OneDrive\ドキュメント\会社\課題\gbdk\Project\gb-test\source\exec\HeroExec.c:357: move_sprite(1,spriteX-8,spriteY);
      0009C0 C3r9Br0A         [16] 2337 	jp	00284$
      0009C3                       2338 00277$:
                           0009C3  2339 	C$HeroExec.c$359$3_0$218	= .
                                   2340 	.globl	C$HeroExec.c$359$3_0$218
                                   2341 ;C:\Users\sva13\OneDrive\ドキュメント\会社\課題\gbdk\Project\gb-test\source\exec\HeroExec.c:359: else if(actionCnt == 11){
      0009C3 F8 02            [12] 2342 	ldhl	sp,	#2
      0009C5 7E               [ 8] 2343 	ld	a, (hl)
      0009C6 B7               [ 4] 2344 	or	a, a
      0009C7 28 13            [12] 2345 	jr	Z, 00274$
                                   2346 ;C:/Users/sva13/OneDrive/ドキュメント/会社/課題/gbdk/Resources/gbdk/include/gb/gb.h:1675: OAM_item_t * itm = &shadow_OAM[nb];
      0009C9 21r00r00         [12] 2347 	ld	hl, #_shadow_OAM
                                   2348 ;C:/Users/sva13/OneDrive/ドキュメント/会社/課題/gbdk/Resources/gbdk/include/gb/gb.h:1676: itm->y=y, itm->x=x;
      0009CC 3E FF            [ 8] 2349 	ld	a, #0xff
      0009CE 22               [ 8] 2350 	ld	(hl+), a
      0009CF 36 FF            [12] 2351 	ld	(hl), #0xff
                                   2352 ;C:/Users/sva13/OneDrive/ドキュメント/会社/課題/gbdk/Resources/gbdk/include/gb/gb.h:1675: OAM_item_t * itm = &shadow_OAM[nb];
      0009D1 21r04r00         [12] 2353 	ld	hl, #(_shadow_OAM + 4)
                                   2354 ;C:/Users/sva13/OneDrive/ドキュメント/会社/課題/gbdk/Resources/gbdk/include/gb/gb.h:1676: itm->y=y, itm->x=x;
      0009D4 3E FF            [ 8] 2355 	ld	a, #0xff
      0009D6 22               [ 8] 2356 	ld	(hl+), a
      0009D7 36 FF            [12] 2357 	ld	(hl), #0xff
                           0009D9  2358 	C$HeroExec.c$361$3_0$218	= .
                                   2359 	.globl	C$HeroExec.c$361$3_0$218
                                   2360 ;C:\Users\sva13\OneDrive\ドキュメント\会社\課題\gbdk\Project\gb-test\source\exec\HeroExec.c:361: move_sprite(1,255,255);
      0009D9 C3r9Br0A         [16] 2361 	jp	00284$
      0009DC                       2362 00274$:
                           0009DC  2363 	C$HeroExec.c$363$3_0$218	= .
                                   2364 	.globl	C$HeroExec.c$363$3_0$218
                                   2365 ;C:\Users\sva13\OneDrive\ドキュメント\会社\課題\gbdk\Project\gb-test\source\exec\HeroExec.c:363: else if(actionCnt == 12){
      0009DC F8 03            [12] 2366 	ldhl	sp,	#3
      0009DE 7E               [ 8] 2367 	ld	a, (hl)
      0009DF B7               [ 4] 2368 	or	a, a
      0009E0 28 40            [12] 2369 	jr	Z, 00271$
                           0009E2  2370 	C$HeroExec.c$364$4_0$223	= .
                                   2371 	.globl	C$HeroExec.c$364$4_0$223
                                   2372 ;C:\Users\sva13\OneDrive\ドキュメント\会社\課題\gbdk\Project\gb-test\source\exec\HeroExec.c:364: set_sprite_data(0,4,SwordLeftDownTile);
      0009E2 11r00r00         [12] 2373 	ld	de, #_SwordLeftDownTile
      0009E5 D5               [16] 2374 	push	de
      0009E6 21 00 04         [12] 2375 	ld	hl, #0x400
      0009E9 E5               [16] 2376 	push	hl
      0009EA CDr00r00         [24] 2377 	call	_set_sprite_data
      0009ED E8 04            [16] 2378 	add	sp, #4
                           0009EF  2379 	C$HeroExec.c$365$4_0$223	= .
                                   2380 	.globl	C$HeroExec.c$365$4_0$223
                                   2381 ;C:\Users\sva13\OneDrive\ドキュメント\会社\課題\gbdk\Project\gb-test\source\exec\HeroExec.c:365: set_sprite_data(4,4,HeroDownAttack2Tile);
      0009EF 11r00r00         [12] 2382 	ld	de, #_HeroDownAttack2Tile
      0009F2 D5               [16] 2383 	push	de
      0009F3 21 04 04         [12] 2384 	ld	hl, #0x404
      0009F6 E5               [16] 2385 	push	hl
      0009F7 CDr00r00         [24] 2386 	call	_set_sprite_data
      0009FA E8 04            [16] 2387 	add	sp, #4
                                   2388 ;C:\Users\sva13\OneDrive\ドキュメント\会社\課題\gbdk\Project\gb-test\source\exec\HeroExec.c:366: move_sprite(0,spriteX-16,spriteY+12);
      0009FC FAr02r00         [16] 2389 	ld	a, (#_spriteY)
      0009FF C6 0C            [ 8] 2390 	add	a, #0x0c
      000A01 47               [ 4] 2391 	ld	b, a
      000A02 FAr01r00         [16] 2392 	ld	a, (#_spriteX)
      000A05 C6 F0            [ 8] 2393 	add	a, #0xf0
      000A07 4F               [ 4] 2394 	ld	c, a
                                   2395 ;C:/Users/sva13/OneDrive/ドキュメント/会社/課題/gbdk/Resources/gbdk/include/gb/gb.h:1675: OAM_item_t * itm = &shadow_OAM[nb];
      000A08 21r00r00         [12] 2396 	ld	hl, #_shadow_OAM
                                   2397 ;C:/Users/sva13/OneDrive/ドキュメント/会社/課題/gbdk/Resources/gbdk/include/gb/gb.h:1676: itm->y=y, itm->x=x;
      000A0B 78               [ 4] 2398 	ld	a, b
      000A0C 22               [ 8] 2399 	ld	(hl+), a
      000A0D 71               [ 8] 2400 	ld	(hl), c
                                   2401 ;C:\Users\sva13\OneDrive\ドキュメント\会社\課題\gbdk\Project\gb-test\source\exec\HeroExec.c:367: move_sprite(1,spriteX-8,spriteY+12);
      000A0E FAr02r00         [16] 2402 	ld	a, (#_spriteY)
      000A11 C6 0C            [ 8] 2403 	add	a, #0x0c
      000A13 47               [ 4] 2404 	ld	b, a
      000A14 FAr01r00         [16] 2405 	ld	a, (#_spriteX)
      000A17 C6 F8            [ 8] 2406 	add	a, #0xf8
      000A19 4F               [ 4] 2407 	ld	c, a
                                   2408 ;C:/Users/sva13/OneDrive/ドキュメント/会社/課題/gbdk/Resources/gbdk/include/gb/gb.h:1675: OAM_item_t * itm = &shadow_OAM[nb];
      000A1A 21r04r00         [12] 2409 	ld	hl, #(_shadow_OAM + 4)
                                   2410 ;C:/Users/sva13/OneDrive/ドキュメント/会社/課題/gbdk/Resources/gbdk/include/gb/gb.h:1676: itm->y=y, itm->x=x;
      000A1D 78               [ 4] 2411 	ld	a, b
      000A1E 22               [ 8] 2412 	ld	(hl+), a
      000A1F 71               [ 8] 2413 	ld	(hl), c
                           000A20  2414 	C$HeroExec.c$367$3_0$218	= .
                                   2415 	.globl	C$HeroExec.c$367$3_0$218
                                   2416 ;C:\Users\sva13\OneDrive\ドキュメント\会社\課題\gbdk\Project\gb-test\source\exec\HeroExec.c:367: move_sprite(1,spriteX-8,spriteY+12);
      000A20 18 79            [12] 2417 	jr	00284$
      000A22                       2418 00271$:
                           000A22  2419 	C$HeroExec.c$369$3_0$218	= .
                                   2420 	.globl	C$HeroExec.c$369$3_0$218
                                   2421 ;C:\Users\sva13\OneDrive\ドキュメント\会社\課題\gbdk\Project\gb-test\source\exec\HeroExec.c:369: else if(actionCnt == 17){
      000A22 F8 04            [12] 2422 	ldhl	sp,	#4
      000A24 7E               [ 8] 2423 	ld	a, (hl)
      000A25 B7               [ 4] 2424 	or	a, a
      000A26 28 12            [12] 2425 	jr	Z, 00268$
                                   2426 ;C:/Users/sva13/OneDrive/ドキュメント/会社/課題/gbdk/Resources/gbdk/include/gb/gb.h:1675: OAM_item_t * itm = &shadow_OAM[nb];
      000A28 21r00r00         [12] 2427 	ld	hl, #_shadow_OAM
                                   2428 ;C:/Users/sva13/OneDrive/ドキュメント/会社/課題/gbdk/Resources/gbdk/include/gb/gb.h:1676: itm->y=y, itm->x=x;
      000A2B 3E FF            [ 8] 2429 	ld	a, #0xff
      000A2D 22               [ 8] 2430 	ld	(hl+), a
      000A2E 36 FF            [12] 2431 	ld	(hl), #0xff
                                   2432 ;C:/Users/sva13/OneDrive/ドキュメント/会社/課題/gbdk/Resources/gbdk/include/gb/gb.h:1675: OAM_item_t * itm = &shadow_OAM[nb];
      000A30 21r04r00         [12] 2433 	ld	hl, #(_shadow_OAM + 4)
                                   2434 ;C:/Users/sva13/OneDrive/ドキュメント/会社/課題/gbdk/Resources/gbdk/include/gb/gb.h:1676: itm->y=y, itm->x=x;
      000A33 3E FF            [ 8] 2435 	ld	a, #0xff
      000A35 22               [ 8] 2436 	ld	(hl+), a
      000A36 36 FF            [12] 2437 	ld	(hl), #0xff
                           000A38  2438 	C$HeroExec.c$371$3_0$218	= .
                                   2439 	.globl	C$HeroExec.c$371$3_0$218
                                   2440 ;C:\Users\sva13\OneDrive\ドキュメント\会社\課題\gbdk\Project\gb-test\source\exec\HeroExec.c:371: move_sprite(1,255,255);
      000A38 18 61            [12] 2441 	jr	00284$
      000A3A                       2442 00268$:
                           000A3A  2443 	C$HeroExec.c$373$3_0$218	= .
                                   2444 	.globl	C$HeroExec.c$373$3_0$218
                                   2445 ;C:\Users\sva13\OneDrive\ドキュメント\会社\課題\gbdk\Project\gb-test\source\exec\HeroExec.c:373: else if(actionCnt == 18){
      000A3A F8 05            [12] 2446 	ldhl	sp,	#5
      000A3C 7E               [ 8] 2447 	ld	a, (hl)
      000A3D B7               [ 4] 2448 	or	a, a
      000A3E 28 33            [12] 2449 	jr	Z, 00265$
                           000A40  2450 	C$HeroExec.c$374$4_0$225	= .
                                   2451 	.globl	C$HeroExec.c$374$4_0$225
                                   2452 ;C:\Users\sva13\OneDrive\ドキュメント\会社\課題\gbdk\Project\gb-test\source\exec\HeroExec.c:374: set_sprite_data(0,4,SwordDownTile);
      000A40 11r00r00         [12] 2453 	ld	de, #_SwordDownTile
      000A43 D5               [16] 2454 	push	de
      000A44 21 00 04         [12] 2455 	ld	hl, #0x400
      000A47 E5               [16] 2456 	push	hl
      000A48 CDr00r00         [24] 2457 	call	_set_sprite_data
      000A4B E8 04            [16] 2458 	add	sp, #4
                                   2459 ;C:\Users\sva13\OneDrive\ドキュメント\会社\課題\gbdk\Project\gb-test\source\exec\HeroExec.c:375: move_sprite(0,spriteX-2,spriteY+16);
      000A4D FAr02r00         [16] 2460 	ld	a, (#_spriteY)
      000A50 C6 10            [ 8] 2461 	add	a, #0x10
      000A52 47               [ 4] 2462 	ld	b, a
      000A53 21r01r00         [12] 2463 	ld	hl, #_spriteX
      000A56 4E               [ 8] 2464 	ld	c, (hl)
      000A57 0D               [ 4] 2465 	dec	c
      000A58 0D               [ 4] 2466 	dec	c
                                   2467 ;C:/Users/sva13/OneDrive/ドキュメント/会社/課題/gbdk/Resources/gbdk/include/gb/gb.h:1675: OAM_item_t * itm = &shadow_OAM[nb];
      000A59 21r00r00         [12] 2468 	ld	hl, #_shadow_OAM
                                   2469 ;C:/Users/sva13/OneDrive/ドキュメント/会社/課題/gbdk/Resources/gbdk/include/gb/gb.h:1676: itm->y=y, itm->x=x;
      000A5C 78               [ 4] 2470 	ld	a, b
      000A5D 22               [ 8] 2471 	ld	(hl+), a
      000A5E 71               [ 8] 2472 	ld	(hl), c
                                   2473 ;C:\Users\sva13\OneDrive\ドキュメント\会社\課題\gbdk\Project\gb-test\source\exec\HeroExec.c:376: move_sprite(1,spriteX+6,spriteY+16);
      000A5F FAr02r00         [16] 2474 	ld	a, (#_spriteY)
      000A62 C6 10            [ 8] 2475 	add	a, #0x10
      000A64 47               [ 4] 2476 	ld	b, a
      000A65 FAr01r00         [16] 2477 	ld	a, (#_spriteX)
      000A68 C6 06            [ 8] 2478 	add	a, #0x06
      000A6A 4F               [ 4] 2479 	ld	c, a
                                   2480 ;C:/Users/sva13/OneDrive/ドキュメント/会社/課題/gbdk/Resources/gbdk/include/gb/gb.h:1675: OAM_item_t * itm = &shadow_OAM[nb];
      000A6B 21r04r00         [12] 2481 	ld	hl, #(_shadow_OAM + 4)
                                   2482 ;C:/Users/sva13/OneDrive/ドキュメント/会社/課題/gbdk/Resources/gbdk/include/gb/gb.h:1676: itm->y=y, itm->x=x;
      000A6E 78               [ 4] 2483 	ld	a, b
      000A6F 22               [ 8] 2484 	ld	(hl+), a
      000A70 71               [ 8] 2485 	ld	(hl), c
                           000A71  2486 	C$HeroExec.c$376$3_0$218	= .
                                   2487 	.globl	C$HeroExec.c$376$3_0$218
                                   2488 ;C:\Users\sva13\OneDrive\ドキュメント\会社\課題\gbdk\Project\gb-test\source\exec\HeroExec.c:376: move_sprite(1,spriteX+6,spriteY+16);
      000A71 18 28            [12] 2489 	jr	00284$
      000A73                       2490 00265$:
                           000A73  2491 	C$HeroExec.c$378$3_0$218	= .
                                   2492 	.globl	C$HeroExec.c$378$3_0$218
                                   2493 ;C:\Users\sva13\OneDrive\ドキュメント\会社\課題\gbdk\Project\gb-test\source\exec\HeroExec.c:378: else if(actionCnt == 24){
      000A73 F8 06            [12] 2494 	ldhl	sp,	#6
      000A75 7E               [ 8] 2495 	ld	a, (hl)
      000A76 B7               [ 4] 2496 	or	a, a
      000A77 28 22            [12] 2497 	jr	Z, 00284$
                           000A79  2498 	C$HeroExec.c$379$4_0$226	= .
                                   2499 	.globl	C$HeroExec.c$379$4_0$226
                                   2500 ;C:\Users\sva13\OneDrive\ドキュメント\会社\課題\gbdk\Project\gb-test\source\exec\HeroExec.c:379: set_sprite_data(4,4,HeroDownTile);
      000A79 11r00r00         [12] 2501 	ld	de, #_HeroDownTile
      000A7C D5               [16] 2502 	push	de
      000A7D 21 04 04         [12] 2503 	ld	hl, #0x404
      000A80 E5               [16] 2504 	push	hl
      000A81 CDr00r00         [24] 2505 	call	_set_sprite_data
      000A84 E8 04            [16] 2506 	add	sp, #4
                                   2507 ;C:/Users/sva13/OneDrive/ドキュメント/会社/課題/gbdk/Resources/gbdk/include/gb/gb.h:1675: OAM_item_t * itm = &shadow_OAM[nb];
      000A86 21r00r00         [12] 2508 	ld	hl, #_shadow_OAM
                                   2509 ;C:/Users/sva13/OneDrive/ドキュメント/会社/課題/gbdk/Resources/gbdk/include/gb/gb.h:1676: itm->y=y, itm->x=x;
      000A89 3E FF            [ 8] 2510 	ld	a, #0xff
      000A8B 22               [ 8] 2511 	ld	(hl+), a
      000A8C 36 FF            [12] 2512 	ld	(hl), #0xff
                                   2513 ;C:/Users/sva13/OneDrive/ドキュメント/会社/課題/gbdk/Resources/gbdk/include/gb/gb.h:1675: OAM_item_t * itm = &shadow_OAM[nb];
      000A8E 21r04r00         [12] 2514 	ld	hl, #(_shadow_OAM + 4)
                                   2515 ;C:/Users/sva13/OneDrive/ドキュメント/会社/課題/gbdk/Resources/gbdk/include/gb/gb.h:1676: itm->y=y, itm->x=x;
      000A91 3E FF            [ 8] 2516 	ld	a, #0xff
      000A93 22               [ 8] 2517 	ld	(hl+), a
      000A94 36 FF            [12] 2518 	ld	(hl), #0xff
                           000A96  2519 	C$HeroExec.c$382$4_0$226	= .
                                   2520 	.globl	C$HeroExec.c$382$4_0$226
                                   2521 ;C:\Users\sva13\OneDrive\ドキュメント\会社\課題\gbdk\Project\gb-test\source\exec\HeroExec.c:382: swordAction = NOACTION;
      000A96 21r0Cr00         [12] 2522 	ld	hl, #_swordAction
      000A99 36 00            [12] 2523 	ld	(hl), #0x00
      000A9B                       2524 00284$:
                           000A9B  2525 	C$HeroExec.c$126$1_0$146	= .
                                   2526 	.globl	C$HeroExec.c$126$1_0$146
                                   2527 ;C:\Users\sva13\OneDrive\ドキュメント\会社\課題\gbdk\Project\gb-test\source\exec\HeroExec.c:126: spriteX += 4;
      000A9B 21r01r00         [12] 2528 	ld	hl, #_spriteX
      000A9E 4E               [ 8] 2529 	ld	c, (hl)
                           000A9F  2530 	C$HeroExec.c$194$1_0$146	= .
                                   2531 	.globl	C$HeroExec.c$194$1_0$146
                                   2532 ;C:\Users\sva13\OneDrive\ドキュメント\会社\課題\gbdk\Project\gb-test\source\exec\HeroExec.c:194: spriteY -= 4;
      000A9F 21r02r00         [12] 2533 	ld	hl, #_spriteY
      000AA2 5E               [ 8] 2534 	ld	e, (hl)
                           000AA3  2535 	C$HeroExec.c$291$1_0$146	= .
                                   2536 	.globl	C$HeroExec.c$291$1_0$146
                                   2537 ;C:\Users\sva13\OneDrive\ドキュメント\会社\課題\gbdk\Project\gb-test\source\exec\HeroExec.c:291: if(actionCnt >= 6 && actionCnt < 12){
      000AA3 FAr07r00         [16] 2538 	ld	a, (#_actionCnt)
      000AA6 D6 0C            [ 8] 2539 	sub	a, #0x0c
      000AA8 3E 00            [ 8] 2540 	ld	a, #0x00
      000AAA 17               [ 4] 2541 	rla
      000AAB 57               [ 4] 2542 	ld	d, a
                           000AAC  2543 	C$HeroExec.c$292$1_0$146	= .
                                   2544 	.globl	C$HeroExec.c$292$1_0$146
                                   2545 ;C:\Users\sva13\OneDrive\ドキュメント\会社\課題\gbdk\Project\gb-test\source\exec\HeroExec.c:292: HitCheck(spriteX+16,spriteY,spriteX+32,spriteY+16);
      000AAC 7B               [ 4] 2546 	ld	a, e
      000AAD C6 10            [ 8] 2547 	add	a, #0x10
      000AAF 47               [ 4] 2548 	ld	b, a
                           000AB0  2549 	C$HeroExec.c$385$1_0$146	= .
                                   2550 	.globl	C$HeroExec.c$385$1_0$146
                                   2551 ;C:\Users\sva13\OneDrive\ドキュメント\会社\課題\gbdk\Project\gb-test\source\exec\HeroExec.c:385: HitCheck(spriteX-16,spriteY,spriteX,spriteY+16);
      000AB0 79               [ 4] 2552 	ld	a, c
      000AB1 C6 F0            [ 8] 2553 	add	a, #0xf0
      000AB3 F8 06            [12] 2554 	ldhl	sp,	#6
      000AB5 77               [ 8] 2555 	ld	(hl), a
                           000AB6  2556 	C$HeroExec.c$384$3_0$218	= .
                                   2557 	.globl	C$HeroExec.c$384$3_0$218
                                   2558 ;C:\Users\sva13\OneDrive\ドキュメント\会社\課題\gbdk\Project\gb-test\source\exec\HeroExec.c:384: if(actionCnt >= 6 && actionCnt < 12){
      000AB6 FAr07r00         [16] 2559 	ld	a, (#_actionCnt)
      000AB9 D6 06            [ 8] 2560 	sub	a, #0x06
      000ABB 38 18            [12] 2561 	jr	C, 00288$
      000ABD 7A               [ 4] 2562 	ld	a, d
      000ABE B7               [ 4] 2563 	or	a, a
      000ABF 28 14            [12] 2564 	jr	Z, 00288$
                           000AC1  2565 	C$HeroExec.c$385$4_0$227	= .
                                   2566 	.globl	C$HeroExec.c$385$4_0$227
                                   2567 ;C:\Users\sva13\OneDrive\ドキュメント\会社\課題\gbdk\Project\gb-test\source\exec\HeroExec.c:385: HitCheck(spriteX-16,spriteY,spriteX,spriteY+16);
      000AC1 C5               [16] 2568 	push	bc
      000AC2 33               [ 8] 2569 	inc	sp
      000AC3 FAr01r00         [16] 2570 	ld	a, (#_spriteX)
      000AC6 F5               [16] 2571 	push	af
      000AC7 33               [ 8] 2572 	inc	sp
      000AC8 21r02r00         [12] 2573 	ld	hl, #_spriteY
      000ACB 5E               [ 8] 2574 	ld	e, (hl)
      000ACC F8 08            [12] 2575 	ldhl	sp,	#8
      000ACE 7E               [ 8] 2576 	ld	a, (hl)
      000ACF CDr00r00         [24] 2577 	call	_HitCheck
      000AD2 C3r8Cr0C         [16] 2578 	jp	00326$
      000AD5                       2579 00288$:
                           000AD5  2580 	C$HeroExec.c$387$3_0$218	= .
                                   2581 	.globl	C$HeroExec.c$387$3_0$218
                                   2582 ;C:\Users\sva13\OneDrive\ドキュメント\会社\課題\gbdk\Project\gb-test\source\exec\HeroExec.c:387: else if(actionCnt >= 12){
      000AD5 CB 42            [ 8] 2583 	bit	0, d
      000AD7 C2r8Cr0C         [16] 2584 	jp	NZ, 00326$
                           000ADA  2585 	C$HeroExec.c$388$4_0$228	= .
                                   2586 	.globl	C$HeroExec.c$388$4_0$228
                                   2587 ;C:\Users\sva13\OneDrive\ドキュメント\会社\課題\gbdk\Project\gb-test\source\exec\HeroExec.c:388: HitCheck(spriteX-16,spriteY+16,spriteX+8,spriteY+32);
      000ADA 7B               [ 4] 2588 	ld	a, e
      000ADB C6 20            [ 8] 2589 	add	a, #0x20
      000ADD 57               [ 4] 2590 	ld	d, a
      000ADE 79               [ 4] 2591 	ld	a, c
      000ADF C6 08            [ 8] 2592 	add	a, #0x08
      000AE1 D5               [16] 2593 	push	de
      000AE2 33               [ 8] 2594 	inc	sp
      000AE3 F5               [16] 2595 	push	af
      000AE4 33               [ 8] 2596 	inc	sp
      000AE5 58               [ 4] 2597 	ld	e, b
      000AE6 F8 08            [12] 2598 	ldhl	sp,	#8
      000AE8 7E               [ 8] 2599 	ld	a, (hl)
      000AE9 CDr00r00         [24] 2600 	call	_HitCheck
      000AEC C3r8Cr0C         [16] 2601 	jp	00326$
      000AEF                       2602 00319$:
                           000AEF  2603 	C$HeroExec.c$391$2_0$196	= .
                                   2604 	.globl	C$HeroExec.c$391$2_0$196
                                   2605 ;C:\Users\sva13\OneDrive\ドキュメント\会社\課題\gbdk\Project\gb-test\source\exec\HeroExec.c:391: else if(direction == LEFT){
      000AEF FAr0Br00         [16] 2606 	ld	a, (#_direction)
      000AF2 D6 03            [ 8] 2607 	sub	a, #0x03
      000AF4 C2r8Cr0C         [16] 2608 	jp	NZ,00326$
                           000AF7  2609 	C$HeroExec.c$392$3_0$229	= .
                                   2610 	.globl	C$HeroExec.c$392$3_0$229
                                   2611 ;C:\Users\sva13\OneDrive\ドキュメント\会社\課題\gbdk\Project\gb-test\source\exec\HeroExec.c:392: if(actionCnt == 0){
      000AF7 FAr07r00         [16] 2612 	ld	a, (#_actionCnt)
      000AFA B7               [ 4] 2613 	or	a, a
      000AFB 20 41            [12] 2614 	jr	NZ, 00312$
                           000AFD  2615 	C$HeroExec.c$393$4_0$230	= .
                                   2616 	.globl	C$HeroExec.c$393$4_0$230
                                   2617 ;C:\Users\sva13\OneDrive\ドキュメント\会社\課題\gbdk\Project\gb-test\source\exec\HeroExec.c:393: set_sprite_data(0,4,SwordRightUpTile);
      000AFD 11r00r00         [12] 2618 	ld	de, #_SwordRightUpTile
      000B00 D5               [16] 2619 	push	de
      000B01 21 00 04         [12] 2620 	ld	hl, #0x400
      000B04 E5               [16] 2621 	push	hl
      000B05 CDr00r00         [24] 2622 	call	_set_sprite_data
      000B08 E8 04            [16] 2623 	add	sp, #4
                           000B0A  2624 	C$HeroExec.c$394$4_0$230	= .
                                   2625 	.globl	C$HeroExec.c$394$4_0$230
                                   2626 ;C:\Users\sva13\OneDrive\ドキュメント\会社\課題\gbdk\Project\gb-test\source\exec\HeroExec.c:394: set_sprite_data(4,4,HeroLeftAttack1Tile);
      000B0A 11r00r00         [12] 2627 	ld	de, #_HeroLeftAttack1Tile
      000B0D D5               [16] 2628 	push	de
      000B0E 21 04 04         [12] 2629 	ld	hl, #0x404
      000B11 E5               [16] 2630 	push	hl
      000B12 CDr00r00         [24] 2631 	call	_set_sprite_data
      000B15 E8 04            [16] 2632 	add	sp, #4
                                   2633 ;C:\Users\sva13\OneDrive\ドキュメント\会社\課題\gbdk\Project\gb-test\source\exec\HeroExec.c:395: move_sprite(0,spriteX+14,spriteY-10);
      000B17 FAr02r00         [16] 2634 	ld	a, (#_spriteY)
      000B1A C6 F6            [ 8] 2635 	add	a, #0xf6
      000B1C 47               [ 4] 2636 	ld	b, a
      000B1D FAr01r00         [16] 2637 	ld	a, (#_spriteX)
      000B20 C6 0E            [ 8] 2638 	add	a, #0x0e
      000B22 4F               [ 4] 2639 	ld	c, a
                                   2640 ;C:/Users/sva13/OneDrive/ドキュメント/会社/課題/gbdk/Resources/gbdk/include/gb/gb.h:1675: OAM_item_t * itm = &shadow_OAM[nb];
      000B23 21r00r00         [12] 2641 	ld	hl, #_shadow_OAM
                                   2642 ;C:/Users/sva13/OneDrive/ドキュメント/会社/課題/gbdk/Resources/gbdk/include/gb/gb.h:1676: itm->y=y, itm->x=x;
      000B26 78               [ 4] 2643 	ld	a, b
      000B27 22               [ 8] 2644 	ld	(hl+), a
      000B28 71               [ 8] 2645 	ld	(hl), c
                                   2646 ;C:\Users\sva13\OneDrive\ドキュメント\会社\課題\gbdk\Project\gb-test\source\exec\HeroExec.c:396: move_sprite(1,spriteX+22,spriteY-10);
      000B29 FAr02r00         [16] 2647 	ld	a, (#_spriteY)
      000B2C C6 F6            [ 8] 2648 	add	a, #0xf6
      000B2E 47               [ 4] 2649 	ld	b, a
      000B2F FAr01r00         [16] 2650 	ld	a, (#_spriteX)
      000B32 C6 16            [ 8] 2651 	add	a, #0x16
      000B34 4F               [ 4] 2652 	ld	c, a
                                   2653 ;C:/Users/sva13/OneDrive/ドキュメント/会社/課題/gbdk/Resources/gbdk/include/gb/gb.h:1675: OAM_item_t * itm = &shadow_OAM[nb];
      000B35 21r04r00         [12] 2654 	ld	hl, #(_shadow_OAM + 4)
                                   2655 ;C:/Users/sva13/OneDrive/ドキュメント/会社/課題/gbdk/Resources/gbdk/include/gb/gb.h:1676: itm->y=y, itm->x=x;
      000B38 78               [ 4] 2656 	ld	a, b
      000B39 22               [ 8] 2657 	ld	(hl+), a
      000B3A 71               [ 8] 2658 	ld	(hl), c
                           000B3B  2659 	C$HeroExec.c$396$3_0$229	= .
                                   2660 	.globl	C$HeroExec.c$396$3_0$229
                                   2661 ;C:\Users\sva13\OneDrive\ドキュメント\会社\課題\gbdk\Project\gb-test\source\exec\HeroExec.c:396: move_sprite(1,spriteX+22,spriteY-10);
      000B3B C3r69r0C         [16] 2662 	jp	00313$
      000B3E                       2663 00312$:
                           000B3E  2664 	C$HeroExec.c$398$3_0$229	= .
                                   2665 	.globl	C$HeroExec.c$398$3_0$229
                                   2666 ;C:\Users\sva13\OneDrive\ドキュメント\会社\課題\gbdk\Project\gb-test\source\exec\HeroExec.c:398: else if(actionCnt == 5){
      000B3E F8 00            [12] 2667 	ldhl	sp,	#0
      000B40 7E               [ 8] 2668 	ld	a, (hl)
      000B41 B7               [ 4] 2669 	or	a, a
      000B42 28 13            [12] 2670 	jr	Z, 00309$
                                   2671 ;C:/Users/sva13/OneDrive/ドキュメント/会社/課題/gbdk/Resources/gbdk/include/gb/gb.h:1675: OAM_item_t * itm = &shadow_OAM[nb];
      000B44 21r00r00         [12] 2672 	ld	hl, #_shadow_OAM
                                   2673 ;C:/Users/sva13/OneDrive/ドキュメント/会社/課題/gbdk/Resources/gbdk/include/gb/gb.h:1676: itm->y=y, itm->x=x;
      000B47 3E FF            [ 8] 2674 	ld	a, #0xff
      000B49 22               [ 8] 2675 	ld	(hl+), a
      000B4A 36 FF            [12] 2676 	ld	(hl), #0xff
                                   2677 ;C:/Users/sva13/OneDrive/ドキュメント/会社/課題/gbdk/Resources/gbdk/include/gb/gb.h:1675: OAM_item_t * itm = &shadow_OAM[nb];
      000B4C 21r04r00         [12] 2678 	ld	hl, #(_shadow_OAM + 4)
                                   2679 ;C:/Users/sva13/OneDrive/ドキュメント/会社/課題/gbdk/Resources/gbdk/include/gb/gb.h:1676: itm->y=y, itm->x=x;
      000B4F 3E FF            [ 8] 2680 	ld	a, #0xff
      000B51 22               [ 8] 2681 	ld	(hl+), a
      000B52 36 FF            [12] 2682 	ld	(hl), #0xff
                           000B54  2683 	C$HeroExec.c$400$3_0$229	= .
                                   2684 	.globl	C$HeroExec.c$400$3_0$229
                                   2685 ;C:\Users\sva13\OneDrive\ドキュメント\会社\課題\gbdk\Project\gb-test\source\exec\HeroExec.c:400: move_sprite(1,255,255);
      000B54 C3r69r0C         [16] 2686 	jp	00313$
      000B57                       2687 00309$:
                           000B57  2688 	C$HeroExec.c$402$3_0$229	= .
                                   2689 	.globl	C$HeroExec.c$402$3_0$229
                                   2690 ;C:\Users\sva13\OneDrive\ドキュメント\会社\課題\gbdk\Project\gb-test\source\exec\HeroExec.c:402: else if(actionCnt == 6){
      000B57 F8 01            [12] 2691 	ldhl	sp,	#1
      000B59 7E               [ 8] 2692 	ld	a, (hl)
      000B5A B7               [ 4] 2693 	or	a, a
      000B5B 28 34            [12] 2694 	jr	Z, 00306$
                           000B5D  2695 	C$HeroExec.c$403$4_0$232	= .
                                   2696 	.globl	C$HeroExec.c$403$4_0$232
                                   2697 ;C:\Users\sva13\OneDrive\ドキュメント\会社\課題\gbdk\Project\gb-test\source\exec\HeroExec.c:403: set_sprite_data(0,4,SwordUpTile);
      000B5D 11r00r00         [12] 2698 	ld	de, #_SwordUpTile
      000B60 D5               [16] 2699 	push	de
      000B61 21 00 04         [12] 2700 	ld	hl, #0x400
      000B64 E5               [16] 2701 	push	hl
      000B65 CDr00r00         [24] 2702 	call	_set_sprite_data
      000B68 E8 04            [16] 2703 	add	sp, #4
                                   2704 ;C:\Users\sva13\OneDrive\ドキュメント\会社\課題\gbdk\Project\gb-test\source\exec\HeroExec.c:404: move_sprite(0,spriteX+4,spriteY-10);
      000B6A FAr02r00         [16] 2705 	ld	a, (#_spriteY)
      000B6D C6 F6            [ 8] 2706 	add	a, #0xf6
      000B6F 4F               [ 4] 2707 	ld	c, a
      000B70 FAr01r00         [16] 2708 	ld	a, (#_spriteX)
      000B73 C6 04            [ 8] 2709 	add	a, #0x04
      000B75 47               [ 4] 2710 	ld	b, a
                                   2711 ;C:/Users/sva13/OneDrive/ドキュメント/会社/課題/gbdk/Resources/gbdk/include/gb/gb.h:1675: OAM_item_t * itm = &shadow_OAM[nb];
      000B76 21r00r00         [12] 2712 	ld	hl, #_shadow_OAM
                                   2713 ;C:/Users/sva13/OneDrive/ドキュメント/会社/課題/gbdk/Resources/gbdk/include/gb/gb.h:1676: itm->y=y, itm->x=x;
      000B79 79               [ 4] 2714 	ld	a, c
      000B7A 22               [ 8] 2715 	ld	(hl+), a
      000B7B 70               [ 8] 2716 	ld	(hl), b
                                   2717 ;C:\Users\sva13\OneDrive\ドキュメント\会社\課題\gbdk\Project\gb-test\source\exec\HeroExec.c:405: move_sprite(1,spriteX+12,spriteY-10);
      000B7C FAr02r00         [16] 2718 	ld	a, (#_spriteY)
      000B7F C6 F6            [ 8] 2719 	add	a, #0xf6
      000B81 4F               [ 4] 2720 	ld	c, a
      000B82 FAr01r00         [16] 2721 	ld	a, (#_spriteX)
      000B85 C6 0C            [ 8] 2722 	add	a, #0x0c
      000B87 47               [ 4] 2723 	ld	b, a
                                   2724 ;C:/Users/sva13/OneDrive/ドキュメント/会社/課題/gbdk/Resources/gbdk/include/gb/gb.h:1675: OAM_item_t * itm = &shadow_OAM[nb];
      000B88 21r04r00         [12] 2725 	ld	hl, #(_shadow_OAM + 4)
                                   2726 ;C:/Users/sva13/OneDrive/ドキュメント/会社/課題/gbdk/Resources/gbdk/include/gb/gb.h:1676: itm->y=y, itm->x=x;
      000B8B 79               [ 4] 2727 	ld	a, c
      000B8C 22               [ 8] 2728 	ld	(hl+), a
      000B8D 70               [ 8] 2729 	ld	(hl), b
                           000B8E  2730 	C$HeroExec.c$405$3_0$229	= .
                                   2731 	.globl	C$HeroExec.c$405$3_0$229
                                   2732 ;C:\Users\sva13\OneDrive\ドキュメント\会社\課題\gbdk\Project\gb-test\source\exec\HeroExec.c:405: move_sprite(1,spriteX+12,spriteY-10);
      000B8E C3r69r0C         [16] 2733 	jp	00313$
      000B91                       2734 00306$:
                           000B91  2735 	C$HeroExec.c$407$3_0$229	= .
                                   2736 	.globl	C$HeroExec.c$407$3_0$229
                                   2737 ;C:\Users\sva13\OneDrive\ドキュメント\会社\課題\gbdk\Project\gb-test\source\exec\HeroExec.c:407: else if(actionCnt == 11){
      000B91 F8 02            [12] 2738 	ldhl	sp,	#2
      000B93 7E               [ 8] 2739 	ld	a, (hl)
      000B94 B7               [ 4] 2740 	or	a, a
      000B95 28 13            [12] 2741 	jr	Z, 00303$
                                   2742 ;C:/Users/sva13/OneDrive/ドキュメント/会社/課題/gbdk/Resources/gbdk/include/gb/gb.h:1675: OAM_item_t * itm = &shadow_OAM[nb];
      000B97 21r00r00         [12] 2743 	ld	hl, #_shadow_OAM
                                   2744 ;C:/Users/sva13/OneDrive/ドキュメント/会社/課題/gbdk/Resources/gbdk/include/gb/gb.h:1676: itm->y=y, itm->x=x;
      000B9A 3E FF            [ 8] 2745 	ld	a, #0xff
      000B9C 22               [ 8] 2746 	ld	(hl+), a
      000B9D 36 FF            [12] 2747 	ld	(hl), #0xff
                                   2748 ;C:/Users/sva13/OneDrive/ドキュメント/会社/課題/gbdk/Resources/gbdk/include/gb/gb.h:1675: OAM_item_t * itm = &shadow_OAM[nb];
      000B9F 21r04r00         [12] 2749 	ld	hl, #(_shadow_OAM + 4)
                                   2750 ;C:/Users/sva13/OneDrive/ドキュメント/会社/課題/gbdk/Resources/gbdk/include/gb/gb.h:1676: itm->y=y, itm->x=x;
      000BA2 3E FF            [ 8] 2751 	ld	a, #0xff
      000BA4 22               [ 8] 2752 	ld	(hl+), a
      000BA5 36 FF            [12] 2753 	ld	(hl), #0xff
                           000BA7  2754 	C$HeroExec.c$409$3_0$229	= .
                                   2755 	.globl	C$HeroExec.c$409$3_0$229
                                   2756 ;C:\Users\sva13\OneDrive\ドキュメント\会社\課題\gbdk\Project\gb-test\source\exec\HeroExec.c:409: move_sprite(1,255,255);
      000BA7 C3r69r0C         [16] 2757 	jp	00313$
      000BAA                       2758 00303$:
                           000BAA  2759 	C$HeroExec.c$411$3_0$229	= .
                                   2760 	.globl	C$HeroExec.c$411$3_0$229
                                   2761 ;C:\Users\sva13\OneDrive\ドキュメント\会社\課題\gbdk\Project\gb-test\source\exec\HeroExec.c:411: else if(actionCnt == 12){
      000BAA F8 03            [12] 2762 	ldhl	sp,	#3
      000BAC 7E               [ 8] 2763 	ld	a, (hl)
      000BAD B7               [ 4] 2764 	or	a, a
      000BAE 28 40            [12] 2765 	jr	Z, 00300$
                           000BB0  2766 	C$HeroExec.c$412$4_0$234	= .
                                   2767 	.globl	C$HeroExec.c$412$4_0$234
                                   2768 ;C:\Users\sva13\OneDrive\ドキュメント\会社\課題\gbdk\Project\gb-test\source\exec\HeroExec.c:412: set_sprite_data(0,4,SwordLeftUpTile);
      000BB0 11r00r00         [12] 2769 	ld	de, #_SwordLeftUpTile
      000BB3 D5               [16] 2770 	push	de
      000BB4 21 00 04         [12] 2771 	ld	hl, #0x400
      000BB7 E5               [16] 2772 	push	hl
      000BB8 CDr00r00         [24] 2773 	call	_set_sprite_data
      000BBB E8 04            [16] 2774 	add	sp, #4
                           000BBD  2775 	C$HeroExec.c$413$4_0$234	= .
                                   2776 	.globl	C$HeroExec.c$413$4_0$234
                                   2777 ;C:\Users\sva13\OneDrive\ドキュメント\会社\課題\gbdk\Project\gb-test\source\exec\HeroExec.c:413: set_sprite_data(4,4,HeroLeftAttack2Tile);
      000BBD 11r00r00         [12] 2778 	ld	de, #_HeroLeftAttack2Tile
      000BC0 D5               [16] 2779 	push	de
      000BC1 21 04 04         [12] 2780 	ld	hl, #0x404
      000BC4 E5               [16] 2781 	push	hl
      000BC5 CDr00r00         [24] 2782 	call	_set_sprite_data
      000BC8 E8 04            [16] 2783 	add	sp, #4
                                   2784 ;C:\Users\sva13\OneDrive\ドキュメント\会社\課題\gbdk\Project\gb-test\source\exec\HeroExec.c:414: move_sprite(0,spriteX-12,spriteY-4);
      000BCA FAr02r00         [16] 2785 	ld	a, (#_spriteY)
      000BCD C6 FC            [ 8] 2786 	add	a, #0xfc
      000BCF 4F               [ 4] 2787 	ld	c, a
      000BD0 FAr01r00         [16] 2788 	ld	a, (#_spriteX)
      000BD3 C6 F4            [ 8] 2789 	add	a, #0xf4
      000BD5 47               [ 4] 2790 	ld	b, a
                                   2791 ;C:/Users/sva13/OneDrive/ドキュメント/会社/課題/gbdk/Resources/gbdk/include/gb/gb.h:1675: OAM_item_t * itm = &shadow_OAM[nb];
      000BD6 21r00r00         [12] 2792 	ld	hl, #_shadow_OAM
                                   2793 ;C:/Users/sva13/OneDrive/ドキュメント/会社/課題/gbdk/Resources/gbdk/include/gb/gb.h:1676: itm->y=y, itm->x=x;
      000BD9 79               [ 4] 2794 	ld	a, c
      000BDA 22               [ 8] 2795 	ld	(hl+), a
      000BDB 70               [ 8] 2796 	ld	(hl), b
                                   2797 ;C:\Users\sva13\OneDrive\ドキュメント\会社\課題\gbdk\Project\gb-test\source\exec\HeroExec.c:415: move_sprite(1,spriteX-4,spriteY-4);
      000BDC FAr02r00         [16] 2798 	ld	a, (#_spriteY)
      000BDF C6 FC            [ 8] 2799 	add	a, #0xfc
      000BE1 4F               [ 4] 2800 	ld	c, a
      000BE2 FAr01r00         [16] 2801 	ld	a, (#_spriteX)
      000BE5 C6 FC            [ 8] 2802 	add	a, #0xfc
      000BE7 47               [ 4] 2803 	ld	b, a
                                   2804 ;C:/Users/sva13/OneDrive/ドキュメント/会社/課題/gbdk/Resources/gbdk/include/gb/gb.h:1675: OAM_item_t * itm = &shadow_OAM[nb];
      000BE8 21r04r00         [12] 2805 	ld	hl, #(_shadow_OAM + 4)
                                   2806 ;C:/Users/sva13/OneDrive/ドキュメント/会社/課題/gbdk/Resources/gbdk/include/gb/gb.h:1676: itm->y=y, itm->x=x;
      000BEB 79               [ 4] 2807 	ld	a, c
      000BEC 22               [ 8] 2808 	ld	(hl+), a
      000BED 70               [ 8] 2809 	ld	(hl), b
                           000BEE  2810 	C$HeroExec.c$415$3_0$229	= .
                                   2811 	.globl	C$HeroExec.c$415$3_0$229
                                   2812 ;C:\Users\sva13\OneDrive\ドキュメント\会社\課題\gbdk\Project\gb-test\source\exec\HeroExec.c:415: move_sprite(1,spriteX-4,spriteY-4);
      000BEE 18 79            [12] 2813 	jr	00313$
      000BF0                       2814 00300$:
                           000BF0  2815 	C$HeroExec.c$417$3_0$229	= .
                                   2816 	.globl	C$HeroExec.c$417$3_0$229
                                   2817 ;C:\Users\sva13\OneDrive\ドキュメント\会社\課題\gbdk\Project\gb-test\source\exec\HeroExec.c:417: else if(actionCnt == 17){
      000BF0 F8 04            [12] 2818 	ldhl	sp,	#4
      000BF2 7E               [ 8] 2819 	ld	a, (hl)
      000BF3 B7               [ 4] 2820 	or	a, a
      000BF4 28 12            [12] 2821 	jr	Z, 00297$
                                   2822 ;C:/Users/sva13/OneDrive/ドキュメント/会社/課題/gbdk/Resources/gbdk/include/gb/gb.h:1675: OAM_item_t * itm = &shadow_OAM[nb];
      000BF6 21r00r00         [12] 2823 	ld	hl, #_shadow_OAM
                                   2824 ;C:/Users/sva13/OneDrive/ドキュメント/会社/課題/gbdk/Resources/gbdk/include/gb/gb.h:1676: itm->y=y, itm->x=x;
      000BF9 3E FF            [ 8] 2825 	ld	a, #0xff
      000BFB 22               [ 8] 2826 	ld	(hl+), a
      000BFC 36 FF            [12] 2827 	ld	(hl), #0xff
                                   2828 ;C:/Users/sva13/OneDrive/ドキュメント/会社/課題/gbdk/Resources/gbdk/include/gb/gb.h:1675: OAM_item_t * itm = &shadow_OAM[nb];
      000BFE 21r04r00         [12] 2829 	ld	hl, #(_shadow_OAM + 4)
                                   2830 ;C:/Users/sva13/OneDrive/ドキュメント/会社/課題/gbdk/Resources/gbdk/include/gb/gb.h:1676: itm->y=y, itm->x=x;
      000C01 3E FF            [ 8] 2831 	ld	a, #0xff
      000C03 22               [ 8] 2832 	ld	(hl+), a
      000C04 36 FF            [12] 2833 	ld	(hl), #0xff
                           000C06  2834 	C$HeroExec.c$419$3_0$229	= .
                                   2835 	.globl	C$HeroExec.c$419$3_0$229
                                   2836 ;C:\Users\sva13\OneDrive\ドキュメント\会社\課題\gbdk\Project\gb-test\source\exec\HeroExec.c:419: move_sprite(1,255,255);
      000C06 18 61            [12] 2837 	jr	00313$
      000C08                       2838 00297$:
                           000C08  2839 	C$HeroExec.c$421$3_0$229	= .
                                   2840 	.globl	C$HeroExec.c$421$3_0$229
                                   2841 ;C:\Users\sva13\OneDrive\ドキュメント\会社\課題\gbdk\Project\gb-test\source\exec\HeroExec.c:421: else if(actionCnt == 18){
      000C08 F8 05            [12] 2842 	ldhl	sp,	#5
      000C0A 7E               [ 8] 2843 	ld	a, (hl)
      000C0B B7               [ 4] 2844 	or	a, a
      000C0C 28 33            [12] 2845 	jr	Z, 00294$
                           000C0E  2846 	C$HeroExec.c$422$4_0$236	= .
                                   2847 	.globl	C$HeroExec.c$422$4_0$236
                                   2848 ;C:\Users\sva13\OneDrive\ドキュメント\会社\課題\gbdk\Project\gb-test\source\exec\HeroExec.c:422: set_sprite_data(0,4,SwordLeftTile);
      000C0E 11r00r00         [12] 2849 	ld	de, #_SwordLeftTile
      000C11 D5               [16] 2850 	push	de
      000C12 21 00 04         [12] 2851 	ld	hl, #0x400
      000C15 E5               [16] 2852 	push	hl
      000C16 CDr00r00         [24] 2853 	call	_set_sprite_data
      000C19 E8 04            [16] 2854 	add	sp, #4
                                   2855 ;C:\Users\sva13\OneDrive\ドキュメント\会社\課題\gbdk\Project\gb-test\source\exec\HeroExec.c:423: move_sprite(0,spriteX-12,spriteY+3);
      000C1B FAr02r00         [16] 2856 	ld	a, (#_spriteY)
      000C1E C6 03            [ 8] 2857 	add	a, #0x03
      000C20 4F               [ 4] 2858 	ld	c, a
      000C21 FAr01r00         [16] 2859 	ld	a, (#_spriteX)
      000C24 C6 F4            [ 8] 2860 	add	a, #0xf4
      000C26 47               [ 4] 2861 	ld	b, a
                                   2862 ;C:/Users/sva13/OneDrive/ドキュメント/会社/課題/gbdk/Resources/gbdk/include/gb/gb.h:1675: OAM_item_t * itm = &shadow_OAM[nb];
      000C27 21r00r00         [12] 2863 	ld	hl, #_shadow_OAM
                                   2864 ;C:/Users/sva13/OneDrive/ドキュメント/会社/課題/gbdk/Resources/gbdk/include/gb/gb.h:1676: itm->y=y, itm->x=x;
      000C2A 79               [ 4] 2865 	ld	a, c
      000C2B 22               [ 8] 2866 	ld	(hl+), a
      000C2C 70               [ 8] 2867 	ld	(hl), b
                                   2868 ;C:\Users\sva13\OneDrive\ドキュメント\会社\課題\gbdk\Project\gb-test\source\exec\HeroExec.c:424: move_sprite(1,spriteX-4,spriteY+3);
      000C2D FAr02r00         [16] 2869 	ld	a, (#_spriteY)
      000C30 C6 03            [ 8] 2870 	add	a, #0x03
      000C32 4F               [ 4] 2871 	ld	c, a
      000C33 FAr01r00         [16] 2872 	ld	a, (#_spriteX)
      000C36 C6 FC            [ 8] 2873 	add	a, #0xfc
      000C38 47               [ 4] 2874 	ld	b, a
                                   2875 ;C:/Users/sva13/OneDrive/ドキュメント/会社/課題/gbdk/Resources/gbdk/include/gb/gb.h:1675: OAM_item_t * itm = &shadow_OAM[nb];
      000C39 21r04r00         [12] 2876 	ld	hl, #(_shadow_OAM + 4)
                                   2877 ;C:/Users/sva13/OneDrive/ドキュメント/会社/課題/gbdk/Resources/gbdk/include/gb/gb.h:1676: itm->y=y, itm->x=x;
      000C3C 79               [ 4] 2878 	ld	a, c
      000C3D 22               [ 8] 2879 	ld	(hl+), a
      000C3E 70               [ 8] 2880 	ld	(hl), b
                           000C3F  2881 	C$HeroExec.c$424$3_0$229	= .
                                   2882 	.globl	C$HeroExec.c$424$3_0$229
                                   2883 ;C:\Users\sva13\OneDrive\ドキュメント\会社\課題\gbdk\Project\gb-test\source\exec\HeroExec.c:424: move_sprite(1,spriteX-4,spriteY+3);
      000C3F 18 28            [12] 2884 	jr	00313$
      000C41                       2885 00294$:
                           000C41  2886 	C$HeroExec.c$426$3_0$229	= .
                                   2887 	.globl	C$HeroExec.c$426$3_0$229
                                   2888 ;C:\Users\sva13\OneDrive\ドキュメント\会社\課題\gbdk\Project\gb-test\source\exec\HeroExec.c:426: else if(actionCnt == 24){
      000C41 F8 06            [12] 2889 	ldhl	sp,	#6
      000C43 7E               [ 8] 2890 	ld	a, (hl)
      000C44 B7               [ 4] 2891 	or	a, a
      000C45 28 22            [12] 2892 	jr	Z, 00313$
                           000C47  2893 	C$HeroExec.c$427$4_0$237	= .
                                   2894 	.globl	C$HeroExec.c$427$4_0$237
                                   2895 ;C:\Users\sva13\OneDrive\ドキュメント\会社\課題\gbdk\Project\gb-test\source\exec\HeroExec.c:427: set_sprite_data(4,4,HeroLeftTile);
      000C47 11r00r00         [12] 2896 	ld	de, #_HeroLeftTile
      000C4A D5               [16] 2897 	push	de
      000C4B 21 04 04         [12] 2898 	ld	hl, #0x404
      000C4E E5               [16] 2899 	push	hl
      000C4F CDr00r00         [24] 2900 	call	_set_sprite_data
      000C52 E8 04            [16] 2901 	add	sp, #4
                                   2902 ;C:/Users/sva13/OneDrive/ドキュメント/会社/課題/gbdk/Resources/gbdk/include/gb/gb.h:1675: OAM_item_t * itm = &shadow_OAM[nb];
      000C54 21r00r00         [12] 2903 	ld	hl, #_shadow_OAM
                                   2904 ;C:/Users/sva13/OneDrive/ドキュメント/会社/課題/gbdk/Resources/gbdk/include/gb/gb.h:1676: itm->y=y, itm->x=x;
      000C57 3E FF            [ 8] 2905 	ld	a, #0xff
      000C59 22               [ 8] 2906 	ld	(hl+), a
      000C5A 36 FF            [12] 2907 	ld	(hl), #0xff
                                   2908 ;C:/Users/sva13/OneDrive/ドキュメント/会社/課題/gbdk/Resources/gbdk/include/gb/gb.h:1675: OAM_item_t * itm = &shadow_OAM[nb];
      000C5C 21r04r00         [12] 2909 	ld	hl, #(_shadow_OAM + 4)
                                   2910 ;C:/Users/sva13/OneDrive/ドキュメント/会社/課題/gbdk/Resources/gbdk/include/gb/gb.h:1676: itm->y=y, itm->x=x;
      000C5F 3E FF            [ 8] 2911 	ld	a, #0xff
      000C61 22               [ 8] 2912 	ld	(hl+), a
      000C62 36 FF            [12] 2913 	ld	(hl), #0xff
                           000C64  2914 	C$HeroExec.c$430$4_0$237	= .
                                   2915 	.globl	C$HeroExec.c$430$4_0$237
                                   2916 ;C:\Users\sva13\OneDrive\ドキュメント\会社\課題\gbdk\Project\gb-test\source\exec\HeroExec.c:430: swordAction = NOACTION;
      000C64 21r0Cr00         [12] 2917 	ld	hl, #_swordAction
      000C67 36 00            [12] 2918 	ld	(hl), #0x00
      000C69                       2919 00313$:
                           000C69  2920 	C$HeroExec.c$432$3_0$229	= .
                                   2921 	.globl	C$HeroExec.c$432$3_0$229
                                   2922 ;C:\Users\sva13\OneDrive\ドキュメント\会社\課題\gbdk\Project\gb-test\source\exec\HeroExec.c:432: if(actionCnt >= 12){
      000C69 FAr07r00         [16] 2923 	ld	a, (#_actionCnt)
      000C6C D6 0C            [ 8] 2924 	sub	a, #0x0c
      000C6E 38 1C            [12] 2925 	jr	C, 00326$
                           000C70  2926 	C$HeroExec.c$433$4_0$238	= .
                                   2927 	.globl	C$HeroExec.c$433$4_0$238
                                   2928 ;C:\Users\sva13\OneDrive\ドキュメント\会社\課題\gbdk\Project\gb-test\source\exec\HeroExec.c:433: HitCheck(spriteX-16,spriteY-8,spriteX,spriteY+24);
      000C70 21r02r00         [12] 2929 	ld	hl, #_spriteY
      000C73 4E               [ 8] 2930 	ld	c, (hl)
      000C74 79               [ 4] 2931 	ld	a, c
      000C75 C6 18            [ 8] 2932 	add	a, #0x18
      000C77 47               [ 4] 2933 	ld	b, a
      000C78 79               [ 4] 2934 	ld	a, c
      000C79 C6 F8            [ 8] 2935 	add	a, #0xf8
      000C7B 5F               [ 4] 2936 	ld	e, a
      000C7C 21r01r00         [12] 2937 	ld	hl, #_spriteX
      000C7F 7E               [ 8] 2938 	ld	a, (hl)
      000C80 C6 F0            [ 8] 2939 	add	a, #0xf0
      000C82 4F               [ 4] 2940 	ld	c, a
      000C83 C5               [16] 2941 	push	bc
      000C84 33               [ 8] 2942 	inc	sp
      000C85 7E               [ 8] 2943 	ld	a, (hl)
      000C86 F5               [16] 2944 	push	af
      000C87 33               [ 8] 2945 	inc	sp
      000C88 79               [ 4] 2946 	ld	a, c
      000C89 CDr00r00         [24] 2947 	call	_HitCheck
      000C8C                       2948 00326$:
                           000C8C  2949 	C$HeroExec.c$436$2_0$196	= .
                                   2950 	.globl	C$HeroExec.c$436$2_0$196
                                   2951 ;C:\Users\sva13\OneDrive\ドキュメント\会社\課題\gbdk\Project\gb-test\source\exec\HeroExec.c:436: actionCnt++;
      000C8C 21r07r00         [12] 2952 	ld	hl, #_actionCnt
      000C8F 34               [12] 2953 	inc	(hl)
      000C90                       2954 00328$:
                           000C90  2955 	C$HeroExec.c$439$1_0$146	= .
                                   2956 	.globl	C$HeroExec.c$439$1_0$146
                                   2957 ;C:\Users\sva13\OneDrive\ドキュメント\会社\課題\gbdk\Project\gb-test\source\exec\HeroExec.c:439: joypadPrevious=joypad();
      000C90 CDr00r00         [24] 2958 	call	_joypad
      000C93 EAr00r00         [16] 2959 	ld	(#_joypadPrevious),a
                           000C96  2960 	C$HeroExec.c$440$1_0$146	= .
                                   2961 	.globl	C$HeroExec.c$440$1_0$146
                                   2962 ;C:\Users\sva13\OneDrive\ドキュメント\会社\課題\gbdk\Project\gb-test\source\exec\HeroExec.c:440: }
      000C96 E8 07            [16] 2963 	add	sp, #7
                           000C98  2964 	C$HeroExec.c$440$1_0$146	= .
                                   2965 	.globl	C$HeroExec.c$440$1_0$146
                           000C98  2966 	XG$HeroExec$0$0	= .
                                   2967 	.globl	XG$HeroExec$0$0
      000C98 C9               [16] 2968 	ret
                           000C99  2969 	G$StartBlink$0$0	= .
                                   2970 	.globl	G$StartBlink$0$0
                           000C99  2971 	C$HeroExec.c$442$1_0$491	= .
                                   2972 	.globl	C$HeroExec.c$442$1_0$491
                                   2973 ;C:\Users\sva13\OneDrive\ドキュメント\会社\課題\gbdk\Project\gb-test\source\exec\HeroExec.c:442: void StartBlink(){
                                   2974 ;	---------------------------------
                                   2975 ; Function StartBlink
                                   2976 ; ---------------------------------
      000C99                       2977 _StartBlink::
                           000C99  2978 	C$HeroExec.c$443$1_0$491	= .
                                   2979 	.globl	C$HeroExec.c$443$1_0$491
                                   2980 ;C:\Users\sva13\OneDrive\ドキュメント\会社\課題\gbdk\Project\gb-test\source\exec\HeroExec.c:443: if(blinkFlag == FALSE){
      000C99 21r0Dr00         [12] 2981 	ld	hl, #_blinkFlag
      000C9C 7E               [ 8] 2982 	ld	a, (hl)
      000C9D B7               [ 4] 2983 	or	a, a
      000C9E C0               [20] 2984 	ret	NZ
                           000C9F  2985 	C$HeroExec.c$444$2_0$492	= .
                                   2986 	.globl	C$HeroExec.c$444$2_0$492
                                   2987 ;C:\Users\sva13\OneDrive\ドキュメント\会社\課題\gbdk\Project\gb-test\source\exec\HeroExec.c:444: blinkFlag = TRUE;
      000C9F 36 01            [12] 2988 	ld	(hl), #0x01
                           000CA1  2989 	C$HeroExec.c$445$2_0$492	= .
                                   2990 	.globl	C$HeroExec.c$445$2_0$492
                                   2991 ;C:\Users\sva13\OneDrive\ドキュメント\会社\課題\gbdk\Project\gb-test\source\exec\HeroExec.c:445: blinkCnt = 0;
      000CA1 21r08r00         [12] 2992 	ld	hl, #_blinkCnt
      000CA4 36 00            [12] 2993 	ld	(hl), #0x00
                           000CA6  2994 	C$HeroExec.c$446$2_0$492	= .
                                   2995 	.globl	C$HeroExec.c$446$2_0$492
                                   2996 ;C:\Users\sva13\OneDrive\ドキュメント\会社\課題\gbdk\Project\gb-test\source\exec\HeroExec.c:446: set_sprite_data(24,4,HeroBlinkTile);
      000CA6 11r00r00         [12] 2997 	ld	de, #_HeroBlinkTile
      000CA9 D5               [16] 2998 	push	de
      000CAA 21 18 04         [12] 2999 	ld	hl, #0x418
      000CAD E5               [16] 3000 	push	hl
      000CAE CDr00r00         [24] 3001 	call	_set_sprite_data
      000CB1 E8 04            [16] 3002 	add	sp, #4
                                   3003 ;C:/Users/sva13/OneDrive/ドキュメント/会社/課題/gbdk/Resources/gbdk/include/gb/gb.h:1648: shadow_OAM[nb].prop=prop;
      000CB3 21r63r00         [12] 3004 	ld	hl, #(_shadow_OAM + 99)
      000CB6 36 00            [12] 3005 	ld	(hl), #0x00
                           000CB8  3006 	C$HeroExec.c$447$1_0$491	= .
                                   3007 	.globl	C$HeroExec.c$447$1_0$491
                                   3008 ;C:\Users\sva13\OneDrive\ドキュメント\会社\課題\gbdk\Project\gb-test\source\exec\HeroExec.c:447: set_sprite_prop(24,0x00);
                           000CB8  3009 	C$HeroExec.c$449$1_0$491	= .
                                   3010 	.globl	C$HeroExec.c$449$1_0$491
                                   3011 ;C:\Users\sva13\OneDrive\ドキュメント\会社\課題\gbdk\Project\gb-test\source\exec\HeroExec.c:449: }
                           000CB8  3012 	C$HeroExec.c$449$1_0$491	= .
                                   3013 	.globl	C$HeroExec.c$449$1_0$491
                           000CB8  3014 	XG$StartBlink$0$0	= .
                                   3015 	.globl	XG$StartBlink$0$0
      000CB8 C9               [16] 3016 	ret
                           000CB9  3017 	G$BlinkExec$0$0	= .
                                   3018 	.globl	G$BlinkExec$0$0
                           000CB9  3019 	C$HeroExec.c$451$1_0$496	= .
                                   3020 	.globl	C$HeroExec.c$451$1_0$496
                                   3021 ;C:\Users\sva13\OneDrive\ドキュメント\会社\課題\gbdk\Project\gb-test\source\exec\HeroExec.c:451: void BlinkExec(){
                                   3022 ;	---------------------------------
                                   3023 ; Function BlinkExec
                                   3024 ; ---------------------------------
      000CB9                       3025 _BlinkExec::
                           000CB9  3026 	C$HeroExec.c$452$1_0$496	= .
                                   3027 	.globl	C$HeroExec.c$452$1_0$496
                                   3028 ;C:\Users\sva13\OneDrive\ドキュメント\会社\課題\gbdk\Project\gb-test\source\exec\HeroExec.c:452: if(blinkFlag == TRUE){
      000CB9 FAr0Dr00         [16] 3029 	ld	a, (#_blinkFlag)
      000CBC 3D               [ 4] 3030 	dec	a
      000CBD C0               [20] 3031 	ret	NZ
                           000CBE  3032 	C$HeroExec.c$453$2_0$497	= .
                                   3033 	.globl	C$HeroExec.c$453$2_0$497
                                   3034 ;C:\Users\sva13\OneDrive\ドキュメント\会社\課題\gbdk\Project\gb-test\source\exec\HeroExec.c:453: if(blinkCnt == 0 || blinkCnt == 20 || blinkCnt == 40 || blinkCnt == 60 || blinkCnt == 80 || blinkCnt == 100 || blinkCnt == 120){
      000CBE 21r08r00         [12] 3035 	ld	hl, #_blinkCnt
      000CC1 7E               [ 8] 3036 	ld	a, (hl)
      000CC2 B7               [ 4] 3037 	or	a, a
      000CC3 28 28            [12] 3038 	jr	Z, 00101$
      000CC5 7E               [ 8] 3039 	ld	a, (hl)
      000CC6 D6 14            [ 8] 3040 	sub	a, #0x14
      000CC8 28 23            [12] 3041 	jr	Z, 00101$
      000CCA FAr08r00         [16] 3042 	ld	a, (#_blinkCnt)
      000CCD D6 28            [ 8] 3043 	sub	a, #0x28
      000CCF 28 1C            [12] 3044 	jr	Z, 00101$
      000CD1 FAr08r00         [16] 3045 	ld	a, (#_blinkCnt)
      000CD4 D6 3C            [ 8] 3046 	sub	a, #0x3c
      000CD6 28 15            [12] 3047 	jr	Z, 00101$
      000CD8 FAr08r00         [16] 3048 	ld	a, (#_blinkCnt)
      000CDB D6 50            [ 8] 3049 	sub	a, #0x50
      000CDD 28 0E            [12] 3050 	jr	Z, 00101$
      000CDF FAr08r00         [16] 3051 	ld	a, (#_blinkCnt)
      000CE2 D6 64            [ 8] 3052 	sub	a, #0x64
      000CE4 28 07            [12] 3053 	jr	Z, 00101$
      000CE6 FAr08r00         [16] 3054 	ld	a, (#_blinkCnt)
      000CE9 D6 78            [ 8] 3055 	sub	a, #0x78
      000CEB 20 0A            [12] 3056 	jr	NZ, 00102$
      000CED                       3057 00101$:
                                   3058 ;C:/Users/sva13/OneDrive/ドキュメント/会社/課題/gbdk/Resources/gbdk/include/gb/gb.h:1602: shadow_OAM[nb].tile=tile;
      000CED 21r0Ar00         [12] 3059 	ld	hl, #(_shadow_OAM + 10)
      000CF0 36 18            [12] 3060 	ld	(hl), #0x18
      000CF2 21r0Er00         [12] 3061 	ld	hl, #(_shadow_OAM + 14)
      000CF5 36 1A            [12] 3062 	ld	(hl), #0x1a
                           000CF7  3063 	C$HeroExec.c$455$2_0$497	= .
                                   3064 	.globl	C$HeroExec.c$455$2_0$497
                                   3065 ;C:\Users\sva13\OneDrive\ドキュメント\会社\課題\gbdk\Project\gb-test\source\exec\HeroExec.c:455: set_sprite_tile(3,26);
      000CF7                       3066 00102$:
                           000CF7  3067 	C$HeroExec.c$457$2_0$497	= .
                                   3068 	.globl	C$HeroExec.c$457$2_0$497
                                   3069 ;C:\Users\sva13\OneDrive\ドキュメント\会社\課題\gbdk\Project\gb-test\source\exec\HeroExec.c:457: if(blinkCnt == 10 || blinkCnt == 30 || blinkCnt == 50|| blinkCnt == 70 || blinkCnt == 90 || blinkCnt == 110 || blinkCnt == 130){
      000CF7 FAr08r00         [16] 3070 	ld	a, (#_blinkCnt)
      000CFA D6 0A            [ 8] 3071 	sub	a, #0x0a
      000CFC 28 2A            [12] 3072 	jr	Z, 00111$
      000CFE FAr08r00         [16] 3073 	ld	a, (#_blinkCnt)
      000D01 D6 1E            [ 8] 3074 	sub	a, #0x1e
      000D03 28 23            [12] 3075 	jr	Z, 00111$
      000D05 FAr08r00         [16] 3076 	ld	a, (#_blinkCnt)
      000D08 D6 32            [ 8] 3077 	sub	a, #0x32
      000D0A 28 1C            [12] 3078 	jr	Z, 00111$
      000D0C FAr08r00         [16] 3079 	ld	a, (#_blinkCnt)
      000D0F D6 46            [ 8] 3080 	sub	a, #0x46
      000D11 28 15            [12] 3081 	jr	Z, 00111$
      000D13 FAr08r00         [16] 3082 	ld	a, (#_blinkCnt)
      000D16 D6 5A            [ 8] 3083 	sub	a, #0x5a
      000D18 28 0E            [12] 3084 	jr	Z, 00111$
      000D1A FAr08r00         [16] 3085 	ld	a, (#_blinkCnt)
      000D1D D6 6E            [ 8] 3086 	sub	a, #0x6e
      000D1F 28 07            [12] 3087 	jr	Z, 00111$
      000D21 FAr08r00         [16] 3088 	ld	a, (#_blinkCnt)
      000D24 D6 82            [ 8] 3089 	sub	a, #0x82
      000D26 20 1C            [12] 3090 	jr	NZ, 00112$
      000D28                       3091 00111$:
                                   3092 ;C:/Users/sva13/OneDrive/ドキュメント/会社/課題/gbdk/Resources/gbdk/include/gb/gb.h:1602: shadow_OAM[nb].tile=tile;
      000D28 21r0Ar00         [12] 3093 	ld	hl, #(_shadow_OAM + 10)
      000D2B 36 04            [12] 3094 	ld	(hl), #0x04
      000D2D 21r0Er00         [12] 3095 	ld	hl, #(_shadow_OAM + 14)
      000D30 36 06            [12] 3096 	ld	(hl), #0x06
                           000D32  3097 	C$HeroExec.c$460$3_0$499	= .
                                   3098 	.globl	C$HeroExec.c$460$3_0$499
                                   3099 ;C:\Users\sva13\OneDrive\ドキュメント\会社\課題\gbdk\Project\gb-test\source\exec\HeroExec.c:460: if(blinkCnt == 130){
      000D32 FAr08r00         [16] 3100 	ld	a, (#_blinkCnt)
      000D35 D6 82            [ 8] 3101 	sub	a, #0x82
      000D37 20 0B            [12] 3102 	jr	NZ, 00112$
                           000D39  3103 	C$HeroExec.c$461$4_0$500	= .
                                   3104 	.globl	C$HeroExec.c$461$4_0$500
                                   3105 ;C:\Users\sva13\OneDrive\ドキュメント\会社\課題\gbdk\Project\gb-test\source\exec\HeroExec.c:461: blinkFlag = FALSE;
      000D39 21r0Dr00         [12] 3106 	ld	hl, #_blinkFlag
      000D3C 36 00            [12] 3107 	ld	(hl), #0x00
                           000D3E  3108 	C$HeroExec.c$462$4_0$500	= .
                                   3109 	.globl	C$HeroExec.c$462$4_0$500
                                   3110 ;C:\Users\sva13\OneDrive\ドキュメント\会社\課題\gbdk\Project\gb-test\source\exec\HeroExec.c:462: blinkCnt = 0;
      000D3E 21r08r00         [12] 3111 	ld	hl, #_blinkCnt
      000D41 36 00            [12] 3112 	ld	(hl), #0x00
                           000D43  3113 	C$HeroExec.c$463$4_0$500	= .
                                   3114 	.globl	C$HeroExec.c$463$4_0$500
                                   3115 ;C:\Users\sva13\OneDrive\ドキュメント\会社\課題\gbdk\Project\gb-test\source\exec\HeroExec.c:463: return;
      000D43 C9               [16] 3116 	ret
      000D44                       3117 00112$:
                           000D44  3118 	C$HeroExec.c$466$2_0$497	= .
                                   3119 	.globl	C$HeroExec.c$466$2_0$497
                                   3120 ;C:\Users\sva13\OneDrive\ドキュメント\会社\課題\gbdk\Project\gb-test\source\exec\HeroExec.c:466: blinkCnt = blinkCnt + 1;
      000D44 21r08r00         [12] 3121 	ld	hl, #_blinkCnt
      000D47 34               [12] 3122 	inc	(hl)
      000D48 7E               [ 8] 3123 	ld	a, (hl)
                           000D49  3124 	C$HeroExec.c$468$1_0$496	= .
                                   3125 	.globl	C$HeroExec.c$468$1_0$496
                                   3126 ;C:\Users\sva13\OneDrive\ドキュメント\会社\課題\gbdk\Project\gb-test\source\exec\HeroExec.c:468: }
                           000D49  3127 	C$HeroExec.c$468$1_0$496	= .
                                   3128 	.globl	C$HeroExec.c$468$1_0$496
                           000D49  3129 	XG$BlinkExec$0$0	= .
                                   3130 	.globl	XG$BlinkExec$0$0
      000D49 C9               [16] 3131 	ret
                                   3132 	.area _CODE
                                   3133 	.area _INITIALIZER
                                   3134 	.area _CABS (ABS)
